
Traductor Morse Sonoro.elf:     file format elf32-littlearm

Sections:
Idx Name          Size      VMA       LMA       File off  Algn
  0 .isr_vector   0000010c  08000000  08000000  00001000  2**0
                  CONTENTS, ALLOC, LOAD, READONLY, DATA
  1 .text         00006024  0800010c  0800010c  0000110c  2**2
                  CONTENTS, ALLOC, LOAD, READONLY, CODE
  2 .rodata       0000049c  08006130  08006130  00007130  2**2
                  CONTENTS, ALLOC, LOAD, READONLY, DATA
  3 .ARM.extab    00000000  080065cc  080065cc  000080ec  2**0
                  CONTENTS, READONLY
  4 .ARM          00000008  080065cc  080065cc  000075cc  2**2
                  CONTENTS, ALLOC, LOAD, READONLY, DATA
  5 .preinit_array 00000000  080065d4  080065d4  000080ec  2**0
                  CONTENTS, ALLOC, LOAD, DATA
  6 .init_array   00000004  080065d4  080065d4  000075d4  2**2
                  CONTENTS, ALLOC, LOAD, READONLY, DATA
  7 .fini_array   00000004  080065d8  080065d8  000075d8  2**2
                  CONTENTS, ALLOC, LOAD, READONLY, DATA
  8 .data         000000ec  20000000  080065dc  00008000  2**2
                  CONTENTS, ALLOC, LOAD, DATA
  9 .bss          000006fc  200000f0  080066c8  000080f0  2**3
                  ALLOC
 10 ._user_heap_stack 00000604  200007ec  080066c8  000087ec  2**0
                  ALLOC
 11 .ARM.attributes 00000029  00000000  00000000  000080ec  2**0
                  CONTENTS, READONLY
 12 .debug_info   0001c1ae  00000000  00000000  00008115  2**0
                  CONTENTS, READONLY, DEBUGGING, OCTETS
 13 .debug_abbrev 00004d5f  00000000  00000000  000242c3  2**0
                  CONTENTS, READONLY, DEBUGGING, OCTETS
 14 .debug_loclists 0000dac1  00000000  00000000  00029022  2**0
                  CONTENTS, READONLY, DEBUGGING, OCTETS
 15 .debug_aranges 00001248  00000000  00000000  00036ae8  2**3
                  CONTENTS, READONLY, DEBUGGING, OCTETS
 16 .debug_rnglists 00001758  00000000  00000000  00037d30  2**0
                  CONTENTS, READONLY, DEBUGGING, OCTETS
 17 .debug_macro  0001cf4f  00000000  00000000  00039488  2**0
                  CONTENTS, READONLY, DEBUGGING, OCTETS
 18 .debug_line   00026d17  00000000  00000000  000563d7  2**0
                  CONTENTS, READONLY, DEBUGGING, OCTETS
 19 .debug_str    00095555  00000000  00000000  0007d0ee  2**0
                  CONTENTS, READONLY, DEBUGGING, OCTETS
 20 .comment      00000043  00000000  00000000  00112643  2**0
                  CONTENTS, READONLY
 21 .debug_frame  00004008  00000000  00000000  00112688  2**2
                  CONTENTS, READONLY, DEBUGGING, OCTETS
 22 .debug_line_str 00000072  00000000  00000000  00116690  2**0
                  CONTENTS, READONLY, DEBUGGING, OCTETS

Disassembly of section .text:

0800010c <__do_global_dtors_aux>:
 800010c:	b510      	push	{r4, lr}
 800010e:	4c05      	ldr	r4, [pc, #20]	@ (8000124 <__do_global_dtors_aux+0x18>)
 8000110:	7823      	ldrb	r3, [r4, #0]
 8000112:	b933      	cbnz	r3, 8000122 <__do_global_dtors_aux+0x16>
 8000114:	4b04      	ldr	r3, [pc, #16]	@ (8000128 <__do_global_dtors_aux+0x1c>)
 8000116:	b113      	cbz	r3, 800011e <__do_global_dtors_aux+0x12>
 8000118:	4804      	ldr	r0, [pc, #16]	@ (800012c <__do_global_dtors_aux+0x20>)
 800011a:	f3af 8000 	nop.w
 800011e:	2301      	movs	r3, #1
 8000120:	7023      	strb	r3, [r4, #0]
 8000122:	bd10      	pop	{r4, pc}
 8000124:	200000f0 	.word	0x200000f0
 8000128:	00000000 	.word	0x00000000
 800012c:	08006118 	.word	0x08006118

08000130 <frame_dummy>:
 8000130:	b508      	push	{r3, lr}
 8000132:	4b03      	ldr	r3, [pc, #12]	@ (8000140 <frame_dummy+0x10>)
 8000134:	b11b      	cbz	r3, 800013e <frame_dummy+0xe>
 8000136:	4903      	ldr	r1, [pc, #12]	@ (8000144 <frame_dummy+0x14>)
 8000138:	4803      	ldr	r0, [pc, #12]	@ (8000148 <frame_dummy+0x18>)
 800013a:	f3af 8000 	nop.w
 800013e:	bd08      	pop	{r3, pc}
 8000140:	00000000 	.word	0x00000000
 8000144:	200000f4 	.word	0x200000f4
 8000148:	08006118 	.word	0x08006118

0800014c <strlen>:
 800014c:	4603      	mov	r3, r0
 800014e:	f813 2b01 	ldrb.w	r2, [r3], #1
 8000152:	2a00      	cmp	r2, #0
 8000154:	d1fb      	bne.n	800014e <strlen+0x2>
 8000156:	1a18      	subs	r0, r3, r0
 8000158:	3801      	subs	r0, #1
 800015a:	4770      	bx	lr

0800015c <MX_ADC1_Init>:

  /* USER CODE BEGIN ADC1_Init 0 */

  /* USER CODE END ADC1_Init 0 */

  ADC_ChannelConfTypeDef sConfig = {0};
 800015c:	2300      	movs	r3, #0
  */
  hadc1.Instance = ADC1;
  hadc1.Init.ScanConvMode = ADC_SCAN_DISABLE;
  hadc1.Init.ContinuousConvMode = DISABLE;
  hadc1.Init.DiscontinuousConvMode = DISABLE;
  hadc1.Init.ExternalTrigConv = ADC_EXTERNALTRIGCONV_T2_CC2;
 800015e:	f44f 21c0 	mov.w	r1, #393216	@ 0x60000
  hadc1.Init.DataAlign = ADC_DATAALIGN_RIGHT;
  hadc1.Init.NbrOfConversion = 1;
 8000162:	2201      	movs	r2, #1
{
 8000164:	b530      	push	{r4, r5, lr}
  hadc1.Instance = ADC1;
 8000166:	4812      	ldr	r0, [pc, #72]	@ (80001b0 <MX_ADC1_Init+0x54>)
 8000168:	4c12      	ldr	r4, [pc, #72]	@ (80001b4 <MX_ADC1_Init+0x58>)
{
 800016a:	b085      	sub	sp, #20
  ADC_ChannelConfTypeDef sConfig = {0};
 800016c:	e9cd 3301 	strd	r3, r3, [sp, #4]
  hadc1.Init.DataAlign = ADC_DATAALIGN_RIGHT;
 8000170:	e9c0 3301 	strd	r3, r3, [r0, #4]
  hadc1.Instance = ADC1;
 8000174:	6004      	str	r4, [r0, #0]
  ADC_ChannelConfTypeDef sConfig = {0};
 8000176:	9300      	str	r3, [sp, #0]
  hadc1.Init.ContinuousConvMode = DISABLE;
 8000178:	7303      	strb	r3, [r0, #12]
  hadc1.Init.DiscontinuousConvMode = DISABLE;
 800017a:	7503      	strb	r3, [r0, #20]
  hadc1.Init.ExternalTrigConv = ADC_EXTERNALTRIGCONV_T2_CC2;
 800017c:	61c1      	str	r1, [r0, #28]
  hadc1.Init.NbrOfConversion = 1;
 800017e:	6102      	str	r2, [r0, #16]
  if (HAL_ADC_Init(&hadc1) != HAL_OK)
 8000180:	f000 fdba 	bl	8000cf8 <HAL_ADC_Init>
 8000184:	b960      	cbnz	r0, 80001a0 <MX_ADC1_Init+0x44>
    Error_Handler();
  }

  /** Configure Regular Channel
  */
  sConfig.Channel = ADC_CHANNEL_0;
 8000186:	2400      	movs	r4, #0
 8000188:	2501      	movs	r5, #1
  sConfig.Rank = ADC_REGULAR_RANK_1;
  sConfig.SamplingTime = ADC_SAMPLETIME_1CYCLE_5;
 800018a:	2300      	movs	r3, #0
  if (HAL_ADC_ConfigChannel(&hadc1, &sConfig) != HAL_OK)
 800018c:	4669      	mov	r1, sp
 800018e:	4808      	ldr	r0, [pc, #32]	@ (80001b0 <MX_ADC1_Init+0x54>)
  sConfig.Channel = ADC_CHANNEL_0;
 8000190:	e9cd 4500 	strd	r4, r5, [sp]
  sConfig.SamplingTime = ADC_SAMPLETIME_1CYCLE_5;
 8000194:	9302      	str	r3, [sp, #8]
  if (HAL_ADC_ConfigChannel(&hadc1, &sConfig) != HAL_OK)
 8000196:	f000 fc25 	bl	80009e4 <HAL_ADC_ConfigChannel>
 800019a:	b920      	cbnz	r0, 80001a6 <MX_ADC1_Init+0x4a>
  }
  /* USER CODE BEGIN ADC1_Init 2 */

  /* USER CODE END ADC1_Init 2 */

}
 800019c:	b005      	add	sp, #20
 800019e:	bd30      	pop	{r4, r5, pc}
    Error_Handler();
 80001a0:	f000 f9a6 	bl	80004f0 <Error_Handler>
 80001a4:	e7ef      	b.n	8000186 <MX_ADC1_Init+0x2a>
    Error_Handler();
 80001a6:	f000 f9a3 	bl	80004f0 <Error_Handler>
}
 80001aa:	b005      	add	sp, #20
 80001ac:	bd30      	pop	{r4, r5, pc}
 80001ae:	bf00      	nop
 80001b0:	20000158 	.word	0x20000158
 80001b4:	40012400 	.word	0x40012400

080001b8 <HAL_ADC_MspInit>:

void HAL_ADC_MspInit(ADC_HandleTypeDef* adcHandle)
{
 80001b8:	b570      	push	{r4, r5, r6, lr}

  GPIO_InitTypeDef GPIO_InitStruct = {0};
 80001ba:	2400      	movs	r4, #0
  if(adcHandle->Instance==ADC1)
 80001bc:	4b21      	ldr	r3, [pc, #132]	@ (8000244 <HAL_ADC_MspInit+0x8c>)
 80001be:	6802      	ldr	r2, [r0, #0]
{
 80001c0:	b086      	sub	sp, #24
  if(adcHandle->Instance==ADC1)
 80001c2:	429a      	cmp	r2, r3
  GPIO_InitTypeDef GPIO_InitStruct = {0};
 80001c4:	e9cd 4402 	strd	r4, r4, [sp, #8]
 80001c8:	e9cd 4404 	strd	r4, r4, [sp, #16]
  if(adcHandle->Instance==ADC1)
 80001cc:	d001      	beq.n	80001d2 <HAL_ADC_MspInit+0x1a>

  /* USER CODE BEGIN ADC1_MspInit 1 */

  /* USER CODE END ADC1_MspInit 1 */
  }
}
 80001ce:	b006      	add	sp, #24
 80001d0:	bd70      	pop	{r4, r5, r6, pc}
    __HAL_RCC_ADC1_CLK_ENABLE();
 80001d2:	f503 436c 	add.w	r3, r3, #60416	@ 0xec00
 80001d6:	699a      	ldr	r2, [r3, #24]
    HAL_GPIO_Init(MIC_GPIO_Port, &GPIO_InitStruct);
 80001d8:	a902      	add	r1, sp, #8
    __HAL_RCC_ADC1_CLK_ENABLE();
 80001da:	f442 7200 	orr.w	r2, r2, #512	@ 0x200
 80001de:	619a      	str	r2, [r3, #24]
 80001e0:	699a      	ldr	r2, [r3, #24]
 80001e2:	4605      	mov	r5, r0
 80001e4:	f402 7200 	and.w	r2, r2, #512	@ 0x200
 80001e8:	9200      	str	r2, [sp, #0]
 80001ea:	9a00      	ldr	r2, [sp, #0]
    __HAL_RCC_GPIOA_CLK_ENABLE();
 80001ec:	699a      	ldr	r2, [r3, #24]
    hdma_adc1.Instance = DMA1_Channel1;
 80001ee:	4e16      	ldr	r6, [pc, #88]	@ (8000248 <HAL_ADC_MspInit+0x90>)
    __HAL_RCC_GPIOA_CLK_ENABLE();
 80001f0:	f042 0204 	orr.w	r2, r2, #4
 80001f4:	619a      	str	r2, [r3, #24]
 80001f6:	699b      	ldr	r3, [r3, #24]
    GPIO_InitStruct.Pin = MIC_Pin;
 80001f8:	2201      	movs	r2, #1
    __HAL_RCC_GPIOA_CLK_ENABLE();
 80001fa:	f003 0304 	and.w	r3, r3, #4
 80001fe:	9301      	str	r3, [sp, #4]
    GPIO_InitStruct.Pin = MIC_Pin;
 8000200:	2303      	movs	r3, #3
    __HAL_RCC_GPIOA_CLK_ENABLE();
 8000202:	9801      	ldr	r0, [sp, #4]
    HAL_GPIO_Init(MIC_GPIO_Port, &GPIO_InitStruct);
 8000204:	4811      	ldr	r0, [pc, #68]	@ (800024c <HAL_ADC_MspInit+0x94>)
    GPIO_InitStruct.Pin = MIC_Pin;
 8000206:	e9cd 2302 	strd	r2, r3, [sp, #8]
    HAL_GPIO_Init(MIC_GPIO_Port, &GPIO_InitStruct);
 800020a:	f001 f80f 	bl	800122c <HAL_GPIO_Init>
    hdma_adc1.Init.PeriphDataAlignment = DMA_PDATAALIGN_HALFWORD;
 800020e:	f44f 7380 	mov.w	r3, #256	@ 0x100
    hdma_adc1.Init.MemDataAlignment = DMA_MDATAALIGN_HALFWORD;
 8000212:	f44f 6280 	mov.w	r2, #1024	@ 0x400
    hdma_adc1.Init.MemInc = DMA_MINC_ENABLE;
 8000216:	2180      	movs	r1, #128	@ 0x80
    hdma_adc1.Init.PeriphDataAlignment = DMA_PDATAALIGN_HALFWORD;
 8000218:	6133      	str	r3, [r6, #16]
    hdma_adc1.Init.Priority = DMA_PRIORITY_MEDIUM;
 800021a:	f44f 5380 	mov.w	r3, #4096	@ 0x1000
    hdma_adc1.Init.MemDataAlignment = DMA_MDATAALIGN_HALFWORD;
 800021e:	e9c6 2405 	strd	r2, r4, [r6, #20]
    hdma_adc1.Instance = DMA1_Channel1;
 8000222:	4a0b      	ldr	r2, [pc, #44]	@ (8000250 <HAL_ADC_MspInit+0x98>)
    if (HAL_DMA_Init(&hdma_adc1) != HAL_OK)
 8000224:	4630      	mov	r0, r6
    hdma_adc1.Init.PeriphInc = DMA_PINC_DISABLE;
 8000226:	e9c6 4401 	strd	r4, r4, [r6, #4]
    hdma_adc1.Init.MemInc = DMA_MINC_ENABLE;
 800022a:	60f1      	str	r1, [r6, #12]
    hdma_adc1.Instance = DMA1_Channel1;
 800022c:	6032      	str	r2, [r6, #0]
    hdma_adc1.Init.Priority = DMA_PRIORITY_MEDIUM;
 800022e:	61f3      	str	r3, [r6, #28]
    if (HAL_DMA_Init(&hdma_adc1) != HAL_OK)
 8000230:	f000 fe7e 	bl	8000f30 <HAL_DMA_Init>
 8000234:	b918      	cbnz	r0, 800023e <HAL_ADC_MspInit+0x86>
    __HAL_LINKDMA(adcHandle,DMA_Handle,hdma_adc1);
 8000236:	622e      	str	r6, [r5, #32]
 8000238:	6275      	str	r5, [r6, #36]	@ 0x24
}
 800023a:	b006      	add	sp, #24
 800023c:	bd70      	pop	{r4, r5, r6, pc}
      Error_Handler();
 800023e:	f000 f957 	bl	80004f0 <Error_Handler>
 8000242:	e7f8      	b.n	8000236 <HAL_ADC_MspInit+0x7e>
 8000244:	40012400 	.word	0x40012400
 8000248:	20000110 	.word	0x20000110
 800024c:	40010800 	.word	0x40010800
 8000250:	40020008 	.word	0x40020008

08000254 <MX_DMA_Init>:
  /* DMA controller clock enable */
  __HAL_RCC_DMA1_CLK_ENABLE();

  /* DMA interrupt init */
  /* DMA1_Channel1_IRQn interrupt configuration */
  HAL_NVIC_SetPriority(DMA1_Channel1_IRQn, 0, 0);
 8000254:	2200      	movs	r2, #0
{
 8000256:	b500      	push	{lr}
  __HAL_RCC_DMA1_CLK_ENABLE();
 8000258:	4b0e      	ldr	r3, [pc, #56]	@ (8000294 <MX_DMA_Init+0x40>)
{
 800025a:	b083      	sub	sp, #12
  __HAL_RCC_DMA1_CLK_ENABLE();
 800025c:	6959      	ldr	r1, [r3, #20]
  HAL_NVIC_SetPriority(DMA1_Channel1_IRQn, 0, 0);
 800025e:	200b      	movs	r0, #11
  __HAL_RCC_DMA1_CLK_ENABLE();
 8000260:	f041 0101 	orr.w	r1, r1, #1
 8000264:	6159      	str	r1, [r3, #20]
 8000266:	695b      	ldr	r3, [r3, #20]
  HAL_NVIC_SetPriority(DMA1_Channel1_IRQn, 0, 0);
 8000268:	4611      	mov	r1, r2
  __HAL_RCC_DMA1_CLK_ENABLE();
 800026a:	f003 0301 	and.w	r3, r3, #1
 800026e:	9301      	str	r3, [sp, #4]
 8000270:	9b01      	ldr	r3, [sp, #4]
  HAL_NVIC_SetPriority(DMA1_Channel1_IRQn, 0, 0);
 8000272:	f000 fdf7 	bl	8000e64 <HAL_NVIC_SetPriority>
  HAL_NVIC_EnableIRQ(DMA1_Channel1_IRQn);
 8000276:	200b      	movs	r0, #11
 8000278:	f000 fe30 	bl	8000edc <HAL_NVIC_EnableIRQ>
  /* DMA1_Channel4_IRQn interrupt configuration */
  HAL_NVIC_SetPriority(DMA1_Channel4_IRQn, 0, 0);
 800027c:	2200      	movs	r2, #0
 800027e:	200e      	movs	r0, #14
 8000280:	4611      	mov	r1, r2
 8000282:	f000 fdef 	bl	8000e64 <HAL_NVIC_SetPriority>
  HAL_NVIC_EnableIRQ(DMA1_Channel4_IRQn);
 8000286:	200e      	movs	r0, #14

}
 8000288:	b003      	add	sp, #12
 800028a:	f85d eb04 	ldr.w	lr, [sp], #4
  HAL_NVIC_EnableIRQ(DMA1_Channel4_IRQn);
 800028e:	f000 be25 	b.w	8000edc <HAL_NVIC_EnableIRQ>
 8000292:	bf00      	nop
 8000294:	40021000 	.word	0x40021000

08000298 <MX_GPIO_Init>:
        * Output
        * EVENT_OUT
        * EXTI
*/
void MX_GPIO_Init(void)
{
 8000298:	e92d 41f0 	stmdb	sp!, {r4, r5, r6, r7, r8, lr}

  GPIO_InitTypeDef GPIO_InitStruct = {0};
 800029c:	2400      	movs	r4, #0
{
 800029e:	b088      	sub	sp, #32
  GPIO_InitTypeDef GPIO_InitStruct = {0};
 80002a0:	e9cd 4404 	strd	r4, r4, [sp, #16]
 80002a4:	e9cd 4406 	strd	r4, r4, [sp, #24]

  /* GPIO Ports Clock Enable */
  __HAL_RCC_GPIOC_CLK_ENABLE();
 80002a8:	4b3b      	ldr	r3, [pc, #236]	@ (8000398 <MX_GPIO_Init+0x100>)
  __HAL_RCC_GPIOD_CLK_ENABLE();
  __HAL_RCC_GPIOA_CLK_ENABLE();
  __HAL_RCC_GPIOB_CLK_ENABLE();

  /*Configure GPIO pin Output Level */
  HAL_GPIO_WritePin(GPIOA, LED_ERROR_Pin|BUZZER_Pin, GPIO_PIN_RESET);
 80002aa:	4f3c      	ldr	r7, [pc, #240]	@ (800039c <MX_GPIO_Init+0x104>)
  __HAL_RCC_GPIOC_CLK_ENABLE();
 80002ac:	699a      	ldr	r2, [r3, #24]

  /*Configure GPIO pin Output Level */
  HAL_GPIO_WritePin(GPIOB, LED_TRANSMIT_Pin|LED_RECEIVE_Pin, GPIO_PIN_RESET);
 80002ae:	4e3c      	ldr	r6, [pc, #240]	@ (80003a0 <MX_GPIO_Init+0x108>)
  __HAL_RCC_GPIOC_CLK_ENABLE();
 80002b0:	f042 0210 	orr.w	r2, r2, #16
 80002b4:	619a      	str	r2, [r3, #24]
 80002b6:	699a      	ldr	r2, [r3, #24]
  HAL_GPIO_WritePin(GPIOA, LED_ERROR_Pin|BUZZER_Pin, GPIO_PIN_RESET);
 80002b8:	4638      	mov	r0, r7
  __HAL_RCC_GPIOC_CLK_ENABLE();
 80002ba:	f002 0210 	and.w	r2, r2, #16
 80002be:	9200      	str	r2, [sp, #0]
 80002c0:	9a00      	ldr	r2, [sp, #0]
  __HAL_RCC_GPIOD_CLK_ENABLE();
 80002c2:	699a      	ldr	r2, [r3, #24]
  HAL_GPIO_WritePin(GPIOA, LED_ERROR_Pin|BUZZER_Pin, GPIO_PIN_RESET);
 80002c4:	21c0      	movs	r1, #192	@ 0xc0
  __HAL_RCC_GPIOD_CLK_ENABLE();
 80002c6:	f042 0220 	orr.w	r2, r2, #32
 80002ca:	619a      	str	r2, [r3, #24]
 80002cc:	699a      	ldr	r2, [r3, #24]

  /*Configure GPIO pin : B1_Pin */
  GPIO_InitStruct.Pin = B1_Pin;
  GPIO_InitStruct.Mode = GPIO_MODE_IT_RISING;
  GPIO_InitStruct.Pull = GPIO_NOPULL;
  HAL_GPIO_Init(B1_GPIO_Port, &GPIO_InitStruct);
 80002ce:	f8df 80d4 	ldr.w	r8, [pc, #212]	@ 80003a4 <MX_GPIO_Init+0x10c>
  __HAL_RCC_GPIOD_CLK_ENABLE();
 80002d2:	f002 0220 	and.w	r2, r2, #32
 80002d6:	9201      	str	r2, [sp, #4]
 80002d8:	9a01      	ldr	r2, [sp, #4]
  __HAL_RCC_GPIOA_CLK_ENABLE();
 80002da:	699a      	ldr	r2, [r3, #24]

  /*Configure GPIO pins : VELOCITY1_Pin VELOCITY2_Pin BTN_INPUT_Pin */
  GPIO_InitStruct.Pin = VELOCITY1_Pin|VELOCITY2_Pin|BTN_INPUT_Pin;
  GPIO_InitStruct.Mode = GPIO_MODE_INPUT;
  GPIO_InitStruct.Pull = GPIO_PULLDOWN;
 80002dc:	2502      	movs	r5, #2
  __HAL_RCC_GPIOA_CLK_ENABLE();
 80002de:	f042 0204 	orr.w	r2, r2, #4
 80002e2:	619a      	str	r2, [r3, #24]
 80002e4:	699a      	ldr	r2, [r3, #24]
 80002e6:	f002 0204 	and.w	r2, r2, #4
 80002ea:	9202      	str	r2, [sp, #8]
 80002ec:	9a02      	ldr	r2, [sp, #8]
  __HAL_RCC_GPIOB_CLK_ENABLE();
 80002ee:	699a      	ldr	r2, [r3, #24]
 80002f0:	f042 0208 	orr.w	r2, r2, #8
 80002f4:	619a      	str	r2, [r3, #24]
 80002f6:	699b      	ldr	r3, [r3, #24]
  HAL_GPIO_WritePin(GPIOA, LED_ERROR_Pin|BUZZER_Pin, GPIO_PIN_RESET);
 80002f8:	4622      	mov	r2, r4
  __HAL_RCC_GPIOB_CLK_ENABLE();
 80002fa:	f003 0308 	and.w	r3, r3, #8
 80002fe:	9303      	str	r3, [sp, #12]
 8000300:	9b03      	ldr	r3, [sp, #12]
  HAL_GPIO_WritePin(GPIOA, LED_ERROR_Pin|BUZZER_Pin, GPIO_PIN_RESET);
 8000302:	f001 f8a1 	bl	8001448 <HAL_GPIO_WritePin>
  HAL_GPIO_WritePin(GPIOB, LED_TRANSMIT_Pin|LED_RECEIVE_Pin, GPIO_PIN_RESET);
 8000306:	4630      	mov	r0, r6
 8000308:	4622      	mov	r2, r4
 800030a:	2130      	movs	r1, #48	@ 0x30
 800030c:	f001 f89c 	bl	8001448 <HAL_GPIO_WritePin>
  GPIO_InitStruct.Pin = B1_Pin;
 8000310:	f44f 5200 	mov.w	r2, #8192	@ 0x2000
 8000314:	4b24      	ldr	r3, [pc, #144]	@ (80003a8 <MX_GPIO_Init+0x110>)
  HAL_GPIO_Init(B1_GPIO_Port, &GPIO_InitStruct);
 8000316:	4640      	mov	r0, r8
 8000318:	a904      	add	r1, sp, #16
  GPIO_InitStruct.Pin = B1_Pin;
 800031a:	e9cd 2304 	strd	r2, r3, [sp, #16]
  GPIO_InitStruct.Pull = GPIO_NOPULL;
 800031e:	9406      	str	r4, [sp, #24]
  HAL_GPIO_Init(B1_GPIO_Port, &GPIO_InitStruct);
 8000320:	f000 ff84 	bl	800122c <HAL_GPIO_Init>
  GPIO_InitStruct.Pin = VELOCITY1_Pin|VELOCITY2_Pin|BTN_INPUT_Pin;
 8000324:	2283      	movs	r2, #131	@ 0x83
 8000326:	2300      	movs	r3, #0
  HAL_GPIO_Init(GPIOC, &GPIO_InitStruct);
 8000328:	4640      	mov	r0, r8
 800032a:	a904      	add	r1, sp, #16
  GPIO_InitStruct.Pin = VELOCITY1_Pin|VELOCITY2_Pin|BTN_INPUT_Pin;
 800032c:	e9cd 2304 	strd	r2, r3, [sp, #16]
  GPIO_InitStruct.Pull = GPIO_PULLDOWN;
 8000330:	9506      	str	r5, [sp, #24]
  HAL_GPIO_Init(GPIOC, &GPIO_InitStruct);
 8000332:	f000 ff7b 	bl	800122c <HAL_GPIO_Init>

  /*Configure GPIO pins : LED_ERROR_Pin BUZZER_Pin */
  GPIO_InitStruct.Pin = LED_ERROR_Pin|BUZZER_Pin;
 8000336:	23c0      	movs	r3, #192	@ 0xc0
  GPIO_InitStruct.Mode = GPIO_MODE_OUTPUT_PP;
  GPIO_InitStruct.Pull = GPIO_NOPULL;
  GPIO_InitStruct.Speed = GPIO_SPEED_FREQ_LOW;
  HAL_GPIO_Init(GPIOA, &GPIO_InitStruct);
 8000338:	4638      	mov	r0, r7
  GPIO_InitStruct.Mode = GPIO_MODE_OUTPUT_PP;
 800033a:	2701      	movs	r7, #1
  HAL_GPIO_Init(GPIOA, &GPIO_InitStruct);
 800033c:	a904      	add	r1, sp, #16
  GPIO_InitStruct.Pin = LED_ERROR_Pin|BUZZER_Pin;
 800033e:	9304      	str	r3, [sp, #16]
  GPIO_InitStruct.Speed = GPIO_SPEED_FREQ_LOW;
 8000340:	e9cd 4506 	strd	r4, r5, [sp, #24]
  GPIO_InitStruct.Mode = GPIO_MODE_OUTPUT_PP;
 8000344:	9705      	str	r7, [sp, #20]
  HAL_GPIO_Init(GPIOA, &GPIO_InitStruct);
 8000346:	f000 ff71 	bl	800122c <HAL_GPIO_Init>

  /*Configure GPIO pin : VELOCITY3_Pin */
  GPIO_InitStruct.Pin = VELOCITY3_Pin;
 800034a:	2201      	movs	r2, #1
 800034c:	2300      	movs	r3, #0
  GPIO_InitStruct.Mode = GPIO_MODE_INPUT;
  GPIO_InitStruct.Pull = GPIO_PULLDOWN;
  HAL_GPIO_Init(VELOCITY3_GPIO_Port, &GPIO_InitStruct);
 800034e:	4630      	mov	r0, r6
 8000350:	a904      	add	r1, sp, #16
  GPIO_InitStruct.Pin = VELOCITY3_Pin;
 8000352:	e9cd 2304 	strd	r2, r3, [sp, #16]
  GPIO_InitStruct.Pull = GPIO_PULLDOWN;
 8000356:	9506      	str	r5, [sp, #24]
  HAL_GPIO_Init(VELOCITY3_GPIO_Port, &GPIO_InitStruct);
 8000358:	f000 ff68 	bl	800122c <HAL_GPIO_Init>

  /*Configure GPIO pin : UART1_STATUS_Pin */
  GPIO_InitStruct.Pin = UART1_STATUS_Pin;
 800035c:	f44f 6280 	mov.w	r2, #1024	@ 0x400
 8000360:	2300      	movs	r3, #0
  GPIO_InitStruct.Mode = GPIO_MODE_INPUT;
  GPIO_InitStruct.Pull = GPIO_NOPULL;
  HAL_GPIO_Init(UART1_STATUS_GPIO_Port, &GPIO_InitStruct);
 8000362:	4630      	mov	r0, r6
 8000364:	a904      	add	r1, sp, #16
  GPIO_InitStruct.Pin = UART1_STATUS_Pin;
 8000366:	e9cd 2304 	strd	r2, r3, [sp, #16]
  GPIO_InitStruct.Pull = GPIO_NOPULL;
 800036a:	9406      	str	r4, [sp, #24]
  HAL_GPIO_Init(UART1_STATUS_GPIO_Port, &GPIO_InitStruct);
 800036c:	f000 ff5e 	bl	800122c <HAL_GPIO_Init>

  /*Configure GPIO pins : LED_TRANSMIT_Pin LED_RECEIVE_Pin */
  GPIO_InitStruct.Pin = LED_TRANSMIT_Pin|LED_RECEIVE_Pin;
 8000370:	2330      	movs	r3, #48	@ 0x30
  GPIO_InitStruct.Mode = GPIO_MODE_OUTPUT_PP;
  GPIO_InitStruct.Pull = GPIO_NOPULL;
  GPIO_InitStruct.Speed = GPIO_SPEED_FREQ_LOW;
  HAL_GPIO_Init(GPIOB, &GPIO_InitStruct);
 8000372:	4630      	mov	r0, r6
 8000374:	a904      	add	r1, sp, #16
  GPIO_InitStruct.Pin = LED_TRANSMIT_Pin|LED_RECEIVE_Pin;
 8000376:	9304      	str	r3, [sp, #16]
  GPIO_InitStruct.Speed = GPIO_SPEED_FREQ_LOW;
 8000378:	e9cd 4506 	strd	r4, r5, [sp, #24]
  GPIO_InitStruct.Mode = GPIO_MODE_OUTPUT_PP;
 800037c:	9705      	str	r7, [sp, #20]
  HAL_GPIO_Init(GPIOB, &GPIO_InitStruct);
 800037e:	f000 ff55 	bl	800122c <HAL_GPIO_Init>

  /* EXTI interrupt init*/
  HAL_NVIC_SetPriority(EXTI15_10_IRQn, 0, 0);
 8000382:	4622      	mov	r2, r4
 8000384:	4621      	mov	r1, r4
 8000386:	2028      	movs	r0, #40	@ 0x28
 8000388:	f000 fd6c 	bl	8000e64 <HAL_NVIC_SetPriority>
  HAL_NVIC_EnableIRQ(EXTI15_10_IRQn);
 800038c:	2028      	movs	r0, #40	@ 0x28
 800038e:	f000 fda5 	bl	8000edc <HAL_NVIC_EnableIRQ>

}
 8000392:	b008      	add	sp, #32
 8000394:	e8bd 81f0 	ldmia.w	sp!, {r4, r5, r6, r7, r8, pc}
 8000398:	40021000 	.word	0x40021000
 800039c:	40010800 	.word	0x40010800
 80003a0:	40010c00 	.word	0x40010c00
 80003a4:	40011000 	.word	0x40011000
 80003a8:	10110000 	.word	0x10110000

080003ac <MX_I2C1_Init>:

  /* USER CODE BEGIN I2C1_Init 1 */

  /* USER CODE END I2C1_Init 1 */
  hi2c1.Instance = I2C1;
  hi2c1.Init.ClockSpeed = 100000;
 80003ac:	2300      	movs	r3, #0
 80003ae:	f44f 4280 	mov.w	r2, #16384	@ 0x4000
{
 80003b2:	b510      	push	{r4, lr}
  hi2c1.Instance = I2C1;
 80003b4:	4809      	ldr	r0, [pc, #36]	@ (80003dc <MX_I2C1_Init+0x30>)
  hi2c1.Init.ClockSpeed = 100000;
 80003b6:	4c0a      	ldr	r4, [pc, #40]	@ (80003e0 <MX_I2C1_Init+0x34>)
 80003b8:	490a      	ldr	r1, [pc, #40]	@ (80003e4 <MX_I2C1_Init+0x38>)
 80003ba:	e9c0 3302 	strd	r3, r3, [r0, #8]
 80003be:	e9c0 4100 	strd	r4, r1, [r0]
 80003c2:	e9c0 2304 	strd	r2, r3, [r0, #16]
 80003c6:	e9c0 3306 	strd	r3, r3, [r0, #24]
 80003ca:	6203      	str	r3, [r0, #32]
  hi2c1.Init.AddressingMode = I2C_ADDRESSINGMODE_7BIT;
  hi2c1.Init.DualAddressMode = I2C_DUALADDRESS_DISABLE;
  hi2c1.Init.OwnAddress2 = 0;
  hi2c1.Init.GeneralCallMode = I2C_GENERALCALL_DISABLE;
  hi2c1.Init.NoStretchMode = I2C_NOSTRETCH_DISABLE;
  if (HAL_I2C_Init(&hi2c1) != HAL_OK)
 80003cc:	f001 fa0c 	bl	80017e8 <HAL_I2C_Init>
 80003d0:	b900      	cbnz	r0, 80003d4 <MX_I2C1_Init+0x28>
  }
  /* USER CODE BEGIN I2C1_Init 2 */

  /* USER CODE END I2C1_Init 2 */

}
 80003d2:	bd10      	pop	{r4, pc}
 80003d4:	e8bd 4010 	ldmia.w	sp!, {r4, lr}
    Error_Handler();
 80003d8:	f000 b88a 	b.w	80004f0 <Error_Handler>
 80003dc:	20000188 	.word	0x20000188
 80003e0:	40005400 	.word	0x40005400
 80003e4:	000186a0 	.word	0x000186a0

080003e8 <HAL_I2C_MspInit>:

void HAL_I2C_MspInit(I2C_HandleTypeDef* i2cHandle)
{

  GPIO_InitTypeDef GPIO_InitStruct = {0};
 80003e8:	2300      	movs	r3, #0
{
 80003ea:	b5d0      	push	{r4, r6, r7, lr}
  if(i2cHandle->Instance==I2C1)
 80003ec:	4a14      	ldr	r2, [pc, #80]	@ (8000440 <HAL_I2C_MspInit+0x58>)
 80003ee:	6801      	ldr	r1, [r0, #0]
{
 80003f0:	b086      	sub	sp, #24
  if(i2cHandle->Instance==I2C1)
 80003f2:	4291      	cmp	r1, r2
  GPIO_InitTypeDef GPIO_InitStruct = {0};
 80003f4:	e9cd 3302 	strd	r3, r3, [sp, #8]
 80003f8:	e9cd 3304 	strd	r3, r3, [sp, #16]
  if(i2cHandle->Instance==I2C1)
 80003fc:	d001      	beq.n	8000402 <HAL_I2C_MspInit+0x1a>
    __HAL_RCC_I2C1_CLK_ENABLE();
  /* USER CODE BEGIN I2C1_MspInit 1 */

  /* USER CODE END I2C1_MspInit 1 */
  }
}
 80003fe:	b006      	add	sp, #24
 8000400:	bdd0      	pop	{r4, r6, r7, pc}
    GPIO_InitStruct.Speed = GPIO_SPEED_FREQ_HIGH;
 8000402:	2203      	movs	r2, #3
    GPIO_InitStruct.Pin = GPIO_PIN_6|GPIO_PIN_7;
 8000404:	26c0      	movs	r6, #192	@ 0xc0
 8000406:	2712      	movs	r7, #18
    __HAL_RCC_GPIOB_CLK_ENABLE();
 8000408:	4c0e      	ldr	r4, [pc, #56]	@ (8000444 <HAL_I2C_MspInit+0x5c>)
    HAL_GPIO_Init(GPIOB, &GPIO_InitStruct);
 800040a:	480f      	ldr	r0, [pc, #60]	@ (8000448 <HAL_I2C_MspInit+0x60>)
    __HAL_RCC_GPIOB_CLK_ENABLE();
 800040c:	69a3      	ldr	r3, [r4, #24]
    HAL_GPIO_Init(GPIOB, &GPIO_InitStruct);
 800040e:	a902      	add	r1, sp, #8
    __HAL_RCC_GPIOB_CLK_ENABLE();
 8000410:	f043 0308 	orr.w	r3, r3, #8
 8000414:	61a3      	str	r3, [r4, #24]
 8000416:	69a3      	ldr	r3, [r4, #24]
    GPIO_InitStruct.Pin = GPIO_PIN_6|GPIO_PIN_7;
 8000418:	e9cd 6702 	strd	r6, r7, [sp, #8]
    __HAL_RCC_GPIOB_CLK_ENABLE();
 800041c:	f003 0308 	and.w	r3, r3, #8
 8000420:	9300      	str	r3, [sp, #0]
 8000422:	9b00      	ldr	r3, [sp, #0]
    GPIO_InitStruct.Speed = GPIO_SPEED_FREQ_HIGH;
 8000424:	9205      	str	r2, [sp, #20]
    HAL_GPIO_Init(GPIOB, &GPIO_InitStruct);
 8000426:	f000 ff01 	bl	800122c <HAL_GPIO_Init>
    __HAL_RCC_I2C1_CLK_ENABLE();
 800042a:	69e3      	ldr	r3, [r4, #28]
 800042c:	f443 1300 	orr.w	r3, r3, #2097152	@ 0x200000
 8000430:	61e3      	str	r3, [r4, #28]
 8000432:	69e3      	ldr	r3, [r4, #28]
 8000434:	f403 1300 	and.w	r3, r3, #2097152	@ 0x200000
 8000438:	9301      	str	r3, [sp, #4]
 800043a:	9b01      	ldr	r3, [sp, #4]
}
 800043c:	b006      	add	sp, #24
 800043e:	bdd0      	pop	{r4, r6, r7, pc}
 8000440:	40005400 	.word	0x40005400
 8000444:	40021000 	.word	0x40021000
 8000448:	40010c00 	.word	0x40010c00

0800044c <SystemClock_Config>:
/**
  * @brief System Clock Configuration
  * @retval None
  */
void SystemClock_Config(void)
{
 800044c:	b5d0      	push	{r4, r6, r7, lr}
 800044e:	b094      	sub	sp, #80	@ 0x50
  RCC_OscInitTypeDef RCC_OscInitStruct = {0};
 8000450:	2224      	movs	r2, #36	@ 0x24
 8000452:	2100      	movs	r1, #0
 8000454:	a80b      	add	r0, sp, #44	@ 0x2c
 8000456:	f004 ff30 	bl	80052ba <memset>
  RCC_PeriphCLKInitTypeDef PeriphClkInit = {0};

  /** Initializes the RCC Oscillators according to the specified parameters
  * in the RCC_OscInitTypeDef structure.
  */
  RCC_OscInitStruct.OscillatorType = RCC_OSCILLATORTYPE_HSI;
 800045a:	2402      	movs	r4, #2
  RCC_ClkInitTypeDef RCC_ClkInitStruct = {0};
 800045c:	2300      	movs	r3, #0
  RCC_OscInitStruct.HSIState = RCC_HSI_ON;
 800045e:	2601      	movs	r6, #1
 8000460:	2710      	movs	r7, #16
  RCC_OscInitStruct.HSICalibrationValue = RCC_HSICALIBRATION_DEFAULT;
  RCC_OscInitStruct.PLL.PLLState = RCC_PLL_ON;
  RCC_OscInitStruct.PLL.PLLSource = RCC_PLLSOURCE_HSI_DIV2;
  RCC_OscInitStruct.PLL.PLLMUL = RCC_PLL_MUL2;
  if (HAL_RCC_OscConfig(&RCC_OscInitStruct) != HAL_OK)
 8000462:	a80a      	add	r0, sp, #40	@ 0x28
  RCC_OscInitStruct.HSIState = RCC_HSI_ON;
 8000464:	e9cd 670e 	strd	r6, r7, [sp, #56]	@ 0x38
  RCC_ClkInitTypeDef RCC_ClkInitStruct = {0};
 8000468:	e9cd 3306 	strd	r3, r3, [sp, #24]
 800046c:	e9cd 3308 	strd	r3, r3, [sp, #32]
  RCC_PeriphCLKInitTypeDef PeriphClkInit = {0};
 8000470:	e9cd 3302 	strd	r3, r3, [sp, #8]
  RCC_ClkInitTypeDef RCC_ClkInitStruct = {0};
 8000474:	9305      	str	r3, [sp, #20]
  RCC_PeriphCLKInitTypeDef PeriphClkInit = {0};
 8000476:	9301      	str	r3, [sp, #4]
  RCC_OscInitStruct.OscillatorType = RCC_OSCILLATORTYPE_HSI;
 8000478:	940a      	str	r4, [sp, #40]	@ 0x28
  RCC_OscInitStruct.PLL.PLLState = RCC_PLL_ON;
 800047a:	9411      	str	r4, [sp, #68]	@ 0x44
  RCC_PeriphCLKInitTypeDef PeriphClkInit = {0};
 800047c:	9304      	str	r3, [sp, #16]
  if (HAL_RCC_OscConfig(&RCC_OscInitStruct) != HAL_OK)
 800047e:	f001 fbef 	bl	8001c60 <HAL_RCC_OscConfig>
 8000482:	b108      	cbz	r0, 8000488 <SystemClock_Config+0x3c>
  \details Disables IRQ interrupts by setting the I-bit in the CPSR.
           Can only be executed in Privileged modes.
 */
__STATIC_FORCEINLINE void __disable_irq(void)
{
  __ASM volatile ("cpsid i" : : : "memory");
 8000484:	b672      	cpsid	i
void Error_Handler(void)
{
  /* USER CODE BEGIN Error_Handler_Debug */
  /* User can add his own implementation to report the HAL error return state */
  __disable_irq();
  while (1)
 8000486:	e7fe      	b.n	8000486 <SystemClock_Config+0x3a>
  RCC_ClkInitStruct.ClockType = RCC_CLOCKTYPE_HCLK|RCC_CLOCKTYPE_SYSCLK
 8000488:	4601      	mov	r1, r0
 800048a:	230f      	movs	r3, #15
  RCC_ClkInitStruct.APB1CLKDivider = RCC_HCLK_DIV2;
 800048c:	f44f 6280 	mov.w	r2, #1024	@ 0x400
  if (HAL_RCC_ClockConfig(&RCC_ClkInitStruct, FLASH_LATENCY_0) != HAL_OK)
 8000490:	a805      	add	r0, sp, #20
  RCC_ClkInitStruct.ClockType = RCC_CLOCKTYPE_HCLK|RCC_CLOCKTYPE_SYSCLK
 8000492:	9305      	str	r3, [sp, #20]
  RCC_ClkInitStruct.AHBCLKDivider = RCC_SYSCLK_DIV1;
 8000494:	e9cd 4106 	strd	r4, r1, [sp, #24]
  RCC_ClkInitStruct.APB2CLKDivider = RCC_HCLK_DIV1;
 8000498:	9109      	str	r1, [sp, #36]	@ 0x24
  RCC_ClkInitStruct.APB1CLKDivider = RCC_HCLK_DIV2;
 800049a:	9208      	str	r2, [sp, #32]
  if (HAL_RCC_ClockConfig(&RCC_ClkInitStruct, FLASH_LATENCY_0) != HAL_OK)
 800049c:	f001 fdf6 	bl	800208c <HAL_RCC_ClockConfig>
 80004a0:	4603      	mov	r3, r0
 80004a2:	b108      	cbz	r0, 80004a8 <SystemClock_Config+0x5c>
 80004a4:	b672      	cpsid	i
  while (1)
 80004a6:	e7fe      	b.n	80004a6 <SystemClock_Config+0x5a>
  if (HAL_RCCEx_PeriphCLKConfig(&PeriphClkInit) != HAL_OK)
 80004a8:	a801      	add	r0, sp, #4
  PeriphClkInit.PeriphClockSelection = RCC_PERIPHCLK_ADC;
 80004aa:	9401      	str	r4, [sp, #4]
  PeriphClkInit.AdcClockSelection = RCC_ADCPCLK2_DIV2;
 80004ac:	9303      	str	r3, [sp, #12]
  if (HAL_RCCEx_PeriphCLKConfig(&PeriphClkInit) != HAL_OK)
 80004ae:	f001 fead 	bl	800220c <HAL_RCCEx_PeriphCLKConfig>
 80004b2:	b108      	cbz	r0, 80004b8 <SystemClock_Config+0x6c>
 80004b4:	b672      	cpsid	i
  while (1)
 80004b6:	e7fe      	b.n	80004b6 <SystemClock_Config+0x6a>
}
 80004b8:	b014      	add	sp, #80	@ 0x50
 80004ba:	bdd0      	pop	{r4, r6, r7, pc}

080004bc <main>:
{
 80004bc:	b508      	push	{r3, lr}
  	  initialise_monitor_handles();
 80004be:	f004 fc75 	bl	8004dac <initialise_monitor_handles>
  HAL_Init();
 80004c2:	f000 fa2b 	bl	800091c <HAL_Init>
  SystemClock_Config();
 80004c6:	f7ff ffc1 	bl	800044c <SystemClock_Config>
  MX_GPIO_Init();
 80004ca:	f7ff fee5 	bl	8000298 <MX_GPIO_Init>
  MX_DMA_Init();
 80004ce:	f7ff fec1 	bl	8000254 <MX_DMA_Init>
  MX_USART2_UART_Init();
 80004d2:	f000 f939 	bl	8000748 <MX_USART2_UART_Init>
  MX_USART1_UART_Init();
 80004d6:	f000 f91b 	bl	8000710 <MX_USART1_UART_Init>
  MX_ADC1_Init();
 80004da:	f7ff fe3f 	bl	800015c <MX_ADC1_Init>
  MX_TIM2_Init();
 80004de:	f000 f8bb 	bl	8000658 <MX_TIM2_Init>
  MX_I2C1_Init();
 80004e2:	f7ff ff63 	bl	80003ac <MX_I2C1_Init>
  app_init();
 80004e6:	f002 fd4b 	bl	8002f80 <app_init>
	app_update();
 80004ea:	f002 fe59 	bl	80031a0 <app_update>
  while (1)
 80004ee:	e7fc      	b.n	80004ea <main+0x2e>

080004f0 <Error_Handler>:
 80004f0:	b672      	cpsid	i
  while (1)
 80004f2:	e7fe      	b.n	80004f2 <Error_Handler+0x2>

080004f4 <HAL_MspInit>:

  /* USER CODE BEGIN MspInit 0 */

  /* USER CODE END MspInit 0 */

  __HAL_RCC_AFIO_CLK_ENABLE();
 80004f4:	4b0e      	ldr	r3, [pc, #56]	@ (8000530 <HAL_MspInit+0x3c>)
{
 80004f6:	b082      	sub	sp, #8
  __HAL_RCC_AFIO_CLK_ENABLE();
 80004f8:	699a      	ldr	r2, [r3, #24]

  /* System interrupt init*/

  /** NOJTAG: JTAG-DP Disabled and SW-DP Enabled
  */
  __HAL_AFIO_REMAP_SWJ_NOJTAG();
 80004fa:	490e      	ldr	r1, [pc, #56]	@ (8000534 <HAL_MspInit+0x40>)
  __HAL_RCC_AFIO_CLK_ENABLE();
 80004fc:	f042 0201 	orr.w	r2, r2, #1
 8000500:	619a      	str	r2, [r3, #24]
 8000502:	699a      	ldr	r2, [r3, #24]
 8000504:	f002 0201 	and.w	r2, r2, #1
 8000508:	9200      	str	r2, [sp, #0]
 800050a:	9a00      	ldr	r2, [sp, #0]
  __HAL_RCC_PWR_CLK_ENABLE();
 800050c:	69da      	ldr	r2, [r3, #28]
 800050e:	f042 5280 	orr.w	r2, r2, #268435456	@ 0x10000000
 8000512:	61da      	str	r2, [r3, #28]
 8000514:	69db      	ldr	r3, [r3, #28]
 8000516:	f003 5380 	and.w	r3, r3, #268435456	@ 0x10000000
 800051a:	9301      	str	r3, [sp, #4]
 800051c:	9b01      	ldr	r3, [sp, #4]
  __HAL_AFIO_REMAP_SWJ_NOJTAG();
 800051e:	684b      	ldr	r3, [r1, #4]
 8000520:	f023 63e0 	bic.w	r3, r3, #117440512	@ 0x7000000
 8000524:	f043 7300 	orr.w	r3, r3, #33554432	@ 0x2000000
 8000528:	604b      	str	r3, [r1, #4]

  /* USER CODE BEGIN MspInit 1 */

  /* USER CODE END MspInit 1 */
}
 800052a:	b002      	add	sp, #8
 800052c:	4770      	bx	lr
 800052e:	bf00      	nop
 8000530:	40021000 	.word	0x40021000
 8000534:	40010000 	.word	0x40010000

08000538 <NMI_Handler>:
{
  /* USER CODE BEGIN NonMaskableInt_IRQn 0 */

  /* USER CODE END NonMaskableInt_IRQn 0 */
  /* USER CODE BEGIN NonMaskableInt_IRQn 1 */
   while (1)
 8000538:	e7fe      	b.n	8000538 <NMI_Handler>
 800053a:	bf00      	nop

0800053c <HardFault_Handler>:
void HardFault_Handler(void)
{
  /* USER CODE BEGIN HardFault_IRQn 0 */

  /* USER CODE END HardFault_IRQn 0 */
  while (1)
 800053c:	e7fe      	b.n	800053c <HardFault_Handler>
 800053e:	bf00      	nop

08000540 <MemManage_Handler>:
void MemManage_Handler(void)
{
  /* USER CODE BEGIN MemoryManagement_IRQn 0 */

  /* USER CODE END MemoryManagement_IRQn 0 */
  while (1)
 8000540:	e7fe      	b.n	8000540 <MemManage_Handler>
 8000542:	bf00      	nop

08000544 <BusFault_Handler>:
void BusFault_Handler(void)
{
  /* USER CODE BEGIN BusFault_IRQn 0 */

  /* USER CODE END BusFault_IRQn 0 */
  while (1)
 8000544:	e7fe      	b.n	8000544 <BusFault_Handler>
 8000546:	bf00      	nop

08000548 <UsageFault_Handler>:
void UsageFault_Handler(void)
{
  /* USER CODE BEGIN UsageFault_IRQn 0 */

  /* USER CODE END UsageFault_IRQn 0 */
  while (1)
 8000548:	e7fe      	b.n	8000548 <UsageFault_Handler>
 800054a:	bf00      	nop

0800054c <SVC_Handler>:

  /* USER CODE END SVCall_IRQn 0 */
  /* USER CODE BEGIN SVCall_IRQn 1 */

  /* USER CODE END SVCall_IRQn 1 */
}
 800054c:	4770      	bx	lr
 800054e:	bf00      	nop

08000550 <DebugMon_Handler>:

/**
  * @brief This function handles Debug monitor.
  */
void DebugMon_Handler(void)
 8000550:	4770      	bx	lr
 8000552:	bf00      	nop

08000554 <PendSV_Handler>:
}

/**
  * @brief This function handles Pendable request for system service.
  */
void PendSV_Handler(void)
 8000554:	4770      	bx	lr
 8000556:	bf00      	nop

08000558 <SysTick_Handler>:

/**
  * @brief This function handles System tick timer.
  */
void SysTick_Handler(void)
{
 8000558:	b508      	push	{r3, lr}
  /* USER CODE BEGIN SysTick_IRQn 0 */

  /* USER CODE END SysTick_IRQn 0 */
  HAL_IncTick();
 800055a:	f000 f9f1 	bl	8000940 <HAL_IncTick>
  /* USER CODE BEGIN SysTick_IRQn 1 */

  	HAL_SYSTICK_IRQHandler();

  /* USER CODE END SysTick_IRQn 1 */
}
 800055e:	e8bd 4008 	ldmia.w	sp!, {r3, lr}
  	HAL_SYSTICK_IRQHandler();
 8000562:	f000 bce1 	b.w	8000f28 <HAL_SYSTICK_IRQHandler>
 8000566:	bf00      	nop

08000568 <DMA1_Channel1_IRQHandler>:
void DMA1_Channel1_IRQHandler(void)
{
  /* USER CODE BEGIN DMA1_Channel1_IRQn 0 */

  /* USER CODE END DMA1_Channel1_IRQn 0 */
  HAL_DMA_IRQHandler(&hdma_adc1);
 8000568:	4801      	ldr	r0, [pc, #4]	@ (8000570 <DMA1_Channel1_IRQHandler+0x8>)
 800056a:	f000 bdc9 	b.w	8001100 <HAL_DMA_IRQHandler>
 800056e:	bf00      	nop
 8000570:	20000110 	.word	0x20000110

08000574 <DMA1_Channel4_IRQHandler>:
void DMA1_Channel4_IRQHandler(void)
{
  /* USER CODE BEGIN DMA1_Channel4_IRQn 0 */

  /* USER CODE END DMA1_Channel4_IRQn 0 */
  HAL_DMA_IRQHandler(&hdma_usart1_tx);
 8000574:	4801      	ldr	r0, [pc, #4]	@ (800057c <DMA1_Channel4_IRQHandler+0x8>)
 8000576:	f000 bdc3 	b.w	8001100 <HAL_DMA_IRQHandler>
 800057a:	bf00      	nop
 800057c:	20000228 	.word	0x20000228

08000580 <USART1_IRQHandler>:
void USART1_IRQHandler(void)
{
  /* USER CODE BEGIN USART1_IRQn 0 */

  /* USER CODE END USART1_IRQn 0 */
  HAL_UART_IRQHandler(&huart1);
 8000580:	4801      	ldr	r0, [pc, #4]	@ (8000588 <USART1_IRQHandler+0x8>)
 8000582:	f002 bb73 	b.w	8002c6c <HAL_UART_IRQHandler>
 8000586:	bf00      	nop
 8000588:	200002b8 	.word	0x200002b8

0800058c <EXTI15_10_IRQHandler>:
void EXTI15_10_IRQHandler(void)
{
  /* USER CODE BEGIN EXTI15_10_IRQn 0 */

  /* USER CODE END EXTI15_10_IRQn 0 */
  HAL_GPIO_EXTI_IRQHandler(B1_Pin);
 800058c:	f44f 5000 	mov.w	r0, #8192	@ 0x2000
 8000590:	f000 bf60 	b.w	8001454 <HAL_GPIO_EXTI_IRQHandler>

08000594 <_sbrk>:
  const uint32_t stack_limit = (uint32_t)&_estack - (uint32_t)&_Min_Stack_Size;
  const uint8_t *max_heap = (uint8_t *)stack_limit;
  uint8_t *prev_heap_end;

  /* Initialize heap end at first call */
  if (NULL == __sbrk_heap_end)
 8000594:	490d      	ldr	r1, [pc, #52]	@ (80005cc <_sbrk+0x38>)
{
 8000596:	4603      	mov	r3, r0
 8000598:	b510      	push	{r4, lr}
  const uint32_t stack_limit = (uint32_t)&_estack - (uint32_t)&_Min_Stack_Size;
 800059a:	4a0d      	ldr	r2, [pc, #52]	@ (80005d0 <_sbrk+0x3c>)
 800059c:	4c0d      	ldr	r4, [pc, #52]	@ (80005d4 <_sbrk+0x40>)
  if (NULL == __sbrk_heap_end)
 800059e:	6808      	ldr	r0, [r1, #0]
  const uint32_t stack_limit = (uint32_t)&_estack - (uint32_t)&_Min_Stack_Size;
 80005a0:	1b12      	subs	r2, r2, r4
  if (NULL == __sbrk_heap_end)
 80005a2:	b120      	cbz	r0, 80005ae <_sbrk+0x1a>
  {
    __sbrk_heap_end = &_end;
  }

  /* Protect heap from growing into the reserved MSP stack */
  if (__sbrk_heap_end + incr > max_heap)
 80005a4:	4403      	add	r3, r0
 80005a6:	4293      	cmp	r3, r2
 80005a8:	d807      	bhi.n	80005ba <_sbrk+0x26>
    errno = ENOMEM;
    return (void *)-1;
  }

  prev_heap_end = __sbrk_heap_end;
  __sbrk_heap_end += incr;
 80005aa:	600b      	str	r3, [r1, #0]

  return (void *)prev_heap_end;
}
 80005ac:	bd10      	pop	{r4, pc}
    __sbrk_heap_end = &_end;
 80005ae:	4c0a      	ldr	r4, [pc, #40]	@ (80005d8 <_sbrk+0x44>)
 80005b0:	4620      	mov	r0, r4
  if (__sbrk_heap_end + incr > max_heap)
 80005b2:	4403      	add	r3, r0
 80005b4:	4293      	cmp	r3, r2
    __sbrk_heap_end = &_end;
 80005b6:	600c      	str	r4, [r1, #0]
  if (__sbrk_heap_end + incr > max_heap)
 80005b8:	d9f7      	bls.n	80005aa <_sbrk+0x16>
    errno = ENOMEM;
 80005ba:	f004 fecd 	bl	8005358 <__errno>
 80005be:	220c      	movs	r2, #12
 80005c0:	4603      	mov	r3, r0
    return (void *)-1;
 80005c2:	f04f 30ff 	mov.w	r0, #4294967295
    errno = ENOMEM;
 80005c6:	601a      	str	r2, [r3, #0]
}
 80005c8:	bd10      	pop	{r4, pc}
 80005ca:	bf00      	nop
 80005cc:	200001dc 	.word	0x200001dc
 80005d0:	20005000 	.word	0x20005000
 80005d4:	00000400 	.word	0x00000400
 80005d8:	200007f0 	.word	0x200007f0

080005dc <SystemInit>:

  /* Configure the Vector Table location -------------------------------------*/
#if defined(USER_VECT_TAB_ADDRESS)
  SCB->VTOR = VECT_TAB_BASE_ADDRESS | VECT_TAB_OFFSET; /* Vector Table Relocation in Internal SRAM. */
#endif /* USER_VECT_TAB_ADDRESS */
}
 80005dc:	4770      	bx	lr
 80005de:	bf00      	nop

080005e0 <HAL_TIM_Base_MspInit>:
}

void HAL_TIM_Base_MspInit(TIM_HandleTypeDef* tim_baseHandle)
{

  if(tim_baseHandle->Instance==TIM2)
 80005e0:	6803      	ldr	r3, [r0, #0]
 80005e2:	f1b3 4f80 	cmp.w	r3, #1073741824	@ 0x40000000
 80005e6:	d000      	beq.n	80005ea <HAL_TIM_Base_MspInit+0xa>
 80005e8:	4770      	bx	lr
  {
  /* USER CODE BEGIN TIM2_MspInit 0 */

  /* USER CODE END TIM2_MspInit 0 */
    /* TIM2 clock enable */
    __HAL_RCC_TIM2_CLK_ENABLE();
 80005ea:	f503 3304 	add.w	r3, r3, #135168	@ 0x21000
 80005ee:	69da      	ldr	r2, [r3, #28]
{
 80005f0:	b082      	sub	sp, #8
    __HAL_RCC_TIM2_CLK_ENABLE();
 80005f2:	f042 0201 	orr.w	r2, r2, #1
 80005f6:	61da      	str	r2, [r3, #28]
 80005f8:	69db      	ldr	r3, [r3, #28]
 80005fa:	f003 0301 	and.w	r3, r3, #1
 80005fe:	9301      	str	r3, [sp, #4]
 8000600:	9b01      	ldr	r3, [sp, #4]
  /* USER CODE BEGIN TIM2_MspInit 1 */

  /* USER CODE END TIM2_MspInit 1 */
  }
}
 8000602:	b002      	add	sp, #8
 8000604:	4770      	bx	lr
 8000606:	bf00      	nop

08000608 <HAL_TIM_MspPostInit>:
void HAL_TIM_MspPostInit(TIM_HandleTypeDef* timHandle)
{

  GPIO_InitTypeDef GPIO_InitStruct = {0};
 8000608:	2300      	movs	r3, #0
{
 800060a:	b570      	push	{r4, r5, r6, lr}
  if(timHandle->Instance==TIM2)
 800060c:	6802      	ldr	r2, [r0, #0]
{
 800060e:	b086      	sub	sp, #24
  if(timHandle->Instance==TIM2)
 8000610:	f1b2 4f80 	cmp.w	r2, #1073741824	@ 0x40000000
  GPIO_InitTypeDef GPIO_InitStruct = {0};
 8000614:	e9cd 3302 	strd	r3, r3, [sp, #8]
 8000618:	e9cd 3304 	strd	r3, r3, [sp, #16]
  if(timHandle->Instance==TIM2)
 800061c:	d001      	beq.n	8000622 <HAL_TIM_MspPostInit+0x1a>
  /* USER CODE BEGIN TIM2_MspPostInit 1 */

  /* USER CODE END TIM2_MspPostInit 1 */
  }

}
 800061e:	b006      	add	sp, #24
 8000620:	bd70      	pop	{r4, r5, r6, pc}
    GPIO_InitStruct.Pin = GPIO_PIN_1;
 8000622:	2402      	movs	r4, #2
 8000624:	2502      	movs	r5, #2
    GPIO_InitStruct.Speed = GPIO_SPEED_FREQ_LOW;
 8000626:	2602      	movs	r6, #2
    __HAL_RCC_GPIOA_CLK_ENABLE();
 8000628:	f103 4380 	add.w	r3, r3, #1073741824	@ 0x40000000
 800062c:	f503 3304 	add.w	r3, r3, #135168	@ 0x21000
 8000630:	699a      	ldr	r2, [r3, #24]
    HAL_GPIO_Init(GPIOA, &GPIO_InitStruct);
 8000632:	4808      	ldr	r0, [pc, #32]	@ (8000654 <HAL_TIM_MspPostInit+0x4c>)
    __HAL_RCC_GPIOA_CLK_ENABLE();
 8000634:	f042 0204 	orr.w	r2, r2, #4
 8000638:	619a      	str	r2, [r3, #24]
 800063a:	699b      	ldr	r3, [r3, #24]
    HAL_GPIO_Init(GPIOA, &GPIO_InitStruct);
 800063c:	a902      	add	r1, sp, #8
    __HAL_RCC_GPIOA_CLK_ENABLE();
 800063e:	f003 0304 	and.w	r3, r3, #4
 8000642:	9301      	str	r3, [sp, #4]
    GPIO_InitStruct.Pin = GPIO_PIN_1;
 8000644:	e9cd 4502 	strd	r4, r5, [sp, #8]
    __HAL_RCC_GPIOA_CLK_ENABLE();
 8000648:	9b01      	ldr	r3, [sp, #4]
    GPIO_InitStruct.Speed = GPIO_SPEED_FREQ_LOW;
 800064a:	9605      	str	r6, [sp, #20]
    HAL_GPIO_Init(GPIOA, &GPIO_InitStruct);
 800064c:	f000 fdee 	bl	800122c <HAL_GPIO_Init>
}
 8000650:	b006      	add	sp, #24
 8000652:	bd70      	pop	{r4, r5, r6, pc}
 8000654:	40010800 	.word	0x40010800

08000658 <MX_TIM2_Init>:
{
 8000658:	b530      	push	{r4, r5, lr}
  TIM_ClockConfigTypeDef sClockSourceConfig = {0};
 800065a:	2300      	movs	r3, #0
  htim2.Instance = TIM2;
 800065c:	f04f 4580 	mov.w	r5, #1073741824	@ 0x40000000
  htim2.Init.Prescaler = 7;
 8000660:	2407      	movs	r4, #7
  htim2.Init.Period = 99;
 8000662:	2163      	movs	r1, #99	@ 0x63
  htim2.Init.AutoReloadPreload = TIM_AUTORELOAD_PRELOAD_ENABLE;
 8000664:	2280      	movs	r2, #128	@ 0x80
  htim2.Instance = TIM2;
 8000666:	4829      	ldr	r0, [pc, #164]	@ (800070c <MX_TIM2_Init+0xb4>)
{
 8000668:	b08f      	sub	sp, #60	@ 0x3c
  TIM_ClockConfigTypeDef sClockSourceConfig = {0};
 800066a:	e9cd 3303 	strd	r3, r3, [sp, #12]
  htim2.Init.Prescaler = 7;
 800066e:	e9c0 5400 	strd	r5, r4, [r0]
  TIM_OC_InitTypeDef sConfigOC = {0};
 8000672:	e9cd 3307 	strd	r3, r3, [sp, #28]
 8000676:	e9cd 3309 	strd	r3, r3, [sp, #36]	@ 0x24
 800067a:	e9cd 330b 	strd	r3, r3, [sp, #44]	@ 0x2c
  htim2.Init.Period = 99;
 800067e:	60c1      	str	r1, [r0, #12]
  TIM_ClockConfigTypeDef sClockSourceConfig = {0};
 8000680:	9302      	str	r3, [sp, #8]
  TIM_MasterConfigTypeDef sMasterConfig = {0};
 8000682:	9300      	str	r3, [sp, #0]
  TIM_OC_InitTypeDef sConfigOC = {0};
 8000684:	9306      	str	r3, [sp, #24]
  htim2.Init.CounterMode = TIM_COUNTERMODE_UP;
 8000686:	6083      	str	r3, [r0, #8]
  htim2.Init.ClockDivision = TIM_CLOCKDIVISION_DIV1;
 8000688:	6103      	str	r3, [r0, #16]
  htim2.Init.AutoReloadPreload = TIM_AUTORELOAD_PRELOAD_ENABLE;
 800068a:	6182      	str	r2, [r0, #24]
  TIM_ClockConfigTypeDef sClockSourceConfig = {0};
 800068c:	9305      	str	r3, [sp, #20]
  TIM_MasterConfigTypeDef sMasterConfig = {0};
 800068e:	9301      	str	r3, [sp, #4]
  if (HAL_TIM_Base_Init(&htim2) != HAL_OK)
 8000690:	f002 f82a 	bl	80026e8 <HAL_TIM_Base_Init>
 8000694:	bb30      	cbnz	r0, 80006e4 <MX_TIM2_Init+0x8c>
  sClockSourceConfig.ClockSource = TIM_CLOCKSOURCE_INTERNAL;
 8000696:	f44f 5380 	mov.w	r3, #4096	@ 0x1000
  if (HAL_TIM_ConfigClockSource(&htim2, &sClockSourceConfig) != HAL_OK)
 800069a:	481c      	ldr	r0, [pc, #112]	@ (800070c <MX_TIM2_Init+0xb4>)
 800069c:	a902      	add	r1, sp, #8
  sClockSourceConfig.ClockSource = TIM_CLOCKSOURCE_INTERNAL;
 800069e:	9302      	str	r3, [sp, #8]
  if (HAL_TIM_ConfigClockSource(&htim2, &sClockSourceConfig) != HAL_OK)
 80006a0:	f001 ff34 	bl	800250c <HAL_TIM_ConfigClockSource>
 80006a4:	bb70      	cbnz	r0, 8000704 <MX_TIM2_Init+0xac>
  if (HAL_TIM_OC_Init(&htim2) != HAL_OK)
 80006a6:	4819      	ldr	r0, [pc, #100]	@ (800070c <MX_TIM2_Init+0xb4>)
 80006a8:	f002 f84c 	bl	8002744 <HAL_TIM_OC_Init>
 80006ac:	bb38      	cbnz	r0, 80006fe <MX_TIM2_Init+0xa6>
  sMasterConfig.MasterOutputTrigger = TIM_TRGO_UPDATE;
 80006ae:	2220      	movs	r2, #32
 80006b0:	2300      	movs	r3, #0
  if (HAL_TIMEx_MasterConfigSynchronization(&htim2, &sMasterConfig) != HAL_OK)
 80006b2:	4669      	mov	r1, sp
 80006b4:	4815      	ldr	r0, [pc, #84]	@ (800070c <MX_TIM2_Init+0xb4>)
  sMasterConfig.MasterOutputTrigger = TIM_TRGO_UPDATE;
 80006b6:	e9cd 2300 	strd	r2, r3, [sp]
  if (HAL_TIMEx_MasterConfigSynchronization(&htim2, &sMasterConfig) != HAL_OK)
 80006ba:	f002 f8cb 	bl	8002854 <HAL_TIMEx_MasterConfigSynchronization>
 80006be:	b9d8      	cbnz	r0, 80006f8 <MX_TIM2_Init+0xa0>
  sConfigOC.OCPolarity = TIM_OCPOLARITY_HIGH;
 80006c0:	2300      	movs	r3, #0
  sConfigOC.OCMode = TIM_OCMODE_TOGGLE;
 80006c2:	2430      	movs	r4, #48	@ 0x30
 80006c4:	2563      	movs	r5, #99	@ 0x63
  if (HAL_TIM_OC_ConfigChannel(&htim2, &sConfigOC, TIM_CHANNEL_2) != HAL_OK)
 80006c6:	2204      	movs	r2, #4
 80006c8:	4810      	ldr	r0, [pc, #64]	@ (800070c <MX_TIM2_Init+0xb4>)
 80006ca:	a906      	add	r1, sp, #24
  sConfigOC.OCMode = TIM_OCMODE_TOGGLE;
 80006cc:	e9cd 4506 	strd	r4, r5, [sp, #24]
  sConfigOC.OCPolarity = TIM_OCPOLARITY_HIGH;
 80006d0:	9308      	str	r3, [sp, #32]
  sConfigOC.OCFastMode = TIM_OCFAST_DISABLE;
 80006d2:	930a      	str	r3, [sp, #40]	@ 0x28
  if (HAL_TIM_OC_ConfigChannel(&htim2, &sConfigOC, TIM_CHANNEL_2) != HAL_OK)
 80006d4:	f002 f892 	bl	80027fc <HAL_TIM_OC_ConfigChannel>
 80006d8:	b938      	cbnz	r0, 80006ea <MX_TIM2_Init+0x92>
  HAL_TIM_MspPostInit(&htim2);
 80006da:	480c      	ldr	r0, [pc, #48]	@ (800070c <MX_TIM2_Init+0xb4>)
 80006dc:	f7ff ff94 	bl	8000608 <HAL_TIM_MspPostInit>
}
 80006e0:	b00f      	add	sp, #60	@ 0x3c
 80006e2:	bd30      	pop	{r4, r5, pc}
    Error_Handler();
 80006e4:	f7ff ff04 	bl	80004f0 <Error_Handler>
 80006e8:	e7d5      	b.n	8000696 <MX_TIM2_Init+0x3e>
    Error_Handler();
 80006ea:	f7ff ff01 	bl	80004f0 <Error_Handler>
  HAL_TIM_MspPostInit(&htim2);
 80006ee:	4807      	ldr	r0, [pc, #28]	@ (800070c <MX_TIM2_Init+0xb4>)
 80006f0:	f7ff ff8a 	bl	8000608 <HAL_TIM_MspPostInit>
}
 80006f4:	b00f      	add	sp, #60	@ 0x3c
 80006f6:	bd30      	pop	{r4, r5, pc}
    Error_Handler();
 80006f8:	f7ff fefa 	bl	80004f0 <Error_Handler>
 80006fc:	e7e0      	b.n	80006c0 <MX_TIM2_Init+0x68>
    Error_Handler();
 80006fe:	f7ff fef7 	bl	80004f0 <Error_Handler>
 8000702:	e7d4      	b.n	80006ae <MX_TIM2_Init+0x56>
    Error_Handler();
 8000704:	f7ff fef4 	bl	80004f0 <Error_Handler>
 8000708:	e7cd      	b.n	80006a6 <MX_TIM2_Init+0x4e>
 800070a:	bf00      	nop
 800070c:	200001e0 	.word	0x200001e0

08000710 <MX_USART1_UART_Init>:
  /* USER CODE BEGIN USART1_Init 1 */

  /* USER CODE END USART1_Init 1 */
  huart1.Instance = USART1;
  huart1.Init.BaudRate = 9600;
  huart1.Init.WordLength = UART_WORDLENGTH_8B;
 8000710:	2300      	movs	r3, #0
  huart1.Init.BaudRate = 9600;
 8000712:	f44f 5116 	mov.w	r1, #9600	@ 0x2580
  huart1.Init.StopBits = UART_STOPBITS_1;
  huart1.Init.Parity = UART_PARITY_NONE;
  huart1.Init.Mode = UART_MODE_TX_RX;
 8000716:	220c      	movs	r2, #12
{
 8000718:	b510      	push	{r4, lr}
  huart1.Instance = USART1;
 800071a:	4809      	ldr	r0, [pc, #36]	@ (8000740 <MX_USART1_UART_Init+0x30>)
 800071c:	4c09      	ldr	r4, [pc, #36]	@ (8000744 <MX_USART1_UART_Init+0x34>)
  huart1.Init.BaudRate = 9600;
 800071e:	e9c0 1301 	strd	r1, r3, [r0, #4]
  huart1.Init.Parity = UART_PARITY_NONE;
 8000722:	e9c0 3303 	strd	r3, r3, [r0, #12]
  huart1.Init.Mode = UART_MODE_TX_RX;
 8000726:	e9c0 2305 	strd	r2, r3, [r0, #20]
  huart1.Instance = USART1;
 800072a:	6004      	str	r4, [r0, #0]
  huart1.Init.HwFlowCtl = UART_HWCONTROL_NONE;
  huart1.Init.OverSampling = UART_OVERSAMPLING_16;
 800072c:	61c3      	str	r3, [r0, #28]
  if (HAL_UART_Init(&huart1) != HAL_OK)
 800072e:	f002 f935 	bl	800299c <HAL_UART_Init>
 8000732:	b900      	cbnz	r0, 8000736 <MX_USART1_UART_Init+0x26>
  }
  /* USER CODE BEGIN USART1_Init 2 */

  /* USER CODE END USART1_Init 2 */

}
 8000734:	bd10      	pop	{r4, pc}
 8000736:	e8bd 4010 	ldmia.w	sp!, {r4, lr}
    Error_Handler();
 800073a:	f7ff bed9 	b.w	80004f0 <Error_Handler>
 800073e:	bf00      	nop
 8000740:	200002b8 	.word	0x200002b8
 8000744:	40013800 	.word	0x40013800

08000748 <MX_USART2_UART_Init>:
  /* USER CODE BEGIN USART2_Init 1 */

  /* USER CODE END USART2_Init 1 */
  huart2.Instance = USART2;
  huart2.Init.BaudRate = 9600;
  huart2.Init.WordLength = UART_WORDLENGTH_8B;
 8000748:	2300      	movs	r3, #0
  huart2.Init.BaudRate = 9600;
 800074a:	f44f 5116 	mov.w	r1, #9600	@ 0x2580
  huart2.Init.StopBits = UART_STOPBITS_1;
  huart2.Init.Parity = UART_PARITY_NONE;
  huart2.Init.Mode = UART_MODE_TX_RX;
 800074e:	220c      	movs	r2, #12
{
 8000750:	b510      	push	{r4, lr}
  huart2.Instance = USART2;
 8000752:	4809      	ldr	r0, [pc, #36]	@ (8000778 <MX_USART2_UART_Init+0x30>)
 8000754:	4c09      	ldr	r4, [pc, #36]	@ (800077c <MX_USART2_UART_Init+0x34>)
  huart2.Init.BaudRate = 9600;
 8000756:	e9c0 1301 	strd	r1, r3, [r0, #4]
  huart2.Init.Parity = UART_PARITY_NONE;
 800075a:	e9c0 3303 	strd	r3, r3, [r0, #12]
  huart2.Init.Mode = UART_MODE_TX_RX;
 800075e:	e9c0 2305 	strd	r2, r3, [r0, #20]
  huart2.Instance = USART2;
 8000762:	6004      	str	r4, [r0, #0]
  huart2.Init.HwFlowCtl = UART_HWCONTROL_NONE;
  huart2.Init.OverSampling = UART_OVERSAMPLING_16;
 8000764:	61c3      	str	r3, [r0, #28]
  if (HAL_UART_Init(&huart2) != HAL_OK)
 8000766:	f002 f919 	bl	800299c <HAL_UART_Init>
 800076a:	b900      	cbnz	r0, 800076e <MX_USART2_UART_Init+0x26>
  }
  /* USER CODE BEGIN USART2_Init 2 */

  /* USER CODE END USART2_Init 2 */

}
 800076c:	bd10      	pop	{r4, pc}
 800076e:	e8bd 4010 	ldmia.w	sp!, {r4, lr}
    Error_Handler();
 8000772:	f7ff bebd 	b.w	80004f0 <Error_Handler>
 8000776:	bf00      	nop
 8000778:	20000270 	.word	0x20000270
 800077c:	40004400 	.word	0x40004400

08000780 <HAL_UART_MspInit>:

void HAL_UART_MspInit(UART_HandleTypeDef* uartHandle)
{
 8000780:	b570      	push	{r4, r5, r6, lr}

  GPIO_InitTypeDef GPIO_InitStruct = {0};
 8000782:	2400      	movs	r4, #0
  if(uartHandle->Instance==USART1)
 8000784:	4a3a      	ldr	r2, [pc, #232]	@ (8000870 <HAL_UART_MspInit+0xf0>)
 8000786:	6803      	ldr	r3, [r0, #0]
{
 8000788:	b088      	sub	sp, #32
  if(uartHandle->Instance==USART1)
 800078a:	4293      	cmp	r3, r2
  GPIO_InitTypeDef GPIO_InitStruct = {0};
 800078c:	e9cd 4404 	strd	r4, r4, [sp, #16]
 8000790:	e9cd 4406 	strd	r4, r4, [sp, #24]
  if(uartHandle->Instance==USART1)
 8000794:	d004      	beq.n	80007a0 <HAL_UART_MspInit+0x20>
    HAL_NVIC_EnableIRQ(USART1_IRQn);
  /* USER CODE BEGIN USART1_MspInit 1 */

  /* USER CODE END USART1_MspInit 1 */
  }
  else if(uartHandle->Instance==USART2)
 8000796:	4a37      	ldr	r2, [pc, #220]	@ (8000874 <HAL_UART_MspInit+0xf4>)
 8000798:	4293      	cmp	r3, r2
 800079a:	d046      	beq.n	800082a <HAL_UART_MspInit+0xaa>

  /* USER CODE BEGIN USART2_MspInit 1 */

  /* USER CODE END USART2_MspInit 1 */
  }
}
 800079c:	b008      	add	sp, #32
 800079e:	bd70      	pop	{r4, r5, r6, pc}
    __HAL_RCC_USART1_CLK_ENABLE();
 80007a0:	4b35      	ldr	r3, [pc, #212]	@ (8000878 <HAL_UART_MspInit+0xf8>)
 80007a2:	4605      	mov	r5, r0
 80007a4:	699a      	ldr	r2, [r3, #24]
    HAL_GPIO_Init(UART1_TX_GPIO_Port, &GPIO_InitStruct);
 80007a6:	4835      	ldr	r0, [pc, #212]	@ (800087c <HAL_UART_MspInit+0xfc>)
    __HAL_RCC_USART1_CLK_ENABLE();
 80007a8:	f442 4280 	orr.w	r2, r2, #16384	@ 0x4000
 80007ac:	619a      	str	r2, [r3, #24]
 80007ae:	699a      	ldr	r2, [r3, #24]
    hdma_usart1_tx.Instance = DMA1_Channel4;
 80007b0:	4e33      	ldr	r6, [pc, #204]	@ (8000880 <HAL_UART_MspInit+0x100>)
    __HAL_RCC_USART1_CLK_ENABLE();
 80007b2:	f402 4280 	and.w	r2, r2, #16384	@ 0x4000
 80007b6:	9200      	str	r2, [sp, #0]
 80007b8:	9a00      	ldr	r2, [sp, #0]
    __HAL_RCC_GPIOA_CLK_ENABLE();
 80007ba:	699a      	ldr	r2, [r3, #24]
 80007bc:	f042 0204 	orr.w	r2, r2, #4
 80007c0:	619a      	str	r2, [r3, #24]
 80007c2:	699b      	ldr	r3, [r3, #24]
    GPIO_InitStruct.Pin = UART1_TX_Pin;
 80007c4:	f44f 7200 	mov.w	r2, #512	@ 0x200
    __HAL_RCC_GPIOA_CLK_ENABLE();
 80007c8:	f003 0304 	and.w	r3, r3, #4
 80007cc:	9301      	str	r3, [sp, #4]
 80007ce:	9901      	ldr	r1, [sp, #4]
    GPIO_InitStruct.Speed = GPIO_SPEED_FREQ_HIGH;
 80007d0:	2103      	movs	r1, #3
    GPIO_InitStruct.Pin = UART1_TX_Pin;
 80007d2:	2302      	movs	r3, #2
    GPIO_InitStruct.Speed = GPIO_SPEED_FREQ_HIGH;
 80007d4:	9107      	str	r1, [sp, #28]
    HAL_GPIO_Init(UART1_TX_GPIO_Port, &GPIO_InitStruct);
 80007d6:	a904      	add	r1, sp, #16
    GPIO_InitStruct.Pin = UART1_TX_Pin;
 80007d8:	e9cd 2304 	strd	r2, r3, [sp, #16]
    HAL_GPIO_Init(UART1_TX_GPIO_Port, &GPIO_InitStruct);
 80007dc:	f000 fd26 	bl	800122c <HAL_GPIO_Init>
    GPIO_InitStruct.Pin = UART1_RX_Pin;
 80007e0:	f44f 6280 	mov.w	r2, #1024	@ 0x400
 80007e4:	2300      	movs	r3, #0
    HAL_GPIO_Init(UART1_RX_GPIO_Port, &GPIO_InitStruct);
 80007e6:	4825      	ldr	r0, [pc, #148]	@ (800087c <HAL_UART_MspInit+0xfc>)
 80007e8:	a904      	add	r1, sp, #16
    GPIO_InitStruct.Pin = UART1_RX_Pin;
 80007ea:	e9cd 2304 	strd	r2, r3, [sp, #16]
    GPIO_InitStruct.Pull = GPIO_NOPULL;
 80007ee:	9406      	str	r4, [sp, #24]
    HAL_GPIO_Init(UART1_RX_GPIO_Port, &GPIO_InitStruct);
 80007f0:	f000 fd1c 	bl	800122c <HAL_GPIO_Init>
    hdma_usart1_tx.Init.MemInc = DMA_MINC_ENABLE;
 80007f4:	2380      	movs	r3, #128	@ 0x80
    hdma_usart1_tx.Init.Direction = DMA_MEMORY_TO_PERIPH;
 80007f6:	2210      	movs	r2, #16
    hdma_usart1_tx.Init.MemInc = DMA_MINC_ENABLE;
 80007f8:	e9c6 4302 	strd	r4, r3, [r6, #8]
    hdma_usart1_tx.Instance = DMA1_Channel4;
 80007fc:	4b21      	ldr	r3, [pc, #132]	@ (8000884 <HAL_UART_MspInit+0x104>)
    if (HAL_DMA_Init(&hdma_usart1_tx) != HAL_OK)
 80007fe:	4630      	mov	r0, r6
    hdma_usart1_tx.Init.MemDataAlignment = DMA_MDATAALIGN_BYTE;
 8000800:	e9c6 4404 	strd	r4, r4, [r6, #16]
    hdma_usart1_tx.Init.Priority = DMA_PRIORITY_LOW;
 8000804:	e9c6 4406 	strd	r4, r4, [r6, #24]
    hdma_usart1_tx.Init.Direction = DMA_MEMORY_TO_PERIPH;
 8000808:	6072      	str	r2, [r6, #4]
    hdma_usart1_tx.Instance = DMA1_Channel4;
 800080a:	6033      	str	r3, [r6, #0]
    if (HAL_DMA_Init(&hdma_usart1_tx) != HAL_OK)
 800080c:	f000 fb90 	bl	8000f30 <HAL_DMA_Init>
 8000810:	bb50      	cbnz	r0, 8000868 <HAL_UART_MspInit+0xe8>
    HAL_NVIC_SetPriority(USART1_IRQn, 0, 0);
 8000812:	2200      	movs	r2, #0
 8000814:	2025      	movs	r0, #37	@ 0x25
 8000816:	4611      	mov	r1, r2
    __HAL_LINKDMA(uartHandle,hdmatx,hdma_usart1_tx);
 8000818:	63ae      	str	r6, [r5, #56]	@ 0x38
 800081a:	6275      	str	r5, [r6, #36]	@ 0x24
    HAL_NVIC_SetPriority(USART1_IRQn, 0, 0);
 800081c:	f000 fb22 	bl	8000e64 <HAL_NVIC_SetPriority>
    HAL_NVIC_EnableIRQ(USART1_IRQn);
 8000820:	2025      	movs	r0, #37	@ 0x25
 8000822:	f000 fb5b 	bl	8000edc <HAL_NVIC_EnableIRQ>
}
 8000826:	b008      	add	sp, #32
 8000828:	bd70      	pop	{r4, r5, r6, pc}
    GPIO_InitStruct.Pin = UART2_TX2_Pin|UART2_RX_Pin;
 800082a:	240c      	movs	r4, #12
 800082c:	2502      	movs	r5, #2
    GPIO_InitStruct.Speed = GPIO_SPEED_FREQ_LOW;
 800082e:	2602      	movs	r6, #2
    __HAL_RCC_USART2_CLK_ENABLE();
 8000830:	4b11      	ldr	r3, [pc, #68]	@ (8000878 <HAL_UART_MspInit+0xf8>)
    HAL_GPIO_Init(GPIOA, &GPIO_InitStruct);
 8000832:	4812      	ldr	r0, [pc, #72]	@ (800087c <HAL_UART_MspInit+0xfc>)
    __HAL_RCC_USART2_CLK_ENABLE();
 8000834:	69da      	ldr	r2, [r3, #28]
    HAL_GPIO_Init(GPIOA, &GPIO_InitStruct);
 8000836:	a904      	add	r1, sp, #16
    __HAL_RCC_USART2_CLK_ENABLE();
 8000838:	f442 3200 	orr.w	r2, r2, #131072	@ 0x20000
 800083c:	61da      	str	r2, [r3, #28]
 800083e:	69da      	ldr	r2, [r3, #28]
 8000840:	f402 3200 	and.w	r2, r2, #131072	@ 0x20000
 8000844:	9202      	str	r2, [sp, #8]
 8000846:	9a02      	ldr	r2, [sp, #8]
    __HAL_RCC_GPIOA_CLK_ENABLE();
 8000848:	699a      	ldr	r2, [r3, #24]
 800084a:	f042 0204 	orr.w	r2, r2, #4
 800084e:	619a      	str	r2, [r3, #24]
 8000850:	699b      	ldr	r3, [r3, #24]
    GPIO_InitStruct.Pin = UART2_TX2_Pin|UART2_RX_Pin;
 8000852:	e9cd 4504 	strd	r4, r5, [sp, #16]
    __HAL_RCC_GPIOA_CLK_ENABLE();
 8000856:	f003 0304 	and.w	r3, r3, #4
 800085a:	9303      	str	r3, [sp, #12]
 800085c:	9b03      	ldr	r3, [sp, #12]
    GPIO_InitStruct.Speed = GPIO_SPEED_FREQ_LOW;
 800085e:	9607      	str	r6, [sp, #28]
    HAL_GPIO_Init(GPIOA, &GPIO_InitStruct);
 8000860:	f000 fce4 	bl	800122c <HAL_GPIO_Init>
}
 8000864:	b008      	add	sp, #32
 8000866:	bd70      	pop	{r4, r5, r6, pc}
      Error_Handler();
 8000868:	f7ff fe42 	bl	80004f0 <Error_Handler>
 800086c:	e7d1      	b.n	8000812 <HAL_UART_MspInit+0x92>
 800086e:	bf00      	nop
 8000870:	40013800 	.word	0x40013800
 8000874:	40004400 	.word	0x40004400
 8000878:	40021000 	.word	0x40021000
 800087c:	40010800 	.word	0x40010800
 8000880:	20000228 	.word	0x20000228
 8000884:	40020044 	.word	0x40020044

08000888 <Reset_Handler>:
  .weak Reset_Handler
  .type Reset_Handler, %function
Reset_Handler:

/* Call the clock system initialization function.*/
    bl  SystemInit
 8000888:	f7ff fea8 	bl	80005dc <SystemInit>

/* Copy the data segment initializers from flash to SRAM */
  ldr r0, =_sdata
 800088c:	480b      	ldr	r0, [pc, #44]	@ (80008bc <LoopFillZerobss+0xe>)
  ldr r1, =_edata
 800088e:	490c      	ldr	r1, [pc, #48]	@ (80008c0 <LoopFillZerobss+0x12>)
  ldr r2, =_sidata
 8000890:	4a0c      	ldr	r2, [pc, #48]	@ (80008c4 <LoopFillZerobss+0x16>)
  movs r3, #0
 8000892:	2300      	movs	r3, #0
  b LoopCopyDataInit
 8000894:	e002      	b.n	800089c <LoopCopyDataInit>

08000896 <CopyDataInit>:

CopyDataInit:
  ldr r4, [r2, r3]
 8000896:	58d4      	ldr	r4, [r2, r3]
  str r4, [r0, r3]
 8000898:	50c4      	str	r4, [r0, r3]
  adds r3, r3, #4
 800089a:	3304      	adds	r3, #4

0800089c <LoopCopyDataInit>:

LoopCopyDataInit:
  adds r4, r0, r3
 800089c:	18c4      	adds	r4, r0, r3
  cmp r4, r1
 800089e:	428c      	cmp	r4, r1
  bcc CopyDataInit
 80008a0:	d3f9      	bcc.n	8000896 <CopyDataInit>
  
/* Zero fill the bss segment. */
  ldr r2, =_sbss
 80008a2:	4a09      	ldr	r2, [pc, #36]	@ (80008c8 <LoopFillZerobss+0x1a>)
  ldr r4, =_ebss
 80008a4:	4c09      	ldr	r4, [pc, #36]	@ (80008cc <LoopFillZerobss+0x1e>)
  movs r3, #0
 80008a6:	2300      	movs	r3, #0
  b LoopFillZerobss
 80008a8:	e001      	b.n	80008ae <LoopFillZerobss>

080008aa <FillZerobss>:

FillZerobss:
  str  r3, [r2]
 80008aa:	6013      	str	r3, [r2, #0]
  adds r2, r2, #4
 80008ac:	3204      	adds	r2, #4

080008ae <LoopFillZerobss>:

LoopFillZerobss:
  cmp r2, r4
 80008ae:	42a2      	cmp	r2, r4
  bcc FillZerobss
 80008b0:	d3fb      	bcc.n	80008aa <FillZerobss>

/* Call static constructors */
    bl __libc_init_array
 80008b2:	f004 fd57 	bl	8005364 <__libc_init_array>
/* Call the application's entry point.*/
  bl main
 80008b6:	f7ff fe01 	bl	80004bc <main>
  bx lr
 80008ba:	4770      	bx	lr
  ldr r0, =_sdata
 80008bc:	20000000 	.word	0x20000000
  ldr r1, =_edata
 80008c0:	200000ec 	.word	0x200000ec
  ldr r2, =_sidata
 80008c4:	080065dc 	.word	0x080065dc
  ldr r2, =_sbss
 80008c8:	200000f0 	.word	0x200000f0
  ldr r4, =_ebss
 80008cc:	200007ec 	.word	0x200007ec

080008d0 <ADC1_2_IRQHandler>:
 * @retval : None
*/
    .section .text.Default_Handler,"ax",%progbits
Default_Handler:
Infinite_Loop:
  b Infinite_Loop
 80008d0:	e7fe      	b.n	80008d0 <ADC1_2_IRQHandler>
	...

080008d4 <HAL_InitTick>:
  *       implementation  in user file.
  * @param TickPriority Tick interrupt priority.
  * @retval HAL status
  */
__weak HAL_StatusTypeDef HAL_InitTick(uint32_t TickPriority)
{
 80008d4:	b538      	push	{r3, r4, r5, lr}
  /* Configure the SysTick to have interrupt in 1ms time basis*/
  if (HAL_SYSTICK_Config(SystemCoreClock / (1000U / uwTickFreq)) > 0U)
 80008d6:	f44f 737a 	mov.w	r3, #1000	@ 0x3e8
 80008da:	4a0d      	ldr	r2, [pc, #52]	@ (8000910 <HAL_InitTick+0x3c>)
{
 80008dc:	4605      	mov	r5, r0
  if (HAL_SYSTICK_Config(SystemCoreClock / (1000U / uwTickFreq)) > 0U)
 80008de:	7811      	ldrb	r1, [r2, #0]
 80008e0:	4a0c      	ldr	r2, [pc, #48]	@ (8000914 <HAL_InitTick+0x40>)
 80008e2:	fbb3 f3f1 	udiv	r3, r3, r1
 80008e6:	6812      	ldr	r2, [r2, #0]
 80008e8:	fbb2 f0f3 	udiv	r0, r2, r3
 80008ec:	f000 fb04 	bl	8000ef8 <HAL_SYSTICK_Config>
 80008f0:	b908      	cbnz	r0, 80008f6 <HAL_InitTick+0x22>
  {
    return HAL_ERROR;
  }

  /* Configure the SysTick IRQ priority */
  if (TickPriority < (1UL << __NVIC_PRIO_BITS))
 80008f2:	2d0f      	cmp	r5, #15
 80008f4:	d901      	bls.n	80008fa <HAL_InitTick+0x26>
    return HAL_ERROR;
 80008f6:	2001      	movs	r0, #1
    return HAL_ERROR;
  }

  /* Return function status */
  return HAL_OK;
}
 80008f8:	bd38      	pop	{r3, r4, r5, pc}
 80008fa:	4604      	mov	r4, r0
    HAL_NVIC_SetPriority(SysTick_IRQn, TickPriority, 0U);
 80008fc:	4602      	mov	r2, r0
 80008fe:	4629      	mov	r1, r5
 8000900:	f04f 30ff 	mov.w	r0, #4294967295
 8000904:	f000 faae 	bl	8000e64 <HAL_NVIC_SetPriority>
    uwTickPrio = TickPriority;
 8000908:	4b03      	ldr	r3, [pc, #12]	@ (8000918 <HAL_InitTick+0x44>)
 800090a:	4620      	mov	r0, r4
 800090c:	601d      	str	r5, [r3, #0]
}
 800090e:	bd38      	pop	{r3, r4, r5, pc}
 8000910:	20000004 	.word	0x20000004
 8000914:	20000000 	.word	0x20000000
 8000918:	20000008 	.word	0x20000008

0800091c <HAL_Init>:
  __HAL_FLASH_PREFETCH_BUFFER_ENABLE();
 800091c:	4a07      	ldr	r2, [pc, #28]	@ (800093c <HAL_Init+0x20>)
{
 800091e:	b508      	push	{r3, lr}
  __HAL_FLASH_PREFETCH_BUFFER_ENABLE();
 8000920:	6813      	ldr	r3, [r2, #0]
  HAL_NVIC_SetPriorityGrouping(NVIC_PRIORITYGROUP_4);
 8000922:	2003      	movs	r0, #3
  __HAL_FLASH_PREFETCH_BUFFER_ENABLE();
 8000924:	f043 0310 	orr.w	r3, r3, #16
 8000928:	6013      	str	r3, [r2, #0]
  HAL_NVIC_SetPriorityGrouping(NVIC_PRIORITYGROUP_4);
 800092a:	f000 fa89 	bl	8000e40 <HAL_NVIC_SetPriorityGrouping>
  HAL_InitTick(TICK_INT_PRIORITY);
 800092e:	2000      	movs	r0, #0
 8000930:	f7ff ffd0 	bl	80008d4 <HAL_InitTick>
  HAL_MspInit();
 8000934:	f7ff fdde 	bl	80004f4 <HAL_MspInit>
}
 8000938:	2000      	movs	r0, #0
 800093a:	bd08      	pop	{r3, pc}
 800093c:	40022000 	.word	0x40022000

08000940 <HAL_IncTick>:
  *      implementations in user file.
  * @retval None
  */
__weak void HAL_IncTick(void)
{
  uwTick += uwTickFreq;
 8000940:	4a03      	ldr	r2, [pc, #12]	@ (8000950 <HAL_IncTick+0x10>)
 8000942:	4b04      	ldr	r3, [pc, #16]	@ (8000954 <HAL_IncTick+0x14>)
 8000944:	6811      	ldr	r1, [r2, #0]
 8000946:	781b      	ldrb	r3, [r3, #0]
 8000948:	440b      	add	r3, r1
 800094a:	6013      	str	r3, [r2, #0]
}
 800094c:	4770      	bx	lr
 800094e:	bf00      	nop
 8000950:	20000300 	.word	0x20000300
 8000954:	20000004 	.word	0x20000004

08000958 <HAL_GetTick>:
  *       implementations in user file.
  * @retval tick value
  */
__weak uint32_t HAL_GetTick(void)
{
  return uwTick;
 8000958:	4b01      	ldr	r3, [pc, #4]	@ (8000960 <HAL_GetTick+0x8>)
 800095a:	6818      	ldr	r0, [r3, #0]
}
 800095c:	4770      	bx	lr
 800095e:	bf00      	nop
 8000960:	20000300 	.word	0x20000300

08000964 <ADC_DMAConvCplt>:
  * @retval None
  */
void ADC_DMAConvCplt(DMA_HandleTypeDef *hdma)
{
  /* Retrieve ADC handle corresponding to current DMA handle */
  ADC_HandleTypeDef* hadc = ( ADC_HandleTypeDef* )((DMA_HandleTypeDef* )hdma)->Parent;
 8000964:	6a43      	ldr	r3, [r0, #36]	@ 0x24
 
  /* Update state machine on conversion status if not in error state */
  if (HAL_IS_BIT_CLR(hadc->State, HAL_ADC_STATE_ERROR_INTERNAL | HAL_ADC_STATE_ERROR_DMA))
 8000966:	6a9a      	ldr	r2, [r3, #40]	@ 0x28
 8000968:	f012 0f50 	tst.w	r2, #80	@ 0x50
 800096c:	d10f      	bne.n	800098e <ADC_DMAConvCplt+0x2a>
  {
    /* Update ADC state machine */
    SET_BIT(hadc->State, HAL_ADC_STATE_REG_EOC);
 800096e:	6a9a      	ldr	r2, [r3, #40]	@ 0x28
    /* Determine whether any further conversion upcoming on group regular     */
    /* by external trigger, continuous mode or scan sequence on going.        */
    /* Note: On STM32F1 devices, in case of sequencer enabled                 */
    /*       (several ranks selected), end of conversion flag is raised       */
    /*       at the end of the sequence.                                      */
    if(ADC_IS_SOFTWARE_START_REGULAR(hadc)        && 
 8000970:	6819      	ldr	r1, [r3, #0]
    SET_BIT(hadc->State, HAL_ADC_STATE_REG_EOC);
 8000972:	f442 7200 	orr.w	r2, r2, #512	@ 0x200
{
 8000976:	b510      	push	{r4, lr}
    SET_BIT(hadc->State, HAL_ADC_STATE_REG_EOC);
 8000978:	629a      	str	r2, [r3, #40]	@ 0x28
    if(ADC_IS_SOFTWARE_START_REGULAR(hadc)        && 
 800097a:	688a      	ldr	r2, [r1, #8]
 800097c:	f402 2260 	and.w	r2, r2, #917504	@ 0xe0000
 8000980:	f5b2 2f60 	cmp.w	r2, #917504	@ 0xe0000
 8000984:	d006      	beq.n	8000994 <ADC_DMAConvCplt+0x30>
    
    /* Conversion complete callback */
#if (USE_HAL_ADC_REGISTER_CALLBACKS == 1)
    hadc->ConvCpltCallback(hadc);
#else
    HAL_ADC_ConvCpltCallback(hadc);
 8000986:	4618      	mov	r0, r3
 8000988:	f003 fb12 	bl	8003fb0 <HAL_ADC_ConvCpltCallback>
  else
  {
    /* Call DMA error callback */
    hadc->DMA_Handle->XferErrorCallback(hdma);
  }
}
 800098c:	bd10      	pop	{r4, pc}
    hadc->DMA_Handle->XferErrorCallback(hdma);
 800098e:	6a1b      	ldr	r3, [r3, #32]
 8000990:	6b1b      	ldr	r3, [r3, #48]	@ 0x30
 8000992:	4718      	bx	r3
    if(ADC_IS_SOFTWARE_START_REGULAR(hadc)        && 
 8000994:	7b1a      	ldrb	r2, [r3, #12]
 8000996:	2a00      	cmp	r2, #0
 8000998:	d1f5      	bne.n	8000986 <ADC_DMAConvCplt+0x22>
      CLEAR_BIT(hadc->State, HAL_ADC_STATE_REG_BUSY);   
 800099a:	6a9a      	ldr	r2, [r3, #40]	@ 0x28
 800099c:	f422 7280 	bic.w	r2, r2, #256	@ 0x100
 80009a0:	629a      	str	r2, [r3, #40]	@ 0x28
      if (HAL_IS_BIT_CLR(hadc->State, HAL_ADC_STATE_INJ_BUSY))
 80009a2:	6a9a      	ldr	r2, [r3, #40]	@ 0x28
 80009a4:	04d2      	lsls	r2, r2, #19
 80009a6:	d4ee      	bmi.n	8000986 <ADC_DMAConvCplt+0x22>
        SET_BIT(hadc->State, HAL_ADC_STATE_READY);
 80009a8:	6a9a      	ldr	r2, [r3, #40]	@ 0x28
 80009aa:	f042 0201 	orr.w	r2, r2, #1
 80009ae:	629a      	str	r2, [r3, #40]	@ 0x28
 80009b0:	e7e9      	b.n	8000986 <ADC_DMAConvCplt+0x22>
 80009b2:	bf00      	nop

080009b4 <HAL_ADC_ConvHalfCpltCallback>:
__weak void HAL_ADC_ConvHalfCpltCallback(ADC_HandleTypeDef* hadc)
 80009b4:	4770      	bx	lr
 80009b6:	bf00      	nop

080009b8 <ADC_DMAHalfConvCplt>:
  * @brief  DMA half transfer complete callback. 
  * @param  hdma: pointer to DMA handle.
  * @retval None
  */
void ADC_DMAHalfConvCplt(DMA_HandleTypeDef *hdma)   
{
 80009b8:	b508      	push	{r3, lr}
  
  /* Half conversion callback */
#if (USE_HAL_ADC_REGISTER_CALLBACKS == 1)
    hadc->ConvHalfCpltCallback(hadc);
#else
  HAL_ADC_ConvHalfCpltCallback(hadc);
 80009ba:	6a40      	ldr	r0, [r0, #36]	@ 0x24
 80009bc:	f7ff fffa 	bl	80009b4 <HAL_ADC_ConvHalfCpltCallback>
#endif /* USE_HAL_ADC_REGISTER_CALLBACKS */
}
 80009c0:	bd08      	pop	{r3, pc}
 80009c2:	bf00      	nop

080009c4 <HAL_ADC_ErrorCallback>:
__weak void HAL_ADC_ErrorCallback(ADC_HandleTypeDef *hadc)
 80009c4:	4770      	bx	lr
 80009c6:	bf00      	nop

080009c8 <ADC_DMAError>:
  * @retval None
  */
void ADC_DMAError(DMA_HandleTypeDef *hdma)   
{
  /* Retrieve ADC handle corresponding to current DMA handle */
  ADC_HandleTypeDef* hadc = ( ADC_HandleTypeDef* )((DMA_HandleTypeDef* )hdma)->Parent;
 80009c8:	6a40      	ldr	r0, [r0, #36]	@ 0x24
{
 80009ca:	b508      	push	{r3, lr}
  
  /* Set ADC state */
  SET_BIT(hadc->State, HAL_ADC_STATE_ERROR_DMA);
 80009cc:	6a83      	ldr	r3, [r0, #40]	@ 0x28
 80009ce:	f043 0340 	orr.w	r3, r3, #64	@ 0x40
 80009d2:	6283      	str	r3, [r0, #40]	@ 0x28
  
  /* Set ADC error code to DMA error */
  SET_BIT(hadc->ErrorCode, HAL_ADC_ERROR_DMA);
 80009d4:	6ac3      	ldr	r3, [r0, #44]	@ 0x2c
 80009d6:	f043 0304 	orr.w	r3, r3, #4
 80009da:	62c3      	str	r3, [r0, #44]	@ 0x2c
  
  /* Error callback */
#if (USE_HAL_ADC_REGISTER_CALLBACKS == 1)
  hadc->ErrorCallback(hadc);
#else
  HAL_ADC_ErrorCallback(hadc);
 80009dc:	f7ff fff2 	bl	80009c4 <HAL_ADC_ErrorCallback>
#endif /* USE_HAL_ADC_REGISTER_CALLBACKS */
}
 80009e0:	bd08      	pop	{r3, pc}
 80009e2:	bf00      	nop

080009e4 <HAL_ADC_ConfigChannel>:
  __IO uint32_t wait_loop_index = 0U;
 80009e4:	2200      	movs	r2, #0
{ 
 80009e6:	b530      	push	{r4, r5, lr}
 80009e8:	b083      	sub	sp, #12
  __IO uint32_t wait_loop_index = 0U;
 80009ea:	9201      	str	r2, [sp, #4]
  __HAL_LOCK(hadc);
 80009ec:	f890 2024 	ldrb.w	r2, [r0, #36]	@ 0x24
 80009f0:	2a01      	cmp	r2, #1
 80009f2:	d066      	beq.n	8000ac2 <HAL_ADC_ConfigChannel+0xde>
 80009f4:	4603      	mov	r3, r0
 80009f6:	2001      	movs	r0, #1
 80009f8:	f883 0024 	strb.w	r0, [r3, #36]	@ 0x24
  if (sConfig->Rank < 7U)
 80009fc:	684c      	ldr	r4, [r1, #4]
    MODIFY_REG(hadc->Instance->SQR3                        ,
 80009fe:	681a      	ldr	r2, [r3, #0]
  if (sConfig->Rank < 7U)
 8000a00:	2c06      	cmp	r4, #6
    MODIFY_REG(hadc->Instance->SQR3                        ,
 8000a02:	6808      	ldr	r0, [r1, #0]
 8000a04:	eb04 0c84 	add.w	ip, r4, r4, lsl #2
  if (sConfig->Rank < 7U)
 8000a08:	d92f      	bls.n	8000a6a <HAL_ADC_ConfigChannel+0x86>
  else if (sConfig->Rank < 13U)
 8000a0a:	2c0c      	cmp	r4, #12
 8000a0c:	d84b      	bhi.n	8000aa6 <HAL_ADC_ConfigChannel+0xc2>
    MODIFY_REG(hadc->Instance->SQR2                        ,
 8000a0e:	251f      	movs	r5, #31
 8000a10:	6b14      	ldr	r4, [r2, #48]	@ 0x30
 8000a12:	f1ac 0c23 	sub.w	ip, ip, #35	@ 0x23
 8000a16:	fa05 f50c 	lsl.w	r5, r5, ip
 8000a1a:	fa00 fe0c 	lsl.w	lr, r0, ip
 8000a1e:	ea24 0405 	bic.w	r4, r4, r5
 8000a22:	ea44 040e 	orr.w	r4, r4, lr
 8000a26:	6314      	str	r4, [r2, #48]	@ 0x30
  if (sConfig->Channel >= ADC_CHANNEL_10)
 8000a28:	2809      	cmp	r0, #9
    MODIFY_REG(hadc->Instance->SMPR1                             ,
 8000a2a:	6889      	ldr	r1, [r1, #8]
 8000a2c:	eb00 0440 	add.w	r4, r0, r0, lsl #1
  if (sConfig->Channel >= ADC_CHANNEL_10)
 8000a30:	d92d      	bls.n	8000a8e <HAL_ADC_ConfigChannel+0xaa>
    MODIFY_REG(hadc->Instance->SMPR1                             ,
 8000a32:	f04f 0c07 	mov.w	ip, #7
 8000a36:	3c1e      	subs	r4, #30
 8000a38:	40a1      	lsls	r1, r4
 8000a3a:	fa0c fc04 	lsl.w	ip, ip, r4
 8000a3e:	68d4      	ldr	r4, [r2, #12]
 8000a40:	ea24 040c 	bic.w	r4, r4, ip
 8000a44:	4321      	orrs	r1, r4
  if ((sConfig->Channel == ADC_CHANNEL_TEMPSENSOR) ||
 8000a46:	f1a0 0410 	sub.w	r4, r0, #16
 8000a4a:	2c01      	cmp	r4, #1
    MODIFY_REG(hadc->Instance->SMPR1                             ,
 8000a4c:	60d1      	str	r1, [r2, #12]
  if ((sConfig->Channel == ADC_CHANNEL_TEMPSENSOR) ||
 8000a4e:	d828      	bhi.n	8000aa2 <HAL_ADC_ConfigChannel+0xbe>
    if (hadc->Instance == ADC1)
 8000a50:	492c      	ldr	r1, [pc, #176]	@ (8000b04 <HAL_ADC_ConfigChannel+0x120>)
 8000a52:	428a      	cmp	r2, r1
 8000a54:	d038      	beq.n	8000ac8 <HAL_ADC_ConfigChannel+0xe4>
      tmp_hal_status = HAL_ERROR;
 8000a56:	2001      	movs	r0, #1
      SET_BIT(hadc->State, HAL_ADC_STATE_ERROR_CONFIG);
 8000a58:	6a9a      	ldr	r2, [r3, #40]	@ 0x28
 8000a5a:	f042 0220 	orr.w	r2, r2, #32
 8000a5e:	629a      	str	r2, [r3, #40]	@ 0x28
  __HAL_UNLOCK(hadc);
 8000a60:	2200      	movs	r2, #0
 8000a62:	f883 2024 	strb.w	r2, [r3, #36]	@ 0x24
}
 8000a66:	b003      	add	sp, #12
 8000a68:	bd30      	pop	{r4, r5, pc}
    MODIFY_REG(hadc->Instance->SQR3                        ,
 8000a6a:	f04f 0e1f 	mov.w	lr, #31
 8000a6e:	6b54      	ldr	r4, [r2, #52]	@ 0x34
 8000a70:	f1ac 0c05 	sub.w	ip, ip, #5
 8000a74:	fa00 f50c 	lsl.w	r5, r0, ip
 8000a78:	fa0e fc0c 	lsl.w	ip, lr, ip
 8000a7c:	ea24 040c 	bic.w	r4, r4, ip
 8000a80:	432c      	orrs	r4, r5
  if (sConfig->Channel >= ADC_CHANNEL_10)
 8000a82:	2809      	cmp	r0, #9
    MODIFY_REG(hadc->Instance->SQR3                        ,
 8000a84:	6354      	str	r4, [r2, #52]	@ 0x34
    MODIFY_REG(hadc->Instance->SMPR1                             ,
 8000a86:	6889      	ldr	r1, [r1, #8]
 8000a88:	eb00 0440 	add.w	r4, r0, r0, lsl #1
  if (sConfig->Channel >= ADC_CHANNEL_10)
 8000a8c:	d8d1      	bhi.n	8000a32 <HAL_ADC_ConfigChannel+0x4e>
    MODIFY_REG(hadc->Instance->SMPR2                             ,
 8000a8e:	f04f 0c07 	mov.w	ip, #7
 8000a92:	6910      	ldr	r0, [r2, #16]
 8000a94:	40a1      	lsls	r1, r4
 8000a96:	fa0c f404 	lsl.w	r4, ip, r4
 8000a9a:	ea20 0004 	bic.w	r0, r0, r4
 8000a9e:	4301      	orrs	r1, r0
 8000aa0:	6111      	str	r1, [r2, #16]
  HAL_StatusTypeDef tmp_hal_status = HAL_OK;
 8000aa2:	2000      	movs	r0, #0
 8000aa4:	e7dc      	b.n	8000a60 <HAL_ADC_ConfigChannel+0x7c>
    MODIFY_REG(hadc->Instance->SQR1                        ,
 8000aa6:	251f      	movs	r5, #31
 8000aa8:	6ad4      	ldr	r4, [r2, #44]	@ 0x2c
 8000aaa:	f1ac 0c41 	sub.w	ip, ip, #65	@ 0x41
 8000aae:	fa05 f50c 	lsl.w	r5, r5, ip
 8000ab2:	fa00 fe0c 	lsl.w	lr, r0, ip
 8000ab6:	ea24 0405 	bic.w	r4, r4, r5
 8000aba:	ea44 040e 	orr.w	r4, r4, lr
 8000abe:	62d4      	str	r4, [r2, #44]	@ 0x2c
 8000ac0:	e7b2      	b.n	8000a28 <HAL_ADC_ConfigChannel+0x44>
  __HAL_LOCK(hadc);
 8000ac2:	2002      	movs	r0, #2
}
 8000ac4:	b003      	add	sp, #12
 8000ac6:	bd30      	pop	{r4, r5, pc}
      if (READ_BIT(hadc->Instance->CR2, ADC_CR2_TSVREFE) == RESET)
 8000ac8:	6891      	ldr	r1, [r2, #8]
 8000aca:	0209      	lsls	r1, r1, #8
 8000acc:	d4e9      	bmi.n	8000aa2 <HAL_ADC_ConfigChannel+0xbe>
        SET_BIT(hadc->Instance->CR2, ADC_CR2_TSVREFE);
 8000ace:	6891      	ldr	r1, [r2, #8]
        if (sConfig->Channel == ADC_CHANNEL_TEMPSENSOR)
 8000ad0:	2810      	cmp	r0, #16
        SET_BIT(hadc->Instance->CR2, ADC_CR2_TSVREFE);
 8000ad2:	f441 0100 	orr.w	r1, r1, #8388608	@ 0x800000
 8000ad6:	6091      	str	r1, [r2, #8]
        if (sConfig->Channel == ADC_CHANNEL_TEMPSENSOR)
 8000ad8:	d1e3      	bne.n	8000aa2 <HAL_ADC_ConfigChannel+0xbe>
          wait_loop_index = (ADC_TEMPSENSOR_DELAY_US * (SystemCoreClock / 1000000U));
 8000ada:	4a0b      	ldr	r2, [pc, #44]	@ (8000b08 <HAL_ADC_ConfigChannel+0x124>)
 8000adc:	490b      	ldr	r1, [pc, #44]	@ (8000b0c <HAL_ADC_ConfigChannel+0x128>)
 8000ade:	6812      	ldr	r2, [r2, #0]
 8000ae0:	fba1 1202 	umull	r1, r2, r1, r2
 8000ae4:	0c92      	lsrs	r2, r2, #18
 8000ae6:	eb02 0282 	add.w	r2, r2, r2, lsl #2
 8000aea:	0052      	lsls	r2, r2, #1
 8000aec:	9201      	str	r2, [sp, #4]
          while(wait_loop_index != 0U)
 8000aee:	9a01      	ldr	r2, [sp, #4]
 8000af0:	2a00      	cmp	r2, #0
 8000af2:	d0d6      	beq.n	8000aa2 <HAL_ADC_ConfigChannel+0xbe>
            wait_loop_index--;
 8000af4:	9a01      	ldr	r2, [sp, #4]
 8000af6:	3a01      	subs	r2, #1
 8000af8:	9201      	str	r2, [sp, #4]
          while(wait_loop_index != 0U)
 8000afa:	9a01      	ldr	r2, [sp, #4]
 8000afc:	2a00      	cmp	r2, #0
 8000afe:	d1f9      	bne.n	8000af4 <HAL_ADC_ConfigChannel+0x110>
 8000b00:	e7cf      	b.n	8000aa2 <HAL_ADC_ConfigChannel+0xbe>
 8000b02:	bf00      	nop
 8000b04:	40012400 	.word	0x40012400
 8000b08:	20000000 	.word	0x20000000
 8000b0c:	431bde83 	.word	0x431bde83

08000b10 <ADC_Enable>:
  __IO uint32_t wait_loop_index = 0U;
 8000b10:	2300      	movs	r3, #0
{
 8000b12:	b530      	push	{r4, r5, lr}
  if (ADC_IS_ENABLE(hadc) == RESET)
 8000b14:	6802      	ldr	r2, [r0, #0]
{
 8000b16:	b083      	sub	sp, #12
  __IO uint32_t wait_loop_index = 0U;
 8000b18:	9301      	str	r3, [sp, #4]
  if (ADC_IS_ENABLE(hadc) == RESET)
 8000b1a:	6893      	ldr	r3, [r2, #8]
 8000b1c:	07d9      	lsls	r1, r3, #31
 8000b1e:	d427      	bmi.n	8000b70 <ADC_Enable+0x60>
    wait_loop_index = (ADC_STAB_DELAY_US * (SystemCoreClock / 1000000U));
 8000b20:	4b1b      	ldr	r3, [pc, #108]	@ (8000b90 <ADC_Enable+0x80>)
 8000b22:	4604      	mov	r4, r0
 8000b24:	681b      	ldr	r3, [r3, #0]
 8000b26:	481b      	ldr	r0, [pc, #108]	@ (8000b94 <ADC_Enable+0x84>)
    __HAL_ADC_ENABLE(hadc);
 8000b28:	6891      	ldr	r1, [r2, #8]
    wait_loop_index = (ADC_STAB_DELAY_US * (SystemCoreClock / 1000000U));
 8000b2a:	fba0 0303 	umull	r0, r3, r0, r3
    __HAL_ADC_ENABLE(hadc);
 8000b2e:	f041 0101 	orr.w	r1, r1, #1
    wait_loop_index = (ADC_STAB_DELAY_US * (SystemCoreClock / 1000000U));
 8000b32:	0c9b      	lsrs	r3, r3, #18
    __HAL_ADC_ENABLE(hadc);
 8000b34:	6091      	str	r1, [r2, #8]
    wait_loop_index = (ADC_STAB_DELAY_US * (SystemCoreClock / 1000000U));
 8000b36:	9301      	str	r3, [sp, #4]
    while(wait_loop_index != 0U)
 8000b38:	9b01      	ldr	r3, [sp, #4]
 8000b3a:	b12b      	cbz	r3, 8000b48 <ADC_Enable+0x38>
      wait_loop_index--;
 8000b3c:	9b01      	ldr	r3, [sp, #4]
 8000b3e:	3b01      	subs	r3, #1
 8000b40:	9301      	str	r3, [sp, #4]
    while(wait_loop_index != 0U)
 8000b42:	9b01      	ldr	r3, [sp, #4]
 8000b44:	2b00      	cmp	r3, #0
 8000b46:	d1f9      	bne.n	8000b3c <ADC_Enable+0x2c>
    tickstart = HAL_GetTick();
 8000b48:	f7ff ff06 	bl	8000958 <HAL_GetTick>
    while(ADC_IS_ENABLE(hadc) == RESET)
 8000b4c:	6823      	ldr	r3, [r4, #0]
    tickstart = HAL_GetTick();
 8000b4e:	4605      	mov	r5, r0
    while(ADC_IS_ENABLE(hadc) == RESET)
 8000b50:	689b      	ldr	r3, [r3, #8]
 8000b52:	07da      	lsls	r2, r3, #31
 8000b54:	d40c      	bmi.n	8000b70 <ADC_Enable+0x60>
      if((HAL_GetTick() - tickstart) > ADC_ENABLE_TIMEOUT)
 8000b56:	f7ff feff 	bl	8000958 <HAL_GetTick>
 8000b5a:	1b43      	subs	r3, r0, r5
 8000b5c:	2b02      	cmp	r3, #2
        if(ADC_IS_ENABLE(hadc) == RESET)
 8000b5e:	6823      	ldr	r3, [r4, #0]
      if((HAL_GetTick() - tickstart) > ADC_ENABLE_TIMEOUT)
 8000b60:	d903      	bls.n	8000b6a <ADC_Enable+0x5a>
        if(ADC_IS_ENABLE(hadc) == RESET)
 8000b62:	689a      	ldr	r2, [r3, #8]
 8000b64:	f012 0201 	ands.w	r2, r2, #1
 8000b68:	d005      	beq.n	8000b76 <ADC_Enable+0x66>
    while(ADC_IS_ENABLE(hadc) == RESET)
 8000b6a:	689b      	ldr	r3, [r3, #8]
 8000b6c:	07db      	lsls	r3, r3, #31
 8000b6e:	d5f2      	bpl.n	8000b56 <ADC_Enable+0x46>
  return HAL_OK;
 8000b70:	2000      	movs	r0, #0
}
 8000b72:	b003      	add	sp, #12
 8000b74:	bd30      	pop	{r4, r5, pc}
          return HAL_ERROR;
 8000b76:	2001      	movs	r0, #1
          SET_BIT(hadc->State, HAL_ADC_STATE_ERROR_INTERNAL);
 8000b78:	6aa3      	ldr	r3, [r4, #40]	@ 0x28
          __HAL_UNLOCK(hadc);
 8000b7a:	f884 2024 	strb.w	r2, [r4, #36]	@ 0x24
          SET_BIT(hadc->State, HAL_ADC_STATE_ERROR_INTERNAL);
 8000b7e:	f043 0310 	orr.w	r3, r3, #16
 8000b82:	62a3      	str	r3, [r4, #40]	@ 0x28
          SET_BIT(hadc->ErrorCode, HAL_ADC_ERROR_INTERNAL);
 8000b84:	6ae3      	ldr	r3, [r4, #44]	@ 0x2c
 8000b86:	4303      	orrs	r3, r0
 8000b88:	62e3      	str	r3, [r4, #44]	@ 0x2c
}
 8000b8a:	b003      	add	sp, #12
 8000b8c:	bd30      	pop	{r4, r5, pc}
 8000b8e:	bf00      	nop
 8000b90:	20000000 	.word	0x20000000
 8000b94:	431bde83 	.word	0x431bde83

08000b98 <HAL_ADC_Start_DMA>:
{
 8000b98:	b5f8      	push	{r3, r4, r5, r6, r7, lr}
 8000b9a:	4604      	mov	r4, r0
  if(ADC_MULTIMODE_IS_ENABLE(hadc) == RESET)
 8000b9c:	4d3e      	ldr	r5, [pc, #248]	@ (8000c98 <HAL_ADC_Start_DMA+0x100>)
 8000b9e:	6800      	ldr	r0, [r0, #0]
{
 8000ba0:	460f      	mov	r7, r1
  if(ADC_MULTIMODE_IS_ENABLE(hadc) == RESET)
 8000ba2:	42a8      	cmp	r0, r5
{
 8000ba4:	4616      	mov	r6, r2
  if(ADC_MULTIMODE_IS_ENABLE(hadc) == RESET)
 8000ba6:	d059      	beq.n	8000c5c <HAL_ADC_Start_DMA+0xc4>
 8000ba8:	4b3c      	ldr	r3, [pc, #240]	@ (8000c9c <HAL_ADC_Start_DMA+0x104>)
 8000baa:	4298      	cmp	r0, r3
 8000bac:	d056      	beq.n	8000c5c <HAL_ADC_Start_DMA+0xc4>
    __HAL_LOCK(hadc);
 8000bae:	f894 3024 	ldrb.w	r3, [r4, #36]	@ 0x24
 8000bb2:	2b01      	cmp	r3, #1
 8000bb4:	d05f      	beq.n	8000c76 <HAL_ADC_Start_DMA+0xde>
 8000bb6:	2301      	movs	r3, #1
    tmp_hal_status = ADC_Enable(hadc);
 8000bb8:	4620      	mov	r0, r4
    __HAL_LOCK(hadc);
 8000bba:	f884 3024 	strb.w	r3, [r4, #36]	@ 0x24
    tmp_hal_status = ADC_Enable(hadc);
 8000bbe:	f7ff ffa7 	bl	8000b10 <ADC_Enable>
    if (tmp_hal_status == HAL_OK)
 8000bc2:	4605      	mov	r5, r0
 8000bc4:	2800      	cmp	r0, #0
 8000bc6:	d151      	bne.n	8000c6c <HAL_ADC_Start_DMA+0xd4>
      ADC_STATE_CLR_SET(hadc->State,
 8000bc8:	6aa0      	ldr	r0, [r4, #40]	@ 0x28
    if (ADC_NONMULTIMODE_OR_MULTIMODEMASTER(hadc))
 8000bca:	6821      	ldr	r1, [r4, #0]
 8000bcc:	4b33      	ldr	r3, [pc, #204]	@ (8000c9c <HAL_ADC_Start_DMA+0x104>)
      ADC_STATE_CLR_SET(hadc->State,
 8000bce:	f420 6070 	bic.w	r0, r0, #3840	@ 0xf00
 8000bd2:	f020 0001 	bic.w	r0, r0, #1
 8000bd6:	f440 7080 	orr.w	r0, r0, #256	@ 0x100
    if (ADC_NONMULTIMODE_OR_MULTIMODEMASTER(hadc))
 8000bda:	4299      	cmp	r1, r3
      ADC_STATE_CLR_SET(hadc->State,
 8000bdc:	62a0      	str	r0, [r4, #40]	@ 0x28
    if (ADC_NONMULTIMODE_OR_MULTIMODEMASTER(hadc))
 8000bde:	d04d      	beq.n	8000c7c <HAL_ADC_Start_DMA+0xe4>
      CLEAR_BIT(hadc->State, HAL_ADC_STATE_MULTIMODE_SLAVE);
 8000be0:	6aa3      	ldr	r3, [r4, #40]	@ 0x28
 8000be2:	f423 1380 	bic.w	r3, r3, #1048576	@ 0x100000
 8000be6:	62a3      	str	r3, [r4, #40]	@ 0x28
      if (READ_BIT(hadc->Instance->CR1, ADC_CR1_JAUTO) != RESET)
 8000be8:	684b      	ldr	r3, [r1, #4]
 8000bea:	055a      	lsls	r2, r3, #21
 8000bec:	d505      	bpl.n	8000bfa <HAL_ADC_Start_DMA+0x62>
        ADC_STATE_CLR_SET(hadc->State, HAL_ADC_STATE_INJ_EOC, HAL_ADC_STATE_INJ_BUSY);
 8000bee:	6aa3      	ldr	r3, [r4, #40]	@ 0x28
 8000bf0:	f423 5340 	bic.w	r3, r3, #12288	@ 0x3000
 8000bf4:	f443 5380 	orr.w	r3, r3, #4096	@ 0x1000
 8000bf8:	62a3      	str	r3, [r4, #40]	@ 0x28
      if (HAL_IS_BIT_SET(hadc->State, HAL_ADC_STATE_INJ_BUSY))
 8000bfa:	6aa3      	ldr	r3, [r4, #40]	@ 0x28
      __HAL_UNLOCK(hadc);
 8000bfc:	2000      	movs	r0, #0
      if (HAL_IS_BIT_SET(hadc->State, HAL_ADC_STATE_INJ_BUSY))
 8000bfe:	f413 5380 	ands.w	r3, r3, #4096	@ 0x1000
        CLEAR_BIT(hadc->ErrorCode, (HAL_ADC_ERROR_OVR | HAL_ADC_ERROR_DMA));         
 8000c02:	bf18      	it	ne
 8000c04:	6ae3      	ldrne	r3, [r4, #44]	@ 0x2c
      __HAL_UNLOCK(hadc);
 8000c06:	f884 0024 	strb.w	r0, [r4, #36]	@ 0x24
        CLEAR_BIT(hadc->ErrorCode, (HAL_ADC_ERROR_OVR | HAL_ADC_ERROR_DMA));         
 8000c0a:	bf18      	it	ne
 8000c0c:	f023 0306 	bicne.w	r3, r3, #6
        ADC_CLEAR_ERRORCODE(hadc);
 8000c10:	62e3      	str	r3, [r4, #44]	@ 0x2c
      HAL_DMA_Start_IT(hadc->DMA_Handle, (uint32_t)&hadc->Instance->DR, (uint32_t)pData, Length);
 8000c12:	4633      	mov	r3, r6
      __HAL_ADC_CLEAR_FLAG(hadc, ADC_FLAG_EOC);
 8000c14:	f06f 0602 	mvn.w	r6, #2
      hadc->DMA_Handle->XferCpltCallback = ADC_DMAConvCplt;
 8000c18:	6a20      	ldr	r0, [r4, #32]
      HAL_DMA_Start_IT(hadc->DMA_Handle, (uint32_t)&hadc->Instance->DR, (uint32_t)pData, Length);
 8000c1a:	463a      	mov	r2, r7
      hadc->DMA_Handle->XferCpltCallback = ADC_DMAConvCplt;
 8000c1c:	4f20      	ldr	r7, [pc, #128]	@ (8000ca0 <HAL_ADC_Start_DMA+0x108>)
      HAL_DMA_Start_IT(hadc->DMA_Handle, (uint32_t)&hadc->Instance->DR, (uint32_t)pData, Length);
 8000c1e:	314c      	adds	r1, #76	@ 0x4c
      hadc->DMA_Handle->XferCpltCallback = ADC_DMAConvCplt;
 8000c20:	6287      	str	r7, [r0, #40]	@ 0x28
      hadc->DMA_Handle->XferHalfCpltCallback = ADC_DMAHalfConvCplt;
 8000c22:	4f20      	ldr	r7, [pc, #128]	@ (8000ca4 <HAL_ADC_Start_DMA+0x10c>)
 8000c24:	62c7      	str	r7, [r0, #44]	@ 0x2c
      hadc->DMA_Handle->XferErrorCallback = ADC_DMAError;
 8000c26:	4f20      	ldr	r7, [pc, #128]	@ (8000ca8 <HAL_ADC_Start_DMA+0x110>)
 8000c28:	6307      	str	r7, [r0, #48]	@ 0x30
      __HAL_ADC_CLEAR_FLAG(hadc, ADC_FLAG_EOC);
 8000c2a:	f841 6c4c 	str.w	r6, [r1, #-76]
      SET_BIT(hadc->Instance->CR2, ADC_CR2_DMA);
 8000c2e:	f851 6c44 	ldr.w	r6, [r1, #-68]
 8000c32:	f446 7680 	orr.w	r6, r6, #256	@ 0x100
 8000c36:	f841 6c44 	str.w	r6, [r1, #-68]
      HAL_DMA_Start_IT(hadc->DMA_Handle, (uint32_t)&hadc->Instance->DR, (uint32_t)pData, Length);
 8000c3a:	f000 f9b1 	bl	8000fa0 <HAL_DMA_Start_IT>
      if (ADC_IS_SOFTWARE_START_REGULAR(hadc))
 8000c3e:	6823      	ldr	r3, [r4, #0]
}
 8000c40:	4628      	mov	r0, r5
      if (ADC_IS_SOFTWARE_START_REGULAR(hadc))
 8000c42:	689a      	ldr	r2, [r3, #8]
 8000c44:	f402 2260 	and.w	r2, r2, #917504	@ 0xe0000
 8000c48:	f5b2 2f60 	cmp.w	r2, #917504	@ 0xe0000
        SET_BIT(hadc->Instance->CR2, (ADC_CR2_SWSTART | ADC_CR2_EXTTRIG));
 8000c4c:	689a      	ldr	r2, [r3, #8]
 8000c4e:	bf0c      	ite	eq
 8000c50:	f442 02a0 	orreq.w	r2, r2, #5242880	@ 0x500000
        SET_BIT(hadc->Instance->CR2, ADC_CR2_EXTTRIG);
 8000c54:	f442 1280 	orrne.w	r2, r2, #1048576	@ 0x100000
 8000c58:	609a      	str	r2, [r3, #8]
}
 8000c5a:	bdf8      	pop	{r3, r4, r5, r6, r7, pc}
  if(ADC_MULTIMODE_IS_ENABLE(hadc) == RESET)
 8000c5c:	4b0e      	ldr	r3, [pc, #56]	@ (8000c98 <HAL_ADC_Start_DMA+0x100>)
 8000c5e:	685b      	ldr	r3, [r3, #4]
 8000c60:	f413 2f70 	tst.w	r3, #983040	@ 0xf0000
 8000c64:	d0a3      	beq.n	8000bae <HAL_ADC_Start_DMA+0x16>
    tmp_hal_status = HAL_ERROR;
 8000c66:	2501      	movs	r5, #1
}
 8000c68:	4628      	mov	r0, r5
 8000c6a:	bdf8      	pop	{r3, r4, r5, r6, r7, pc}
      __HAL_UNLOCK(hadc);
 8000c6c:	2300      	movs	r3, #0
 8000c6e:	f884 3024 	strb.w	r3, [r4, #36]	@ 0x24
}
 8000c72:	4628      	mov	r0, r5
 8000c74:	bdf8      	pop	{r3, r4, r5, r6, r7, pc}
    __HAL_LOCK(hadc);
 8000c76:	2502      	movs	r5, #2
}
 8000c78:	4628      	mov	r0, r5
 8000c7a:	bdf8      	pop	{r3, r4, r5, r6, r7, pc}
    if (ADC_NONMULTIMODE_OR_MULTIMODEMASTER(hadc))
 8000c7c:	f5a3 6380 	sub.w	r3, r3, #1024	@ 0x400
 8000c80:	685a      	ldr	r2, [r3, #4]
 8000c82:	f412 2f70 	tst.w	r2, #983040	@ 0xf0000
 8000c86:	d0ab      	beq.n	8000be0 <HAL_ADC_Start_DMA+0x48>
      SET_BIT(hadc->State, HAL_ADC_STATE_MULTIMODE_SLAVE);
 8000c88:	6aa2      	ldr	r2, [r4, #40]	@ 0x28
 8000c8a:	f442 1280 	orr.w	r2, r2, #1048576	@ 0x100000
 8000c8e:	62a2      	str	r2, [r4, #40]	@ 0x28
      if (ADC_MULTIMODE_AUTO_INJECTED(hadc))
 8000c90:	685b      	ldr	r3, [r3, #4]
 8000c92:	055b      	lsls	r3, r3, #21
 8000c94:	d5b1      	bpl.n	8000bfa <HAL_ADC_Start_DMA+0x62>
 8000c96:	e7aa      	b.n	8000bee <HAL_ADC_Start_DMA+0x56>
 8000c98:	40012400 	.word	0x40012400
 8000c9c:	40012800 	.word	0x40012800
 8000ca0:	08000965 	.word	0x08000965
 8000ca4:	080009b9 	.word	0x080009b9
 8000ca8:	080009c9 	.word	0x080009c9

08000cac <ADC_ConversionStop_Disable>:
{
 8000cac:	b538      	push	{r3, r4, r5, lr}
  if (ADC_IS_ENABLE(hadc) != RESET)
 8000cae:	6803      	ldr	r3, [r0, #0]
 8000cb0:	689a      	ldr	r2, [r3, #8]
 8000cb2:	07d4      	lsls	r4, r2, #31
 8000cb4:	d401      	bmi.n	8000cba <ADC_ConversionStop_Disable+0xe>
  return HAL_OK;
 8000cb6:	2000      	movs	r0, #0
}
 8000cb8:	bd38      	pop	{r3, r4, r5, pc}
    __HAL_ADC_DISABLE(hadc);
 8000cba:	689a      	ldr	r2, [r3, #8]
 8000cbc:	4604      	mov	r4, r0
 8000cbe:	f022 0201 	bic.w	r2, r2, #1
 8000cc2:	609a      	str	r2, [r3, #8]
    tickstart = HAL_GetTick();
 8000cc4:	f7ff fe48 	bl	8000958 <HAL_GetTick>
 8000cc8:	4605      	mov	r5, r0
    while(ADC_IS_ENABLE(hadc) != RESET)
 8000cca:	6823      	ldr	r3, [r4, #0]
 8000ccc:	689b      	ldr	r3, [r3, #8]
 8000cce:	07d9      	lsls	r1, r3, #31
 8000cd0:	d5f1      	bpl.n	8000cb6 <ADC_ConversionStop_Disable+0xa>
      if((HAL_GetTick() - tickstart) > ADC_DISABLE_TIMEOUT)
 8000cd2:	f7ff fe41 	bl	8000958 <HAL_GetTick>
 8000cd6:	1b43      	subs	r3, r0, r5
 8000cd8:	2b02      	cmp	r3, #2
        if(ADC_IS_ENABLE(hadc) != RESET)
 8000cda:	6823      	ldr	r3, [r4, #0]
      if((HAL_GetTick() - tickstart) > ADC_DISABLE_TIMEOUT)
 8000cdc:	d9f6      	bls.n	8000ccc <ADC_ConversionStop_Disable+0x20>
        if(ADC_IS_ENABLE(hadc) != RESET)
 8000cde:	689a      	ldr	r2, [r3, #8]
 8000ce0:	07d2      	lsls	r2, r2, #31
 8000ce2:	d5f3      	bpl.n	8000ccc <ADC_ConversionStop_Disable+0x20>
          return HAL_ERROR;
 8000ce4:	2001      	movs	r0, #1
          SET_BIT(hadc->State, HAL_ADC_STATE_ERROR_INTERNAL);
 8000ce6:	6aa3      	ldr	r3, [r4, #40]	@ 0x28
 8000ce8:	f043 0310 	orr.w	r3, r3, #16
 8000cec:	62a3      	str	r3, [r4, #40]	@ 0x28
          SET_BIT(hadc->ErrorCode, HAL_ADC_ERROR_INTERNAL);
 8000cee:	6ae3      	ldr	r3, [r4, #44]	@ 0x2c
 8000cf0:	4303      	orrs	r3, r0
 8000cf2:	62e3      	str	r3, [r4, #44]	@ 0x2c
}
 8000cf4:	bd38      	pop	{r3, r4, r5, pc}
 8000cf6:	bf00      	nop

08000cf8 <HAL_ADC_Init>:
  if(hadc == NULL)
 8000cf8:	2800      	cmp	r0, #0
 8000cfa:	d06f      	beq.n	8000ddc <HAL_ADC_Init+0xe4>
{
 8000cfc:	b5f8      	push	{r3, r4, r5, r6, r7, lr}
  if (hadc->State == HAL_ADC_STATE_RESET)
 8000cfe:	6a83      	ldr	r3, [r0, #40]	@ 0x28
 8000d00:	4604      	mov	r4, r0
 8000d02:	2b00      	cmp	r3, #0
 8000d04:	d052      	beq.n	8000dac <HAL_ADC_Init+0xb4>
  tmp_hal_status = ADC_ConversionStop_Disable(hadc);
 8000d06:	4620      	mov	r0, r4
 8000d08:	f7ff ffd0 	bl	8000cac <ADC_ConversionStop_Disable>
  if (HAL_IS_BIT_CLR(hadc->State, HAL_ADC_STATE_ERROR_INTERNAL) &&
 8000d0c:	6aa3      	ldr	r3, [r4, #40]	@ 0x28
 8000d0e:	f013 0310 	ands.w	r3, r3, #16
 8000d12:	d145      	bne.n	8000da0 <HAL_ADC_Init+0xa8>
 8000d14:	2800      	cmp	r0, #0
 8000d16:	d143      	bne.n	8000da0 <HAL_ADC_Init+0xa8>
    ADC_STATE_CLR_SET(hadc->State,
 8000d18:	6aa2      	ldr	r2, [r4, #40]	@ 0x28
    tmp_cr2 |= (hadc->Init.DataAlign                                          |
 8000d1a:	6861      	ldr	r1, [r4, #4]
    ADC_STATE_CLR_SET(hadc->State,
 8000d1c:	f422 5288 	bic.w	r2, r2, #4352	@ 0x1100
 8000d20:	f022 0202 	bic.w	r2, r2, #2
 8000d24:	f042 0202 	orr.w	r2, r2, #2
    tmp_cr1 |= (ADC_CR1_SCAN_SET(hadc->Init.ScanConvMode));
 8000d28:	68a5      	ldr	r5, [r4, #8]
    ADC_STATE_CLR_SET(hadc->State,
 8000d2a:	62a2      	str	r2, [r4, #40]	@ 0x28
    tmp_cr2 |= (hadc->Init.DataAlign                                          |
 8000d2c:	69e2      	ldr	r2, [r4, #28]
                ADC_CR2_CONTINUOUS((uint32_t)hadc->Init.ContinuousConvMode)   );
 8000d2e:	7b26      	ldrb	r6, [r4, #12]
    tmp_cr2 |= (hadc->Init.DataAlign                                          |
 8000d30:	4311      	orrs	r1, r2
    tmp_cr1 |= (ADC_CR1_SCAN_SET(hadc->Init.ScanConvMode));
 8000d32:	f5b5 7f80 	cmp.w	r5, #256	@ 0x100
      MODIFY_REG(hadc->Instance->CR1,
 8000d36:	6822      	ldr	r2, [r4, #0]
    if (hadc->Init.DiscontinuousConvMode == ENABLE)
 8000d38:	f894 e014 	ldrb.w	lr, [r4, #20]
                ADC_CFGR_EXTSEL(hadc, hadc->Init.ExternalTrigConv)            |
 8000d3c:	ea41 0146 	orr.w	r1, r1, r6, lsl #1
    tmp_cr1 |= (ADC_CR1_SCAN_SET(hadc->Init.ScanConvMode));
 8000d40:	d03a      	beq.n	8000db8 <HAL_ADC_Init+0xc0>
 8000d42:	f1a5 0c01 	sub.w	ip, r5, #1
 8000d46:	fabc fc8c 	clz	ip, ip
    if (hadc->Init.DiscontinuousConvMode == ENABLE)
 8000d4a:	f1be 0f01 	cmp.w	lr, #1
    tmp_cr1 |= (ADC_CR1_SCAN_SET(hadc->Init.ScanConvMode));
 8000d4e:	ea4f 1c5c 	mov.w	ip, ip, lsr #5
 8000d52:	ea4f 2c0c 	mov.w	ip, ip, lsl #8
    if (hadc->Init.DiscontinuousConvMode == ENABLE)
 8000d56:	d044      	beq.n	8000de2 <HAL_ADC_Init+0xea>
      MODIFY_REG(hadc->Instance->CR1,
 8000d58:	6856      	ldr	r6, [r2, #4]
 8000d5a:	f426 4669 	bic.w	r6, r6, #59648	@ 0xe900
 8000d5e:	ea46 060c 	orr.w	r6, r6, ip
 8000d62:	6056      	str	r6, [r2, #4]
      MODIFY_REG(hadc->Instance->CR2,
 8000d64:	6897      	ldr	r7, [r2, #8]
 8000d66:	4e34      	ldr	r6, [pc, #208]	@ (8000e38 <HAL_ADC_Init+0x140>)
 8000d68:	403e      	ands	r6, r7
 8000d6a:	430e      	orrs	r6, r1
 8000d6c:	6096      	str	r6, [r2, #8]
    if (ADC_CR1_SCAN_SET(hadc->Init.ScanConvMode) == ADC_SCAN_ENABLE)
 8000d6e:	2d01      	cmp	r5, #1
 8000d70:	d030      	beq.n	8000dd4 <HAL_ADC_Init+0xdc>
    MODIFY_REG(hadc->Instance->SQR1,
 8000d72:	6ad5      	ldr	r5, [r2, #44]	@ 0x2c
 8000d74:	f425 0c70 	bic.w	ip, r5, #15728640	@ 0xf00000
 8000d78:	ea4c 0303 	orr.w	r3, ip, r3
 8000d7c:	62d3      	str	r3, [r2, #44]	@ 0x2c
    if (READ_BIT(hadc->Instance->CR2, ~(ADC_CR2_ADON | ADC_CR2_DMA |
 8000d7e:	6892      	ldr	r2, [r2, #8]
 8000d80:	4b2e      	ldr	r3, [pc, #184]	@ (8000e3c <HAL_ADC_Init+0x144>)
 8000d82:	4013      	ands	r3, r2
 8000d84:	4299      	cmp	r1, r3
 8000d86:	d046      	beq.n	8000e16 <HAL_ADC_Init+0x11e>
      ADC_STATE_CLR_SET(hadc->State,
 8000d88:	6aa3      	ldr	r3, [r4, #40]	@ 0x28
    return HAL_ERROR;
 8000d8a:	2001      	movs	r0, #1
      ADC_STATE_CLR_SET(hadc->State,
 8000d8c:	f023 0312 	bic.w	r3, r3, #18
 8000d90:	f043 0310 	orr.w	r3, r3, #16
 8000d94:	62a3      	str	r3, [r4, #40]	@ 0x28
      SET_BIT(hadc->ErrorCode, HAL_ADC_ERROR_INTERNAL);
 8000d96:	6ae3      	ldr	r3, [r4, #44]	@ 0x2c
 8000d98:	f043 0301 	orr.w	r3, r3, #1
 8000d9c:	62e3      	str	r3, [r4, #44]	@ 0x2c
}
 8000d9e:	bdf8      	pop	{r3, r4, r5, r6, r7, pc}
    SET_BIT(hadc->State, HAL_ADC_STATE_ERROR_INTERNAL);
 8000da0:	6aa3      	ldr	r3, [r4, #40]	@ 0x28
    return HAL_ERROR;
 8000da2:	2001      	movs	r0, #1
    SET_BIT(hadc->State, HAL_ADC_STATE_ERROR_INTERNAL);
 8000da4:	f043 0310 	orr.w	r3, r3, #16
 8000da8:	62a3      	str	r3, [r4, #40]	@ 0x28
}
 8000daa:	bdf8      	pop	{r3, r4, r5, r6, r7, pc}
    ADC_CLEAR_ERRORCODE(hadc);
 8000dac:	62c3      	str	r3, [r0, #44]	@ 0x2c
    hadc->Lock = HAL_UNLOCKED;
 8000dae:	f880 3024 	strb.w	r3, [r0, #36]	@ 0x24
    HAL_ADC_MspInit(hadc);
 8000db2:	f7ff fa01 	bl	80001b8 <HAL_ADC_MspInit>
 8000db6:	e7a6      	b.n	8000d06 <HAL_ADC_Init+0xe>
    if (hadc->Init.DiscontinuousConvMode == ENABLE)
 8000db8:	f1be 0f01 	cmp.w	lr, #1
 8000dbc:	d010      	beq.n	8000de0 <HAL_ADC_Init+0xe8>
      MODIFY_REG(hadc->Instance->CR1,
 8000dbe:	6853      	ldr	r3, [r2, #4]
 8000dc0:	f423 4369 	bic.w	r3, r3, #59648	@ 0xe900
 8000dc4:	f443 7380 	orr.w	r3, r3, #256	@ 0x100
 8000dc8:	6053      	str	r3, [r2, #4]
      MODIFY_REG(hadc->Instance->CR2,
 8000dca:	6895      	ldr	r5, [r2, #8]
 8000dcc:	4b1a      	ldr	r3, [pc, #104]	@ (8000e38 <HAL_ADC_Init+0x140>)
 8000dce:	402b      	ands	r3, r5
 8000dd0:	430b      	orrs	r3, r1
 8000dd2:	6093      	str	r3, [r2, #8]
      tmp_sqr1 = ADC_SQR1_L_SHIFT(hadc->Init.NbrOfConversion);
 8000dd4:	6923      	ldr	r3, [r4, #16]
 8000dd6:	3b01      	subs	r3, #1
 8000dd8:	051b      	lsls	r3, r3, #20
 8000dda:	e7ca      	b.n	8000d72 <HAL_ADC_Init+0x7a>
    return HAL_ERROR;
 8000ddc:	2001      	movs	r0, #1
}
 8000dde:	4770      	bx	lr
    tmp_cr1 |= (ADC_CR1_SCAN_SET(hadc->Init.ScanConvMode));
 8000de0:	46ac      	mov	ip, r5
      if (hadc->Init.ContinuousConvMode == DISABLE)
 8000de2:	b30e      	cbz	r6, 8000e28 <HAL_ADC_Init+0x130>
        SET_BIT(hadc->State, HAL_ADC_STATE_ERROR_CONFIG);
 8000de4:	6aa6      	ldr	r6, [r4, #40]	@ 0x28
 8000de6:	f046 0620 	orr.w	r6, r6, #32
 8000dea:	62a6      	str	r6, [r4, #40]	@ 0x28
        SET_BIT(hadc->ErrorCode, HAL_ADC_ERROR_INTERNAL);
 8000dec:	6ae6      	ldr	r6, [r4, #44]	@ 0x2c
 8000dee:	f046 0601 	orr.w	r6, r6, #1
 8000df2:	62e6      	str	r6, [r4, #44]	@ 0x2c
      MODIFY_REG(hadc->Instance->CR1,
 8000df4:	6856      	ldr	r6, [r2, #4]
    if (ADC_CR1_SCAN_SET(hadc->Init.ScanConvMode) == ADC_SCAN_ENABLE)
 8000df6:	f5b5 7f80 	cmp.w	r5, #256	@ 0x100
      MODIFY_REG(hadc->Instance->CR1,
 8000dfa:	f426 4669 	bic.w	r6, r6, #59648	@ 0xe900
 8000dfe:	ea46 060c 	orr.w	r6, r6, ip
 8000e02:	6056      	str	r6, [r2, #4]
      MODIFY_REG(hadc->Instance->CR2,
 8000e04:	6897      	ldr	r7, [r2, #8]
 8000e06:	4e0c      	ldr	r6, [pc, #48]	@ (8000e38 <HAL_ADC_Init+0x140>)
 8000e08:	ea06 0607 	and.w	r6, r6, r7
 8000e0c:	ea46 0601 	orr.w	r6, r6, r1
 8000e10:	6096      	str	r6, [r2, #8]
    if (ADC_CR1_SCAN_SET(hadc->Init.ScanConvMode) == ADC_SCAN_ENABLE)
 8000e12:	d1ac      	bne.n	8000d6e <HAL_ADC_Init+0x76>
 8000e14:	e7de      	b.n	8000dd4 <HAL_ADC_Init+0xdc>
      ADC_CLEAR_ERRORCODE(hadc);
 8000e16:	2300      	movs	r3, #0
 8000e18:	62e3      	str	r3, [r4, #44]	@ 0x2c
      ADC_STATE_CLR_SET(hadc->State,
 8000e1a:	6aa3      	ldr	r3, [r4, #40]	@ 0x28
 8000e1c:	f023 0303 	bic.w	r3, r3, #3
 8000e20:	f043 0301 	orr.w	r3, r3, #1
 8000e24:	62a3      	str	r3, [r4, #40]	@ 0x28
}
 8000e26:	bdf8      	pop	{r3, r4, r5, r6, r7, pc}
        SET_BIT(tmp_cr1, ADC_CR1_DISCEN                                            |
 8000e28:	69a6      	ldr	r6, [r4, #24]
 8000e2a:	3e01      	subs	r6, #1
 8000e2c:	ea4c 3646 	orr.w	r6, ip, r6, lsl #13
 8000e30:	f446 6c00 	orr.w	ip, r6, #2048	@ 0x800
 8000e34:	e7de      	b.n	8000df4 <HAL_ADC_Init+0xfc>
 8000e36:	bf00      	nop
 8000e38:	ffe1f7fd 	.word	0xffe1f7fd
 8000e3c:	ff1f0efe 	.word	0xff1f0efe

08000e40 <HAL_NVIC_SetPriorityGrouping>:
{
  uint32_t reg_value;
  uint32_t PriorityGroupTmp = (PriorityGroup & (uint32_t)0x07UL);             /* only values 0..7 are used          */

  reg_value  =  SCB->AIRCR;                                                   /* read old register configuration    */
  reg_value &= ~((uint32_t)(SCB_AIRCR_VECTKEY_Msk | SCB_AIRCR_PRIGROUP_Msk)); /* clear bits to change               */
 8000e40:	f64f 0cff 	movw	ip, #63743	@ 0xf8ff
  reg_value  =  SCB->AIRCR;                                                   /* read old register configuration    */
 8000e44:	4906      	ldr	r1, [pc, #24]	@ (8000e60 <HAL_NVIC_SetPriorityGrouping+0x20>)
  reg_value  =  (reg_value                                   |
                ((uint32_t)0x5FAUL << SCB_AIRCR_VECTKEY_Pos) |
                (PriorityGroupTmp << SCB_AIRCR_PRIGROUP_Pos) );               /* Insert write key and priority group */
 8000e46:	0203      	lsls	r3, r0, #8
  reg_value  =  SCB->AIRCR;                                                   /* read old register configuration    */
 8000e48:	68ca      	ldr	r2, [r1, #12]
                (PriorityGroupTmp << SCB_AIRCR_PRIGROUP_Pos) );               /* Insert write key and priority group */
 8000e4a:	f403 63e0 	and.w	r3, r3, #1792	@ 0x700
  reg_value &= ~((uint32_t)(SCB_AIRCR_VECTKEY_Msk | SCB_AIRCR_PRIGROUP_Msk)); /* clear bits to change               */
 8000e4e:	ea02 020c 	and.w	r2, r2, ip
                ((uint32_t)0x5FAUL << SCB_AIRCR_VECTKEY_Pos) |
 8000e52:	4313      	orrs	r3, r2
  reg_value  =  (reg_value                                   |
 8000e54:	f043 63bf 	orr.w	r3, r3, #100139008	@ 0x5f80000
 8000e58:	f443 3300 	orr.w	r3, r3, #131072	@ 0x20000
  SCB->AIRCR =  reg_value;
 8000e5c:	60cb      	str	r3, [r1, #12]
  /* Check the parameters */
  assert_param(IS_NVIC_PRIORITY_GROUP(PriorityGroup));
  
  /* Set the PRIGROUP[10:8] bits according to the PriorityGroup parameter value */
  NVIC_SetPriorityGrouping(PriorityGroup);
}
 8000e5e:	4770      	bx	lr
 8000e60:	e000ed00 	.word	0xe000ed00

08000e64 <HAL_NVIC_SetPriority>:
  \details Reads the priority grouping field from the NVIC Interrupt Controller.
  \return                Priority grouping field (SCB->AIRCR [10:8] PRIGROUP field).
 */
__STATIC_INLINE uint32_t __NVIC_GetPriorityGrouping(void)
{
  return ((uint32_t)((SCB->AIRCR & SCB_AIRCR_PRIGROUP_Msk) >> SCB_AIRCR_PRIGROUP_Pos));
 8000e64:	4b1b      	ldr	r3, [pc, #108]	@ (8000ed4 <HAL_NVIC_SetPriority+0x70>)
  *         This parameter can be a value between 0 and 15
  *         A lower priority value indicates a higher priority.          
  * @retval None
  */
void HAL_NVIC_SetPriority(IRQn_Type IRQn, uint32_t PreemptPriority, uint32_t SubPriority)
{ 
 8000e66:	b500      	push	{lr}
 8000e68:	68db      	ldr	r3, [r3, #12]
 8000e6a:	f3c3 2302 	ubfx	r3, r3, #8, #3
{
  uint32_t PriorityGroupTmp = (PriorityGroup & (uint32_t)0x07UL);   /* only values 0..7 are used          */
  uint32_t PreemptPriorityBits;
  uint32_t SubPriorityBits;

  PreemptPriorityBits = ((7UL - PriorityGroupTmp) > (uint32_t)(__NVIC_PRIO_BITS)) ? (uint32_t)(__NVIC_PRIO_BITS) : (uint32_t)(7UL - PriorityGroupTmp);
 8000e6e:	f1c3 0e07 	rsb	lr, r3, #7
 8000e72:	f1be 0f04 	cmp.w	lr, #4
  SubPriorityBits     = ((PriorityGroupTmp + (uint32_t)(__NVIC_PRIO_BITS)) < (uint32_t)7UL) ? (uint32_t)0UL : (uint32_t)((PriorityGroupTmp - 7UL) + (uint32_t)(__NVIC_PRIO_BITS));
 8000e76:	f103 0c04 	add.w	ip, r3, #4
  PreemptPriorityBits = ((7UL - PriorityGroupTmp) > (uint32_t)(__NVIC_PRIO_BITS)) ? (uint32_t)(__NVIC_PRIO_BITS) : (uint32_t)(7UL - PriorityGroupTmp);
 8000e7a:	bf28      	it	cs
 8000e7c:	f04f 0e04 	movcs.w	lr, #4
  SubPriorityBits     = ((PriorityGroupTmp + (uint32_t)(__NVIC_PRIO_BITS)) < (uint32_t)7UL) ? (uint32_t)0UL : (uint32_t)((PriorityGroupTmp - 7UL) + (uint32_t)(__NVIC_PRIO_BITS));
 8000e80:	f1bc 0f06 	cmp.w	ip, #6
 8000e84:	d91c      	bls.n	8000ec0 <HAL_NVIC_SetPriority+0x5c>
 8000e86:	f1a3 0c03 	sub.w	ip, r3, #3

  return (
           ((PreemptPriority & (uint32_t)((1UL << (PreemptPriorityBits)) - 1UL)) << SubPriorityBits) |
           ((SubPriority     & (uint32_t)((1UL << (SubPriorityBits    )) - 1UL)))
 8000e8a:	f04f 33ff 	mov.w	r3, #4294967295
 8000e8e:	fa03 f30c 	lsl.w	r3, r3, ip
 8000e92:	ea22 0203 	bic.w	r2, r2, r3
           ((PreemptPriority & (uint32_t)((1UL << (PreemptPriorityBits)) - 1UL)) << SubPriorityBits) |
 8000e96:	f04f 33ff 	mov.w	r3, #4294967295
 8000e9a:	fa03 f30e 	lsl.w	r3, r3, lr
 8000e9e:	ea21 0303 	bic.w	r3, r1, r3
 8000ea2:	fa03 f30c 	lsl.w	r3, r3, ip
 8000ea6:	4313      	orrs	r3, r2
    NVIC->IP[((uint32_t)IRQn)]               = (uint8_t)((priority << (8U - __NVIC_PRIO_BITS)) & (uint32_t)0xFFUL);
 8000ea8:	011b      	lsls	r3, r3, #4
  if ((int32_t)(IRQn) >= 0)
 8000eaa:	2800      	cmp	r0, #0
    NVIC->IP[((uint32_t)IRQn)]               = (uint8_t)((priority << (8U - __NVIC_PRIO_BITS)) & (uint32_t)0xFFUL);
 8000eac:	b2db      	uxtb	r3, r3
  if ((int32_t)(IRQn) >= 0)
 8000eae:	db0a      	blt.n	8000ec6 <HAL_NVIC_SetPriority+0x62>
    NVIC->IP[((uint32_t)IRQn)]               = (uint8_t)((priority << (8U - __NVIC_PRIO_BITS)) & (uint32_t)0xFFUL);
 8000eb0:	f100 4060 	add.w	r0, r0, #3758096384	@ 0xe0000000
 8000eb4:	f500 4061 	add.w	r0, r0, #57600	@ 0xe100
 8000eb8:	f880 3300 	strb.w	r3, [r0, #768]	@ 0x300
  assert_param(IS_NVIC_PREEMPTION_PRIORITY(PreemptPriority));
  
  prioritygroup = NVIC_GetPriorityGrouping();
  
  NVIC_SetPriority(IRQn, NVIC_EncodePriority(prioritygroup, PreemptPriority, SubPriority));
}
 8000ebc:	f85d fb04 	ldr.w	pc, [sp], #4
 8000ec0:	2200      	movs	r2, #0
  SubPriorityBits     = ((PriorityGroupTmp + (uint32_t)(__NVIC_PRIO_BITS)) < (uint32_t)7UL) ? (uint32_t)0UL : (uint32_t)((PriorityGroupTmp - 7UL) + (uint32_t)(__NVIC_PRIO_BITS));
 8000ec2:	4694      	mov	ip, r2
 8000ec4:	e7e7      	b.n	8000e96 <HAL_NVIC_SetPriority+0x32>
    SCB->SHP[(((uint32_t)IRQn) & 0xFUL)-4UL] = (uint8_t)((priority << (8U - __NVIC_PRIO_BITS)) & (uint32_t)0xFFUL);
 8000ec6:	4a04      	ldr	r2, [pc, #16]	@ (8000ed8 <HAL_NVIC_SetPriority+0x74>)
 8000ec8:	f000 000f 	and.w	r0, r0, #15
 8000ecc:	4402      	add	r2, r0
 8000ece:	7613      	strb	r3, [r2, #24]
 8000ed0:	f85d fb04 	ldr.w	pc, [sp], #4
 8000ed4:	e000ed00 	.word	0xe000ed00
 8000ed8:	e000ecfc 	.word	0xe000ecfc

08000edc <HAL_NVIC_EnableIRQ>:
  if ((int32_t)(IRQn) >= 0)
 8000edc:	2800      	cmp	r0, #0
 8000ede:	db07      	blt.n	8000ef0 <HAL_NVIC_EnableIRQ+0x14>
    NVIC->ISER[(((uint32_t)IRQn) >> 5UL)] = (uint32_t)(1UL << (((uint32_t)IRQn) & 0x1FUL));
 8000ee0:	2301      	movs	r3, #1
 8000ee2:	f000 011f 	and.w	r1, r0, #31
 8000ee6:	4a03      	ldr	r2, [pc, #12]	@ (8000ef4 <HAL_NVIC_EnableIRQ+0x18>)
 8000ee8:	0940      	lsrs	r0, r0, #5
 8000eea:	408b      	lsls	r3, r1
 8000eec:	f842 3020 	str.w	r3, [r2, r0, lsl #2]
  /* Check the parameters */
  assert_param(IS_NVIC_DEVICE_IRQ(IRQn));

  /* Enable interrupt */
  NVIC_EnableIRQ(IRQn);
}
 8000ef0:	4770      	bx	lr
 8000ef2:	bf00      	nop
 8000ef4:	e000e100 	.word	0xe000e100

08000ef8 <HAL_SYSTICK_Config>:
           function <b>SysTick_Config</b> is not included. In this case, the file <b><i>device</i>.h</b>
           must contain a vendor-specific implementation of this function.
 */
__STATIC_INLINE uint32_t SysTick_Config(uint32_t ticks)
{
  if ((ticks - 1UL) > SysTick_LOAD_RELOAD_Msk)
 8000ef8:	3801      	subs	r0, #1
 8000efa:	f1b0 7f80 	cmp.w	r0, #16777216	@ 0x1000000
 8000efe:	d301      	bcc.n	8000f04 <HAL_SYSTICK_Config+0xc>
  {
    return (1UL);                                                   /* Reload value impossible */
 8000f00:	2001      	movs	r0, #1
  *                  - 1  Function failed.
  */
uint32_t HAL_SYSTICK_Config(uint32_t TicksNumb)
{
   return SysTick_Config(TicksNumb);
}
 8000f02:	4770      	bx	lr
  }

  SysTick->LOAD  = (uint32_t)(ticks - 1UL);                         /* set reload register */
 8000f04:	f04f 23e0 	mov.w	r3, #3758153728	@ 0xe000e000
    SCB->SHP[(((uint32_t)IRQn) & 0xFUL)-4UL] = (uint8_t)((priority << (8U - __NVIC_PRIO_BITS)) & (uint32_t)0xFFUL);
 8000f08:	f04f 0cf0 	mov.w	ip, #240	@ 0xf0
  NVIC_SetPriority (SysTick_IRQn, (1UL << __NVIC_PRIO_BITS) - 1UL); /* set Priority for Systick Interrupt */
  SysTick->VAL   = 0UL;                                             /* Load the SysTick Counter Value */
 8000f0c:	2200      	movs	r2, #0
  SysTick->CTRL  = SysTick_CTRL_CLKSOURCE_Msk |
 8000f0e:	2107      	movs	r1, #7
{
 8000f10:	b410      	push	{r4}
    SCB->SHP[(((uint32_t)IRQn) & 0xFUL)-4UL] = (uint8_t)((priority << (8U - __NVIC_PRIO_BITS)) & (uint32_t)0xFFUL);
 8000f12:	4c04      	ldr	r4, [pc, #16]	@ (8000f24 <HAL_SYSTICK_Config+0x2c>)
  SysTick->LOAD  = (uint32_t)(ticks - 1UL);                         /* set reload register */
 8000f14:	6158      	str	r0, [r3, #20]
    SCB->SHP[(((uint32_t)IRQn) & 0xFUL)-4UL] = (uint8_t)((priority << (8U - __NVIC_PRIO_BITS)) & (uint32_t)0xFFUL);
 8000f16:	f884 c023 	strb.w	ip, [r4, #35]	@ 0x23
                   SysTick_CTRL_TICKINT_Msk   |
                   SysTick_CTRL_ENABLE_Msk;                         /* Enable SysTick IRQ and SysTick Timer */
  return (0UL);                                                     /* Function successful */
 8000f1a:	4610      	mov	r0, r2
  SysTick->VAL   = 0UL;                                             /* Load the SysTick Counter Value */
 8000f1c:	619a      	str	r2, [r3, #24]
}
 8000f1e:	bc10      	pop	{r4}
  SysTick->CTRL  = SysTick_CTRL_CLKSOURCE_Msk |
 8000f20:	6119      	str	r1, [r3, #16]
 8000f22:	4770      	bx	lr
 8000f24:	e000ed00 	.word	0xe000ed00

08000f28 <HAL_SYSTICK_IRQHandler>:
/**
  * @brief  This function handles SYSTICK interrupt request.
  * @retval None
  */
void HAL_SYSTICK_IRQHandler(void)
{
 8000f28:	b508      	push	{r3, lr}
  HAL_SYSTICK_Callback();
 8000f2a:	f002 f997 	bl	800325c <HAL_SYSTICK_Callback>
}
 8000f2e:	bd08      	pop	{r3, pc}

08000f30 <HAL_DMA_Init>:
HAL_StatusTypeDef HAL_DMA_Init(DMA_HandleTypeDef *hdma)
{
  uint32_t tmp = 0U;

  /* Check the DMA handle allocation */
  if(hdma == NULL)
 8000f30:	b370      	cbz	r0, 8000f90 <HAL_DMA_Init+0x60>
    hdma->ChannelIndex = (((uint32_t)hdma->Instance - (uint32_t)DMA2_Channel1) / ((uint32_t)DMA2_Channel2 - (uint32_t)DMA2_Channel1)) << 2;
    hdma->DmaBaseAddress = DMA2;
  }
#else
  /* DMA1 */
  hdma->ChannelIndex = (((uint32_t)hdma->Instance - (uint32_t)DMA1_Channel1) / ((uint32_t)DMA1_Channel2 - (uint32_t)DMA1_Channel1)) << 2;
 8000f32:	4603      	mov	r3, r0
  hdma->DmaBaseAddress = DMA1;
#endif /* DMA2 */

  /* Change DMA peripheral state */
  hdma->State = HAL_DMA_STATE_BUSY;
 8000f34:	2202      	movs	r2, #2
{
 8000f36:	b530      	push	{r4, r5, lr}

  /* Initialise the error code */
  hdma->ErrorCode = HAL_DMA_ERROR_NONE;

  /* Initialize the DMA state*/
  hdma->State = HAL_DMA_STATE_READY;
 8000f38:	f04f 0c01 	mov.w	ip, #1
  hdma->ErrorCode = HAL_DMA_ERROR_NONE;
 8000f3c:	2400      	movs	r4, #0
  hdma->ChannelIndex = (((uint32_t)hdma->Instance - (uint32_t)DMA1_Channel1) / ((uint32_t)DMA1_Channel2 - (uint32_t)DMA1_Channel1)) << 2;
 8000f3e:	6800      	ldr	r0, [r0, #0]
  hdma->State = HAL_DMA_STATE_BUSY;
 8000f40:	f883 2021 	strb.w	r2, [r3, #33]	@ 0x21
  tmp = hdma->Instance->CCR;
 8000f44:	6802      	ldr	r2, [r0, #0]
          hdma->Init.PeriphInc           | hdma->Init.MemInc           |
 8000f46:	68dd      	ldr	r5, [r3, #12]
  tmp &= ((uint32_t)~(DMA_CCR_PL    | DMA_CCR_MSIZE  | DMA_CCR_PSIZE  | \
 8000f48:	f422 5e7f 	bic.w	lr, r2, #16320	@ 0x3fc0
  tmp |=  hdma->Init.Direction        |
 8000f4c:	e9d3 2101 	ldrd	r2, r1, [r3, #4]
 8000f50:	430a      	orrs	r2, r1
  hdma->ChannelIndex = (((uint32_t)hdma->Instance - (uint32_t)DMA1_Channel1) / ((uint32_t)DMA1_Channel2 - (uint32_t)DMA1_Channel1)) << 2;
 8000f52:	4910      	ldr	r1, [pc, #64]	@ (8000f94 <HAL_DMA_Init+0x64>)
          hdma->Init.PeriphInc           | hdma->Init.MemInc           |
 8000f54:	432a      	orrs	r2, r5
  hdma->ChannelIndex = (((uint32_t)hdma->Instance - (uint32_t)DMA1_Channel1) / ((uint32_t)DMA1_Channel2 - (uint32_t)DMA1_Channel1)) << 2;
 8000f56:	4d10      	ldr	r5, [pc, #64]	@ (8000f98 <HAL_DMA_Init+0x68>)
 8000f58:	4401      	add	r1, r0
 8000f5a:	fba5 5101 	umull	r5, r1, r5, r1
 8000f5e:	0909      	lsrs	r1, r1, #4
 8000f60:	0089      	lsls	r1, r1, #2
 8000f62:	6419      	str	r1, [r3, #64]	@ 0x40
          hdma->Init.PeriphInc           | hdma->Init.MemInc           |
 8000f64:	6919      	ldr	r1, [r3, #16]
  tmp &= ((uint32_t)~(DMA_CCR_PL    | DMA_CCR_MSIZE  | DMA_CCR_PSIZE  | \
 8000f66:	f02e 0e30 	bic.w	lr, lr, #48	@ 0x30
          hdma->Init.PeriphInc           | hdma->Init.MemInc           |
 8000f6a:	430a      	orrs	r2, r1
          hdma->Init.PeriphDataAlignment | hdma->Init.MemDataAlignment |
 8000f6c:	6959      	ldr	r1, [r3, #20]
 8000f6e:	430a      	orrs	r2, r1
 8000f70:	6999      	ldr	r1, [r3, #24]
 8000f72:	430a      	orrs	r2, r1
          hdma->Init.Mode                | hdma->Init.Priority;
 8000f74:	69d9      	ldr	r1, [r3, #28]
 8000f76:	430a      	orrs	r2, r1
  hdma->DmaBaseAddress = DMA1;
 8000f78:	4908      	ldr	r1, [pc, #32]	@ (8000f9c <HAL_DMA_Init+0x6c>)
  tmp |=  hdma->Init.Direction        |
 8000f7a:	ea42 020e 	orr.w	r2, r2, lr
  hdma->DmaBaseAddress = DMA1;
 8000f7e:	63d9      	str	r1, [r3, #60]	@ 0x3c
  hdma->Instance->CCR = tmp;
 8000f80:	6002      	str	r2, [r0, #0]
  hdma->ErrorCode = HAL_DMA_ERROR_NONE;
 8000f82:	639c      	str	r4, [r3, #56]	@ 0x38
  /* Allocate lock resource and initialize it */
  hdma->Lock = HAL_UNLOCKED;
 8000f84:	f883 4020 	strb.w	r4, [r3, #32]
  hdma->State = HAL_DMA_STATE_READY;
 8000f88:	f883 c021 	strb.w	ip, [r3, #33]	@ 0x21

  return HAL_OK;
 8000f8c:	4620      	mov	r0, r4
}
 8000f8e:	bd30      	pop	{r4, r5, pc}
    return HAL_ERROR;
 8000f90:	2001      	movs	r0, #1
}
 8000f92:	4770      	bx	lr
 8000f94:	bffdfff8 	.word	0xbffdfff8
 8000f98:	cccccccd 	.word	0xcccccccd
 8000f9c:	40020000 	.word	0x40020000

08000fa0 <HAL_DMA_Start_IT>:
  * @param  DstAddress: The destination memory Buffer address
  * @param  DataLength: The length of data to be transferred from source to destination
  * @retval HAL status
  */
HAL_StatusTypeDef HAL_DMA_Start_IT(DMA_HandleTypeDef *hdma, uint32_t SrcAddress, uint32_t DstAddress, uint32_t DataLength)
{
 8000fa0:	b470      	push	{r4, r5, r6}

  /* Check the parameters */
  assert_param(IS_DMA_BUFFER_SIZE(DataLength));

  /* Process locked */
  __HAL_LOCK(hdma);
 8000fa2:	f890 4020 	ldrb.w	r4, [r0, #32]
 8000fa6:	2c01      	cmp	r4, #1
 8000fa8:	d00b      	beq.n	8000fc2 <HAL_DMA_Start_IT+0x22>
 8000faa:	2501      	movs	r5, #1
  
  if(HAL_DMA_STATE_READY == hdma->State)
 8000fac:	f890 4021 	ldrb.w	r4, [r0, #33]	@ 0x21
  __HAL_LOCK(hdma);
 8000fb0:	f880 5020 	strb.w	r5, [r0, #32]
  if(HAL_DMA_STATE_READY == hdma->State)
 8000fb4:	42ac      	cmp	r4, r5
 8000fb6:	fa5f fc84 	uxtb.w	ip, r4
 8000fba:	d005      	beq.n	8000fc8 <HAL_DMA_Start_IT+0x28>
    __HAL_DMA_ENABLE(hdma);
  }
  else
  {      
    /* Process Unlocked */
    __HAL_UNLOCK(hdma); 
 8000fbc:	2300      	movs	r3, #0
 8000fbe:	f880 3020 	strb.w	r3, [r0, #32]
  __HAL_LOCK(hdma);
 8000fc2:	2002      	movs	r0, #2

    /* Remain BUSY */
    status = HAL_BUSY;
  }    
  return status;
}
 8000fc4:	bc70      	pop	{r4, r5, r6}
 8000fc6:	4770      	bx	lr
    hdma->State = HAL_DMA_STATE_BUSY;
 8000fc8:	2402      	movs	r4, #2
 8000fca:	f880 4021 	strb.w	r4, [r0, #33]	@ 0x21
    hdma->ErrorCode = HAL_DMA_ERROR_NONE;
 8000fce:	2400      	movs	r4, #0
 8000fd0:	6384      	str	r4, [r0, #56]	@ 0x38
    __HAL_DMA_DISABLE(hdma);
 8000fd2:	6804      	ldr	r4, [r0, #0]
  * @retval HAL status
  */
static void DMA_SetConfig(DMA_HandleTypeDef *hdma, uint32_t SrcAddress, uint32_t DstAddress, uint32_t DataLength)
{
  /* Clear all flags */
  hdma->DmaBaseAddress->IFCR = (DMA_ISR_GIF1 << hdma->ChannelIndex);
 8000fd4:	6c05      	ldr	r5, [r0, #64]	@ 0x40
    __HAL_DMA_DISABLE(hdma);
 8000fd6:	6826      	ldr	r6, [r4, #0]
  hdma->DmaBaseAddress->IFCR = (DMA_ISR_GIF1 << hdma->ChannelIndex);
 8000fd8:	fa0c f505 	lsl.w	r5, ip, r5
    __HAL_DMA_DISABLE(hdma);
 8000fdc:	f026 0601 	bic.w	r6, r6, #1
 8000fe0:	6026      	str	r6, [r4, #0]
  hdma->DmaBaseAddress->IFCR = (DMA_ISR_GIF1 << hdma->ChannelIndex);
 8000fe2:	6bc6      	ldr	r6, [r0, #60]	@ 0x3c
 8000fe4:	6075      	str	r5, [r6, #4]

  /* Configure DMA Channel data length */
  hdma->Instance->CNDTR = DataLength;
 8000fe6:	6063      	str	r3, [r4, #4]

  /* Memory to Peripheral */
  if((hdma->Init.Direction) == DMA_MEMORY_TO_PERIPH)
 8000fe8:	6843      	ldr	r3, [r0, #4]
 8000fea:	2b10      	cmp	r3, #16
    if(NULL != hdma->XferHalfCpltCallback)
 8000fec:	6ac3      	ldr	r3, [r0, #44]	@ 0x2c
  {
    /* Configure DMA Channel destination address */
    hdma->Instance->CPAR = DstAddress;
 8000fee:	bf0b      	itete	eq
 8000ff0:	60a2      	streq	r2, [r4, #8]
  }
  /* Peripheral to Memory */
  else
  {
    /* Configure DMA Channel source address */
    hdma->Instance->CPAR = SrcAddress;
 8000ff2:	60a1      	strne	r1, [r4, #8]
    hdma->Instance->CMAR = SrcAddress;
 8000ff4:	60e1      	streq	r1, [r4, #12]

    /* Configure DMA Channel destination address */
    hdma->Instance->CMAR = DstAddress;
 8000ff6:	60e2      	strne	r2, [r4, #12]
    if(NULL != hdma->XferHalfCpltCallback)
 8000ff8:	b153      	cbz	r3, 8001010 <HAL_DMA_Start_IT+0x70>
      __HAL_DMA_ENABLE_IT(hdma, (DMA_IT_TC | DMA_IT_HT | DMA_IT_TE));
 8000ffa:	6823      	ldr	r3, [r4, #0]
 8000ffc:	f043 030e 	orr.w	r3, r3, #14
 8001000:	6023      	str	r3, [r4, #0]
    __HAL_DMA_ENABLE(hdma);
 8001002:	6823      	ldr	r3, [r4, #0]
  HAL_StatusTypeDef status = HAL_OK;
 8001004:	2000      	movs	r0, #0
    __HAL_DMA_ENABLE(hdma);
 8001006:	f043 0301 	orr.w	r3, r3, #1
 800100a:	6023      	str	r3, [r4, #0]
}
 800100c:	bc70      	pop	{r4, r5, r6}
 800100e:	4770      	bx	lr
      __HAL_DMA_DISABLE_IT(hdma, DMA_IT_HT);
 8001010:	6823      	ldr	r3, [r4, #0]
 8001012:	f023 0304 	bic.w	r3, r3, #4
 8001016:	6023      	str	r3, [r4, #0]
      __HAL_DMA_ENABLE_IT(hdma, (DMA_IT_TC | DMA_IT_TE));
 8001018:	6823      	ldr	r3, [r4, #0]
 800101a:	f043 030a 	orr.w	r3, r3, #10
 800101e:	6023      	str	r3, [r4, #0]
 8001020:	e7ef      	b.n	8001002 <HAL_DMA_Start_IT+0x62>
 8001022:	bf00      	nop

08001024 <HAL_DMA_Abort>:
  if(hdma->State != HAL_DMA_STATE_BUSY)
 8001024:	f890 2021 	ldrb.w	r2, [r0, #33]	@ 0x21
{
 8001028:	4603      	mov	r3, r0
  if(hdma->State != HAL_DMA_STATE_BUSY)
 800102a:	2a02      	cmp	r2, #2
 800102c:	d006      	beq.n	800103c <HAL_DMA_Abort+0x18>
    hdma->ErrorCode = HAL_DMA_ERROR_NO_XFER;
 800102e:	2204      	movs	r2, #4
 8001030:	639a      	str	r2, [r3, #56]	@ 0x38
    __HAL_UNLOCK(hdma);
 8001032:	2200      	movs	r2, #0
    return HAL_ERROR;
 8001034:	2001      	movs	r0, #1
    __HAL_UNLOCK(hdma);
 8001036:	f883 2020 	strb.w	r2, [r3, #32]
}
 800103a:	4770      	bx	lr
    hdma->DmaBaseAddress->IFCR = (DMA_ISR_GIF1 << hdma->ChannelIndex);
 800103c:	f04f 0c01 	mov.w	ip, #1
    __HAL_DMA_DISABLE_IT(hdma, (DMA_IT_TC | DMA_IT_HT | DMA_IT_TE));
 8001040:	681a      	ldr	r2, [r3, #0]
  return status; 
 8001042:	2000      	movs	r0, #0
    __HAL_DMA_DISABLE_IT(hdma, (DMA_IT_TC | DMA_IT_HT | DMA_IT_TE));
 8001044:	6811      	ldr	r1, [r2, #0]
 8001046:	f021 010e 	bic.w	r1, r1, #14
 800104a:	6011      	str	r1, [r2, #0]
    __HAL_DMA_DISABLE(hdma);
 800104c:	6811      	ldr	r1, [r2, #0]
 800104e:	f021 0101 	bic.w	r1, r1, #1
 8001052:	6011      	str	r1, [r2, #0]
    hdma->DmaBaseAddress->IFCR = (DMA_ISR_GIF1 << hdma->ChannelIndex);
 8001054:	e9d3 120f 	ldrd	r1, r2, [r3, #60]	@ 0x3c
 8001058:	fa0c f202 	lsl.w	r2, ip, r2
 800105c:	604a      	str	r2, [r1, #4]
    __HAL_UNLOCK(hdma);
 800105e:	2200      	movs	r2, #0
  hdma->State = HAL_DMA_STATE_READY;
 8001060:	f883 c021 	strb.w	ip, [r3, #33]	@ 0x21
    __HAL_UNLOCK(hdma);
 8001064:	f883 2020 	strb.w	r2, [r3, #32]
}
 8001068:	4770      	bx	lr
 800106a:	bf00      	nop

0800106c <HAL_DMA_Abort_IT>:
  if(HAL_DMA_STATE_BUSY != hdma->State)
 800106c:	f890 2021 	ldrb.w	r2, [r0, #33]	@ 0x21
{  
 8001070:	4603      	mov	r3, r0
  if(HAL_DMA_STATE_BUSY != hdma->State)
 8001072:	2a02      	cmp	r2, #2
 8001074:	d003      	beq.n	800107e <HAL_DMA_Abort_IT+0x12>
    hdma->ErrorCode = HAL_DMA_ERROR_NO_XFER;
 8001076:	2204      	movs	r2, #4
    status = HAL_ERROR;
 8001078:	2001      	movs	r0, #1
    hdma->ErrorCode = HAL_DMA_ERROR_NO_XFER;
 800107a:	639a      	str	r2, [r3, #56]	@ 0x38
}
 800107c:	4770      	bx	lr
    __HAL_DMA_DISABLE_IT(hdma, (DMA_IT_TC | DMA_IT_HT | DMA_IT_TE));
 800107e:	6802      	ldr	r2, [r0, #0]
{  
 8001080:	b510      	push	{r4, lr}
    __HAL_DMA_DISABLE_IT(hdma, (DMA_IT_TC | DMA_IT_HT | DMA_IT_TE));
 8001082:	6811      	ldr	r1, [r2, #0]
    __HAL_DMA_CLEAR_FLAG(hdma, __HAL_DMA_GET_GI_FLAG_INDEX(hdma));
 8001084:	481b      	ldr	r0, [pc, #108]	@ (80010f4 <HAL_DMA_Abort_IT+0x88>)
    __HAL_DMA_DISABLE_IT(hdma, (DMA_IT_TC | DMA_IT_HT | DMA_IT_TE));
 8001086:	f021 010e 	bic.w	r1, r1, #14
 800108a:	6011      	str	r1, [r2, #0]
    __HAL_DMA_DISABLE(hdma);
 800108c:	6811      	ldr	r1, [r2, #0]
    __HAL_DMA_CLEAR_FLAG(hdma, __HAL_DMA_GET_GI_FLAG_INDEX(hdma));
 800108e:	4282      	cmp	r2, r0
    __HAL_DMA_DISABLE(hdma);
 8001090:	f021 0101 	bic.w	r1, r1, #1
 8001094:	6011      	str	r1, [r2, #0]
    __HAL_DMA_CLEAR_FLAG(hdma, __HAL_DMA_GET_GI_FLAG_INDEX(hdma));
 8001096:	d022      	beq.n	80010de <HAL_DMA_Abort_IT+0x72>
 8001098:	4917      	ldr	r1, [pc, #92]	@ (80010f8 <HAL_DMA_Abort_IT+0x8c>)
 800109a:	428a      	cmp	r2, r1
 800109c:	d01d      	beq.n	80010da <HAL_DMA_Abort_IT+0x6e>
 800109e:	3114      	adds	r1, #20
 80010a0:	428a      	cmp	r2, r1
 80010a2:	d01e      	beq.n	80010e2 <HAL_DMA_Abort_IT+0x76>
 80010a4:	3114      	adds	r1, #20
 80010a6:	428a      	cmp	r2, r1
 80010a8:	d01e      	beq.n	80010e8 <HAL_DMA_Abort_IT+0x7c>
 80010aa:	3114      	adds	r1, #20
 80010ac:	428a      	cmp	r2, r1
 80010ae:	d01e      	beq.n	80010ee <HAL_DMA_Abort_IT+0x82>
 80010b0:	3114      	adds	r1, #20
 80010b2:	428a      	cmp	r2, r1
 80010b4:	bf14      	ite	ne
 80010b6:	f04f 7280 	movne.w	r2, #16777216	@ 0x1000000
 80010ba:	f44f 1280 	moveq.w	r2, #1048576	@ 0x100000
    hdma->State = HAL_DMA_STATE_READY;
 80010be:	2001      	movs	r0, #1
    __HAL_UNLOCK(hdma);
 80010c0:	2100      	movs	r1, #0
    __HAL_DMA_CLEAR_FLAG(hdma, __HAL_DMA_GET_GI_FLAG_INDEX(hdma));
 80010c2:	4c0e      	ldr	r4, [pc, #56]	@ (80010fc <HAL_DMA_Abort_IT+0x90>)
 80010c4:	6062      	str	r2, [r4, #4]
    if(hdma->XferAbortCallback != NULL)
 80010c6:	6b5a      	ldr	r2, [r3, #52]	@ 0x34
    hdma->State = HAL_DMA_STATE_READY;
 80010c8:	f883 0021 	strb.w	r0, [r3, #33]	@ 0x21
    __HAL_UNLOCK(hdma);
 80010cc:	f883 1020 	strb.w	r1, [r3, #32]
    if(hdma->XferAbortCallback != NULL)
 80010d0:	b10a      	cbz	r2, 80010d6 <HAL_DMA_Abort_IT+0x6a>
      hdma->XferAbortCallback(hdma);
 80010d2:	4618      	mov	r0, r3
 80010d4:	4790      	blx	r2
  HAL_StatusTypeDef status = HAL_OK;
 80010d6:	2000      	movs	r0, #0
}
 80010d8:	bd10      	pop	{r4, pc}
    __HAL_DMA_CLEAR_FLAG(hdma, __HAL_DMA_GET_GI_FLAG_INDEX(hdma));
 80010da:	2210      	movs	r2, #16
 80010dc:	e7ef      	b.n	80010be <HAL_DMA_Abort_IT+0x52>
 80010de:	2201      	movs	r2, #1
 80010e0:	e7ed      	b.n	80010be <HAL_DMA_Abort_IT+0x52>
 80010e2:	f44f 7280 	mov.w	r2, #256	@ 0x100
 80010e6:	e7ea      	b.n	80010be <HAL_DMA_Abort_IT+0x52>
 80010e8:	f44f 5280 	mov.w	r2, #4096	@ 0x1000
 80010ec:	e7e7      	b.n	80010be <HAL_DMA_Abort_IT+0x52>
 80010ee:	f44f 3280 	mov.w	r2, #65536	@ 0x10000
 80010f2:	e7e4      	b.n	80010be <HAL_DMA_Abort_IT+0x52>
 80010f4:	40020008 	.word	0x40020008
 80010f8:	4002001c 	.word	0x4002001c
 80010fc:	40020000 	.word	0x40020000

08001100 <HAL_DMA_IRQHandler>:
  if (((flag_it & (DMA_FLAG_HT1 << hdma->ChannelIndex)) != RESET) && ((source_it & DMA_IT_HT) != RESET))
 8001100:	2204      	movs	r2, #4
{
 8001102:	b470      	push	{r4, r5, r6}
  uint32_t flag_it = hdma->DmaBaseAddress->ISR;
 8001104:	6bc6      	ldr	r6, [r0, #60]	@ 0x3c
  if (((flag_it & (DMA_FLAG_HT1 << hdma->ChannelIndex)) != RESET) && ((source_it & DMA_IT_HT) != RESET))
 8001106:	6c01      	ldr	r1, [r0, #64]	@ 0x40
  uint32_t flag_it = hdma->DmaBaseAddress->ISR;
 8001108:	6834      	ldr	r4, [r6, #0]
  uint32_t source_it = hdma->Instance->CCR;
 800110a:	6803      	ldr	r3, [r0, #0]
  if (((flag_it & (DMA_FLAG_HT1 << hdma->ChannelIndex)) != RESET) && ((source_it & DMA_IT_HT) != RESET))
 800110c:	408a      	lsls	r2, r1
 800110e:	4222      	tst	r2, r4
  uint32_t source_it = hdma->Instance->CCR;
 8001110:	681d      	ldr	r5, [r3, #0]
  if (((flag_it & (DMA_FLAG_HT1 << hdma->ChannelIndex)) != RESET) && ((source_it & DMA_IT_HT) != RESET))
 8001112:	d01f      	beq.n	8001154 <HAL_DMA_IRQHandler+0x54>
 8001114:	076a      	lsls	r2, r5, #29
 8001116:	d51d      	bpl.n	8001154 <HAL_DMA_IRQHandler+0x54>
    if((hdma->Instance->CCR & DMA_CCR_CIRC) == 0U)
 8001118:	681a      	ldr	r2, [r3, #0]
 800111a:	0691      	lsls	r1, r2, #26
 800111c:	d403      	bmi.n	8001126 <HAL_DMA_IRQHandler+0x26>
      __HAL_DMA_DISABLE_IT(hdma, DMA_IT_HT);
 800111e:	681a      	ldr	r2, [r3, #0]
 8001120:	f022 0204 	bic.w	r2, r2, #4
 8001124:	601a      	str	r2, [r3, #0]
    __HAL_DMA_CLEAR_FLAG(hdma, __HAL_DMA_GET_HT_FLAG_INDEX(hdma));
 8001126:	4a3f      	ldr	r2, [pc, #252]	@ (8001224 <HAL_DMA_IRQHandler+0x124>)
 8001128:	4293      	cmp	r3, r2
 800112a:	d05c      	beq.n	80011e6 <HAL_DMA_IRQHandler+0xe6>
 800112c:	3214      	adds	r2, #20
 800112e:	4293      	cmp	r3, r2
 8001130:	d061      	beq.n	80011f6 <HAL_DMA_IRQHandler+0xf6>
 8001132:	3214      	adds	r2, #20
 8001134:	4293      	cmp	r3, r2
 8001136:	d068      	beq.n	800120a <HAL_DMA_IRQHandler+0x10a>
 8001138:	3214      	adds	r2, #20
 800113a:	4293      	cmp	r3, r2
 800113c:	d06b      	beq.n	8001216 <HAL_DMA_IRQHandler+0x116>
 800113e:	3214      	adds	r2, #20
 8001140:	4293      	cmp	r3, r2
 8001142:	d05d      	beq.n	8001200 <HAL_DMA_IRQHandler+0x100>
 8001144:	3214      	adds	r2, #20
 8001146:	4293      	cmp	r3, r2
 8001148:	bf14      	ite	ne
 800114a:	f04f 6280 	movne.w	r2, #67108864	@ 0x4000000
 800114e:	f44f 0280 	moveq.w	r2, #4194304	@ 0x400000
 8001152:	e049      	b.n	80011e8 <HAL_DMA_IRQHandler+0xe8>
  else if (((flag_it & (DMA_FLAG_TC1 << hdma->ChannelIndex)) != RESET) && ((source_it & DMA_IT_TC) != RESET))
 8001154:	2202      	movs	r2, #2
 8001156:	408a      	lsls	r2, r1
 8001158:	4222      	tst	r2, r4
 800115a:	d022      	beq.n	80011a2 <HAL_DMA_IRQHandler+0xa2>
 800115c:	07aa      	lsls	r2, r5, #30
 800115e:	d520      	bpl.n	80011a2 <HAL_DMA_IRQHandler+0xa2>
    if((hdma->Instance->CCR & DMA_CCR_CIRC) == 0U)
 8001160:	681a      	ldr	r2, [r3, #0]
 8001162:	0691      	lsls	r1, r2, #26
 8001164:	d406      	bmi.n	8001174 <HAL_DMA_IRQHandler+0x74>
      hdma->State = HAL_DMA_STATE_READY;
 8001166:	2101      	movs	r1, #1
      __HAL_DMA_DISABLE_IT(hdma, DMA_IT_TE | DMA_IT_TC);  
 8001168:	681a      	ldr	r2, [r3, #0]
 800116a:	f022 020a 	bic.w	r2, r2, #10
 800116e:	601a      	str	r2, [r3, #0]
      hdma->State = HAL_DMA_STATE_READY;
 8001170:	f880 1021 	strb.w	r1, [r0, #33]	@ 0x21
      __HAL_DMA_CLEAR_FLAG(hdma, __HAL_DMA_GET_TC_FLAG_INDEX(hdma));
 8001174:	4a2b      	ldr	r2, [pc, #172]	@ (8001224 <HAL_DMA_IRQHandler+0x124>)
 8001176:	4293      	cmp	r3, r2
 8001178:	d02b      	beq.n	80011d2 <HAL_DMA_IRQHandler+0xd2>
 800117a:	3214      	adds	r2, #20
 800117c:	4293      	cmp	r3, r2
 800117e:	d042      	beq.n	8001206 <HAL_DMA_IRQHandler+0x106>
 8001180:	3214      	adds	r2, #20
 8001182:	4293      	cmp	r3, r2
 8001184:	d044      	beq.n	8001210 <HAL_DMA_IRQHandler+0x110>
 8001186:	3214      	adds	r2, #20
 8001188:	4293      	cmp	r3, r2
 800118a:	d036      	beq.n	80011fa <HAL_DMA_IRQHandler+0xfa>
 800118c:	3214      	adds	r2, #20
 800118e:	4293      	cmp	r3, r2
 8001190:	d044      	beq.n	800121c <HAL_DMA_IRQHandler+0x11c>
 8001192:	3214      	adds	r2, #20
 8001194:	4293      	cmp	r3, r2
 8001196:	bf14      	ite	ne
 8001198:	f04f 7200 	movne.w	r2, #33554432	@ 0x2000000
 800119c:	f44f 1200 	moveq.w	r2, #2097152	@ 0x200000
 80011a0:	e018      	b.n	80011d4 <HAL_DMA_IRQHandler+0xd4>
  else if (( RESET != (flag_it & (DMA_FLAG_TE1 << hdma->ChannelIndex))) && (RESET != (source_it & DMA_IT_TE)))
 80011a2:	2208      	movs	r2, #8
 80011a4:	408a      	lsls	r2, r1
 80011a6:	4222      	tst	r2, r4
 80011a8:	d01b      	beq.n	80011e2 <HAL_DMA_IRQHandler+0xe2>
 80011aa:	072a      	lsls	r2, r5, #28
 80011ac:	d519      	bpl.n	80011e2 <HAL_DMA_IRQHandler+0xe2>
    __HAL_DMA_DISABLE_IT(hdma, (DMA_IT_TC | DMA_IT_HT | DMA_IT_TE));
 80011ae:	681a      	ldr	r2, [r3, #0]
    __HAL_UNLOCK(hdma);
 80011b0:	2400      	movs	r4, #0
    __HAL_DMA_DISABLE_IT(hdma, (DMA_IT_TC | DMA_IT_HT | DMA_IT_TE));
 80011b2:	f022 020e 	bic.w	r2, r2, #14
 80011b6:	601a      	str	r2, [r3, #0]
    hdma->DmaBaseAddress->IFCR = (DMA_ISR_GIF1 << hdma->ChannelIndex);
 80011b8:	2301      	movs	r3, #1
    if (hdma->XferErrorCallback != NULL)
 80011ba:	6b02      	ldr	r2, [r0, #48]	@ 0x30
    hdma->DmaBaseAddress->IFCR = (DMA_ISR_GIF1 << hdma->ChannelIndex);
 80011bc:	fa03 f101 	lsl.w	r1, r3, r1
 80011c0:	6071      	str	r1, [r6, #4]
    hdma->ErrorCode = HAL_DMA_ERROR_TE;
 80011c2:	6383      	str	r3, [r0, #56]	@ 0x38
    __HAL_UNLOCK(hdma);
 80011c4:	f880 4020 	strb.w	r4, [r0, #32]
    hdma->State = HAL_DMA_STATE_READY;
 80011c8:	f880 3021 	strb.w	r3, [r0, #33]	@ 0x21
    if (hdma->XferErrorCallback != NULL)
 80011cc:	b14a      	cbz	r2, 80011e2 <HAL_DMA_IRQHandler+0xe2>
}
 80011ce:	bc70      	pop	{r4, r5, r6}
      hdma->XferErrorCallback(hdma);
 80011d0:	4710      	bx	r2
      __HAL_DMA_CLEAR_FLAG(hdma, __HAL_DMA_GET_TC_FLAG_INDEX(hdma));
 80011d2:	2202      	movs	r2, #2
    __HAL_UNLOCK(hdma);
 80011d4:	2100      	movs	r1, #0
      __HAL_DMA_CLEAR_FLAG(hdma, __HAL_DMA_GET_TC_FLAG_INDEX(hdma));
 80011d6:	4c14      	ldr	r4, [pc, #80]	@ (8001228 <HAL_DMA_IRQHandler+0x128>)
    if(hdma->XferCpltCallback != NULL)
 80011d8:	6a83      	ldr	r3, [r0, #40]	@ 0x28
      __HAL_DMA_CLEAR_FLAG(hdma, __HAL_DMA_GET_TC_FLAG_INDEX(hdma));
 80011da:	6062      	str	r2, [r4, #4]
    __HAL_UNLOCK(hdma);
 80011dc:	f880 1020 	strb.w	r1, [r0, #32]
    if(hdma->XferCpltCallback != NULL)
 80011e0:	b93b      	cbnz	r3, 80011f2 <HAL_DMA_IRQHandler+0xf2>
}
 80011e2:	bc70      	pop	{r4, r5, r6}
 80011e4:	4770      	bx	lr
    __HAL_DMA_CLEAR_FLAG(hdma, __HAL_DMA_GET_HT_FLAG_INDEX(hdma));
 80011e6:	2204      	movs	r2, #4
 80011e8:	490f      	ldr	r1, [pc, #60]	@ (8001228 <HAL_DMA_IRQHandler+0x128>)
    if(hdma->XferHalfCpltCallback != NULL)
 80011ea:	6ac3      	ldr	r3, [r0, #44]	@ 0x2c
    __HAL_DMA_CLEAR_FLAG(hdma, __HAL_DMA_GET_HT_FLAG_INDEX(hdma));
 80011ec:	604a      	str	r2, [r1, #4]
    if(hdma->XferHalfCpltCallback != NULL)
 80011ee:	2b00      	cmp	r3, #0
 80011f0:	d0f7      	beq.n	80011e2 <HAL_DMA_IRQHandler+0xe2>
}
 80011f2:	bc70      	pop	{r4, r5, r6}
      hdma->XferCpltCallback(hdma);
 80011f4:	4718      	bx	r3
    __HAL_DMA_CLEAR_FLAG(hdma, __HAL_DMA_GET_HT_FLAG_INDEX(hdma));
 80011f6:	2240      	movs	r2, #64	@ 0x40
 80011f8:	e7f6      	b.n	80011e8 <HAL_DMA_IRQHandler+0xe8>
      __HAL_DMA_CLEAR_FLAG(hdma, __HAL_DMA_GET_TC_FLAG_INDEX(hdma));
 80011fa:	f44f 5200 	mov.w	r2, #8192	@ 0x2000
 80011fe:	e7e9      	b.n	80011d4 <HAL_DMA_IRQHandler+0xd4>
    __HAL_DMA_CLEAR_FLAG(hdma, __HAL_DMA_GET_HT_FLAG_INDEX(hdma));
 8001200:	f44f 2280 	mov.w	r2, #262144	@ 0x40000
 8001204:	e7f0      	b.n	80011e8 <HAL_DMA_IRQHandler+0xe8>
      __HAL_DMA_CLEAR_FLAG(hdma, __HAL_DMA_GET_TC_FLAG_INDEX(hdma));
 8001206:	2220      	movs	r2, #32
 8001208:	e7e4      	b.n	80011d4 <HAL_DMA_IRQHandler+0xd4>
    __HAL_DMA_CLEAR_FLAG(hdma, __HAL_DMA_GET_HT_FLAG_INDEX(hdma));
 800120a:	f44f 6280 	mov.w	r2, #1024	@ 0x400
 800120e:	e7eb      	b.n	80011e8 <HAL_DMA_IRQHandler+0xe8>
      __HAL_DMA_CLEAR_FLAG(hdma, __HAL_DMA_GET_TC_FLAG_INDEX(hdma));
 8001210:	f44f 7200 	mov.w	r2, #512	@ 0x200
 8001214:	e7de      	b.n	80011d4 <HAL_DMA_IRQHandler+0xd4>
    __HAL_DMA_CLEAR_FLAG(hdma, __HAL_DMA_GET_HT_FLAG_INDEX(hdma));
 8001216:	f44f 4280 	mov.w	r2, #16384	@ 0x4000
 800121a:	e7e5      	b.n	80011e8 <HAL_DMA_IRQHandler+0xe8>
      __HAL_DMA_CLEAR_FLAG(hdma, __HAL_DMA_GET_TC_FLAG_INDEX(hdma));
 800121c:	f44f 3200 	mov.w	r2, #131072	@ 0x20000
 8001220:	e7d8      	b.n	80011d4 <HAL_DMA_IRQHandler+0xd4>
 8001222:	bf00      	nop
 8001224:	40020008 	.word	0x40020008
 8001228:	40020000 	.word	0x40020000

0800122c <HAL_GPIO_Init>:
  * @param  GPIO_Init: pointer to a GPIO_InitTypeDef structure that contains
  *         the configuration information for the specified GPIO peripheral.
  * @retval None
  */
void HAL_GPIO_Init(GPIO_TypeDef  *GPIOx, GPIO_InitTypeDef *GPIO_Init)
{
 800122c:	e92d 4ff0 	stmdb	sp!, {r4, r5, r6, r7, r8, r9, sl, fp, lr}
  assert_param(IS_GPIO_ALL_INSTANCE(GPIOx));
  assert_param(IS_GPIO_PIN(GPIO_Init->Pin));
  assert_param(IS_GPIO_MODE(GPIO_Init->Mode));

  /* Configure the port pins */
  while (((GPIO_Init->Pin) >> position) != 0x00u)
 8001230:	680c      	ldr	r4, [r1, #0]
{
 8001232:	b085      	sub	sp, #20
  while (((GPIO_Init->Pin) >> position) != 0x00u)
 8001234:	2c00      	cmp	r4, #0
 8001236:	f000 80a4 	beq.w	8001382 <HAL_GPIO_Init+0x156>
 800123a:	2200      	movs	r2, #0
          break;
      }

      /* Check if the current bit belongs to first half or last half of the pin count number
       in order to address CRH or CRL register*/
      configregister = (iocurrent < GPIO_PIN_8) ? &GPIOx->CRL     : &GPIOx->CRH;
 800123c:	1d03      	adds	r3, r0, #4
 800123e:	9301      	str	r3, [sp, #4]
    ioposition = (0x01uL << position);
 8001240:	2501      	movs	r5, #1
      registeroffset = (iocurrent < GPIO_PIN_8) ? (position << 2u) : ((position - 8u) << 2u);

      /* Apply the new configuration of the pin to the register */
      MODIFY_REG((*configregister), ((GPIO_CRL_MODE0 | GPIO_CRL_CNF0) << registeroffset), (config << registeroffset));
 8001242:	f04f 080f 	mov.w	r8, #15
  uint32_t config = 0x00u;
 8001246:	4692      	mov	sl, r2
  uint32_t position = 0x00u;
 8001248:	4613      	mov	r3, r2
 800124a:	4681      	mov	r9, r0
      /*--------------------- EXTI Mode Configuration ------------------------*/
      /* Configure the External Interrupt or event for the current IO */
      if ((GPIO_Init->Mode & EXTI_MODE) == EXTI_MODE)
      {
        /* Enable AFIO Clock */
        __HAL_RCC_AFIO_CLK_ENABLE();
 800124c:	4f74      	ldr	r7, [pc, #464]	@ (8001420 <HAL_GPIO_Init+0x1f4>)
 800124e:	e006      	b.n	800125e <HAL_GPIO_Init+0x32>
          CLEAR_BIT(EXTI->IMR, iocurrent);
        }
      }
    }

	position++;
 8001250:	3301      	adds	r3, #1
  while (((GPIO_Init->Pin) >> position) != 0x00u)
 8001252:	fa34 f003 	lsrs.w	r0, r4, r3
 8001256:	f102 0204 	add.w	r2, r2, #4
 800125a:	f000 8092 	beq.w	8001382 <HAL_GPIO_Init+0x156>
    ioposition = (0x01uL << position);
 800125e:	fa05 f003 	lsl.w	r0, r5, r3
    if (iocurrent == ioposition)
 8001262:	ea30 0c04 	bics.w	ip, r0, r4
    iocurrent = (uint32_t)(GPIO_Init->Pin) & ioposition;
 8001266:	ea00 0604 	and.w	r6, r0, r4
    if (iocurrent == ioposition)
 800126a:	d1f1      	bne.n	8001250 <HAL_GPIO_Init+0x24>
      switch (GPIO_Init->Mode)
 800126c:	684c      	ldr	r4, [r1, #4]
 800126e:	2c12      	cmp	r4, #18
 8001270:	f200 808f 	bhi.w	8001392 <HAL_GPIO_Init+0x166>
 8001274:	2c12      	cmp	r4, #18
 8001276:	d80d      	bhi.n	8001294 <HAL_GPIO_Init+0x68>
 8001278:	e8df f004 	tbb	[pc, r4]
 800127c:	cfa90a9d 	.word	0xcfa90a9d
 8001280:	0c0c0c0c 	.word	0x0c0c0c0c
 8001284:	0c0c0c0c 	.word	0x0c0c0c0c
 8001288:	0c0c0c0c 	.word	0x0c0c0c0c
 800128c:	b10c      	.short	0xb10c
 800128e:	ad          	.byte	0xad
 800128f:	00          	.byte	0x00
          config = GPIO_Init->Speed + GPIO_CR_CNF_GP_OUTPUT_PP;
 8001290:	f8d1 a00c 	ldr.w	sl, [r1, #12]
      configregister = (iocurrent < GPIO_PIN_8) ? &GPIOx->CRL     : &GPIOx->CRH;
 8001294:	2eff      	cmp	r6, #255	@ 0xff
 8001296:	bf99      	ittee	ls
 8001298:	464c      	movls	r4, r9
      registeroffset = (iocurrent < GPIO_PIN_8) ? (position << 2u) : ((position - 8u) << 2u);
 800129a:	4694      	movls	ip, r2
      configregister = (iocurrent < GPIO_PIN_8) ? &GPIOx->CRL     : &GPIOx->CRH;
 800129c:	9c01      	ldrhi	r4, [sp, #4]
      registeroffset = (iocurrent < GPIO_PIN_8) ? (position << 2u) : ((position - 8u) << 2u);
 800129e:	f1a2 0c20 	subhi.w	ip, r2, #32
      MODIFY_REG((*configregister), ((GPIO_CRL_MODE0 | GPIO_CRL_CNF0) << registeroffset), (config << registeroffset));
 80012a2:	6820      	ldr	r0, [r4, #0]
 80012a4:	fa08 fe0c 	lsl.w	lr, r8, ip
 80012a8:	ea20 000e 	bic.w	r0, r0, lr
 80012ac:	fa0a fc0c 	lsl.w	ip, sl, ip
 80012b0:	ea40 000c 	orr.w	r0, r0, ip
 80012b4:	6020      	str	r0, [r4, #0]
      if ((GPIO_Init->Mode & EXTI_MODE) == EXTI_MODE)
 80012b6:	684c      	ldr	r4, [r1, #4]
 80012b8:	00e0      	lsls	r0, r4, #3
 80012ba:	d568      	bpl.n	800138e <HAL_GPIO_Init+0x162>
        __HAL_RCC_AFIO_CLK_ENABLE();
 80012bc:	69b8      	ldr	r0, [r7, #24]
 80012be:	f023 0c03 	bic.w	ip, r3, #3
 80012c2:	f040 0001 	orr.w	r0, r0, #1
 80012c6:	61b8      	str	r0, [r7, #24]
 80012c8:	69b8      	ldr	r0, [r7, #24]
 80012ca:	f10c 4c80 	add.w	ip, ip, #1073741824	@ 0x40000000
 80012ce:	f000 0001 	and.w	r0, r0, #1
 80012d2:	9003      	str	r0, [sp, #12]
 80012d4:	f50c 3c80 	add.w	ip, ip, #65536	@ 0x10000
        CLEAR_BIT(temp, (0x0Fu) << (4u * (position & 0x03u)));
 80012d8:	f003 0e03 	and.w	lr, r3, #3
        __HAL_RCC_AFIO_CLK_ENABLE();
 80012dc:	9803      	ldr	r0, [sp, #12]
        CLEAR_BIT(temp, (0x0Fu) << (4u * (position & 0x03u)));
 80012de:	ea4f 0e8e 	mov.w	lr, lr, lsl #2
        temp = AFIO->EXTICR[position >> 2u];
 80012e2:	f8dc 0008 	ldr.w	r0, [ip, #8]
        CLEAR_BIT(temp, (0x0Fu) << (4u * (position & 0x03u)));
 80012e6:	fa08 fb0e 	lsl.w	fp, r8, lr
 80012ea:	ea20 000b 	bic.w	r0, r0, fp
        SET_BIT(temp, (GPIO_GET_INDEX(GPIOx)) << (4u * (position & 0x03u)));
 80012ee:	f8df b134 	ldr.w	fp, [pc, #308]	@ 8001424 <HAL_GPIO_Init+0x1f8>
 80012f2:	45d9      	cmp	r9, fp
 80012f4:	d013      	beq.n	800131e <HAL_GPIO_Init+0xf2>
 80012f6:	f50b 6b80 	add.w	fp, fp, #1024	@ 0x400
 80012fa:	45d9      	cmp	r9, fp
 80012fc:	d073      	beq.n	80013e6 <HAL_GPIO_Init+0x1ba>
 80012fe:	f8df b128 	ldr.w	fp, [pc, #296]	@ 8001428 <HAL_GPIO_Init+0x1fc>
 8001302:	45d9      	cmp	r9, fp
 8001304:	d05c      	beq.n	80013c0 <HAL_GPIO_Init+0x194>
 8001306:	f8df b124 	ldr.w	fp, [pc, #292]	@ 800142c <HAL_GPIO_Init+0x200>
 800130a:	45d9      	cmp	r9, fp
 800130c:	bf0c      	ite	eq
 800130e:	f04f 0b03 	moveq.w	fp, #3
 8001312:	f04f 0b04 	movne.w	fp, #4
 8001316:	fa0b fb0e 	lsl.w	fp, fp, lr
 800131a:	ea40 000b 	orr.w	r0, r0, fp
        AFIO->EXTICR[position >> 2u] = temp;
 800131e:	f8cc 0008 	str.w	r0, [ip, #8]
          SET_BIT(EXTI->RTSR, iocurrent);
 8001322:	f8df c10c 	ldr.w	ip, [pc, #268]	@ 8001430 <HAL_GPIO_Init+0x204>
        if ((GPIO_Init->Mode & RISING_EDGE) == RISING_EDGE)
 8001326:	f414 1f80 	tst.w	r4, #1048576	@ 0x100000
          SET_BIT(EXTI->RTSR, iocurrent);
 800132a:	f8dc 0008 	ldr.w	r0, [ip, #8]
 800132e:	bf14      	ite	ne
 8001330:	4330      	orrne	r0, r6
          CLEAR_BIT(EXTI->RTSR, iocurrent);
 8001332:	43b0      	biceq	r0, r6
 8001334:	f8cc 0008 	str.w	r0, [ip, #8]
          SET_BIT(EXTI->FTSR, iocurrent);
 8001338:	f8df c0f4 	ldr.w	ip, [pc, #244]	@ 8001430 <HAL_GPIO_Init+0x204>
        if ((GPIO_Init->Mode & FALLING_EDGE) == FALLING_EDGE)
 800133c:	f414 1f00 	tst.w	r4, #2097152	@ 0x200000
          SET_BIT(EXTI->FTSR, iocurrent);
 8001340:	f8dc 000c 	ldr.w	r0, [ip, #12]
 8001344:	bf14      	ite	ne
 8001346:	4330      	orrne	r0, r6
          CLEAR_BIT(EXTI->FTSR, iocurrent);
 8001348:	43b0      	biceq	r0, r6
 800134a:	f8cc 000c 	str.w	r0, [ip, #12]
          SET_BIT(EXTI->EMR, iocurrent);
 800134e:	f8df c0e0 	ldr.w	ip, [pc, #224]	@ 8001430 <HAL_GPIO_Init+0x204>
        if ((GPIO_Init->Mode & GPIO_MODE_EVT) == GPIO_MODE_EVT)
 8001352:	f414 3f00 	tst.w	r4, #131072	@ 0x20000
          SET_BIT(EXTI->EMR, iocurrent);
 8001356:	f8dc 0004 	ldr.w	r0, [ip, #4]
 800135a:	bf14      	ite	ne
 800135c:	4330      	orrne	r0, r6
          CLEAR_BIT(EXTI->EMR, iocurrent);
 800135e:	43b0      	biceq	r0, r6
        if ((GPIO_Init->Mode & GPIO_MODE_IT) == GPIO_MODE_IT)
 8001360:	f414 3f80 	tst.w	r4, #65536	@ 0x10000
          SET_BIT(EXTI->IMR, iocurrent);
 8001364:	4c32      	ldr	r4, [pc, #200]	@ (8001430 <HAL_GPIO_Init+0x204>)
          CLEAR_BIT(EXTI->EMR, iocurrent);
 8001366:	f8cc 0004 	str.w	r0, [ip, #4]
          SET_BIT(EXTI->IMR, iocurrent);
 800136a:	6820      	ldr	r0, [r4, #0]
        if ((GPIO_Init->Mode & GPIO_MODE_IT) == GPIO_MODE_IT)
 800136c:	d00c      	beq.n	8001388 <HAL_GPIO_Init+0x15c>
          SET_BIT(EXTI->IMR, iocurrent);
 800136e:	4330      	orrs	r0, r6
 8001370:	6020      	str	r0, [r4, #0]
 8001372:	680c      	ldr	r4, [r1, #0]
	position++;
 8001374:	3301      	adds	r3, #1
  while (((GPIO_Init->Pin) >> position) != 0x00u)
 8001376:	fa34 f003 	lsrs.w	r0, r4, r3
 800137a:	f102 0204 	add.w	r2, r2, #4
 800137e:	f47f af6e 	bne.w	800125e <HAL_GPIO_Init+0x32>
  }
}
 8001382:	b005      	add	sp, #20
 8001384:	e8bd 8ff0 	ldmia.w	sp!, {r4, r5, r6, r7, r8, r9, sl, fp, pc}
          CLEAR_BIT(EXTI->IMR, iocurrent);
 8001388:	ea20 0006 	bic.w	r0, r0, r6
 800138c:	6020      	str	r0, [r4, #0]
 800138e:	680c      	ldr	r4, [r1, #0]
 8001390:	e75e      	b.n	8001250 <HAL_GPIO_Init+0x24>
      switch (GPIO_Init->Mode)
 8001392:	f8df c0a0 	ldr.w	ip, [pc, #160]	@ 8001434 <HAL_GPIO_Init+0x208>
 8001396:	4564      	cmp	r4, ip
 8001398:	d00d      	beq.n	80013b6 <HAL_GPIO_Init+0x18a>
 800139a:	d82b      	bhi.n	80013f4 <HAL_GPIO_Init+0x1c8>
 800139c:	f5ac 1c80 	sub.w	ip, ip, #1048576	@ 0x100000
 80013a0:	4564      	cmp	r4, ip
 80013a2:	d008      	beq.n	80013b6 <HAL_GPIO_Init+0x18a>
 80013a4:	f50c 2c70 	add.w	ip, ip, #983040	@ 0xf0000
 80013a8:	4564      	cmp	r4, ip
 80013aa:	d004      	beq.n	80013b6 <HAL_GPIO_Init+0x18a>
 80013ac:	f5ac 1c80 	sub.w	ip, ip, #1048576	@ 0x100000
 80013b0:	4564      	cmp	r4, ip
 80013b2:	f47f af6f 	bne.w	8001294 <HAL_GPIO_Init+0x68>
          if (GPIO_Init->Pull == GPIO_NOPULL)
 80013b6:	688c      	ldr	r4, [r1, #8]
 80013b8:	bb34      	cbnz	r4, 8001408 <HAL_GPIO_Init+0x1dc>
            config = GPIO_CR_MODE_INPUT + GPIO_CR_CNF_INPUT_FLOATING;
 80013ba:	f04f 0a04 	mov.w	sl, #4
 80013be:	e769      	b.n	8001294 <HAL_GPIO_Init+0x68>
        SET_BIT(temp, (GPIO_GET_INDEX(GPIOx)) << (4u * (position & 0x03u)));
 80013c0:	f04f 0b02 	mov.w	fp, #2
 80013c4:	fa0b fb0e 	lsl.w	fp, fp, lr
 80013c8:	ea40 000b 	orr.w	r0, r0, fp
 80013cc:	e7a7      	b.n	800131e <HAL_GPIO_Init+0xf2>
          config = GPIO_Init->Speed + GPIO_CR_CNF_AF_OUTPUT_PP;
 80013ce:	68c8      	ldr	r0, [r1, #12]
 80013d0:	f100 0a08 	add.w	sl, r0, #8
          break;
 80013d4:	e75e      	b.n	8001294 <HAL_GPIO_Init+0x68>
          config = GPIO_Init->Speed + GPIO_CR_CNF_AF_OUTPUT_OD;
 80013d6:	68c8      	ldr	r0, [r1, #12]
 80013d8:	f100 0a0c 	add.w	sl, r0, #12
          break;
 80013dc:	e75a      	b.n	8001294 <HAL_GPIO_Init+0x68>
          config = GPIO_Init->Speed + GPIO_CR_CNF_GP_OUTPUT_OD;
 80013de:	68c8      	ldr	r0, [r1, #12]
 80013e0:	f100 0a04 	add.w	sl, r0, #4
          break;
 80013e4:	e756      	b.n	8001294 <HAL_GPIO_Init+0x68>
        SET_BIT(temp, (GPIO_GET_INDEX(GPIOx)) << (4u * (position & 0x03u)));
 80013e6:	f04f 0b01 	mov.w	fp, #1
 80013ea:	fa0b fb0e 	lsl.w	fp, fp, lr
 80013ee:	ea40 000b 	orr.w	r0, r0, fp
 80013f2:	e794      	b.n	800131e <HAL_GPIO_Init+0xf2>
      switch (GPIO_Init->Mode)
 80013f4:	f8df c040 	ldr.w	ip, [pc, #64]	@ 8001438 <HAL_GPIO_Init+0x20c>
 80013f8:	4564      	cmp	r4, ip
 80013fa:	d0dc      	beq.n	80013b6 <HAL_GPIO_Init+0x18a>
 80013fc:	f50c 3c80 	add.w	ip, ip, #65536	@ 0x10000
 8001400:	4564      	cmp	r4, ip
 8001402:	f47f af47 	bne.w	8001294 <HAL_GPIO_Init+0x68>
 8001406:	e7d6      	b.n	80013b6 <HAL_GPIO_Init+0x18a>
          else if (GPIO_Init->Pull == GPIO_PULLUP)
 8001408:	2c01      	cmp	r4, #1
            config = GPIO_CR_MODE_INPUT + GPIO_CR_CNF_INPUT_PU_PD;
 800140a:	f04f 0a08 	mov.w	sl, #8
            GPIOx->BSRR = ioposition;
 800140e:	bf0c      	ite	eq
 8001410:	f8c9 0010 	streq.w	r0, [r9, #16]
            GPIOx->BRR = ioposition;
 8001414:	f8c9 0014 	strne.w	r0, [r9, #20]
 8001418:	e73c      	b.n	8001294 <HAL_GPIO_Init+0x68>
      switch (GPIO_Init->Mode)
 800141a:	f04f 0a00 	mov.w	sl, #0
 800141e:	e739      	b.n	8001294 <HAL_GPIO_Init+0x68>
 8001420:	40021000 	.word	0x40021000
 8001424:	40010800 	.word	0x40010800
 8001428:	40011000 	.word	0x40011000
 800142c:	40011400 	.word	0x40011400
 8001430:	40010400 	.word	0x40010400
 8001434:	10220000 	.word	0x10220000
 8001438:	10310000 	.word	0x10310000

0800143c <HAL_GPIO_ReadPin>:
  GPIO_PinState bitstatus;

  /* Check the parameters */
  assert_param(IS_GPIO_PIN(GPIO_Pin));

  if ((GPIOx->IDR & GPIO_Pin) != (uint32_t)GPIO_PIN_RESET)
 800143c:	6883      	ldr	r3, [r0, #8]
 800143e:	4219      	tst	r1, r3
  else
  {
    bitstatus = GPIO_PIN_RESET;
  }
  return bitstatus;
}
 8001440:	bf14      	ite	ne
 8001442:	2001      	movne	r0, #1
 8001444:	2000      	moveq	r0, #0
 8001446:	4770      	bx	lr

08001448 <HAL_GPIO_WritePin>:
{
  /* Check the parameters */
  assert_param(IS_GPIO_PIN(GPIO_Pin));
  assert_param(IS_GPIO_PIN_ACTION(PinState));

  if (PinState != GPIO_PIN_RESET)
 8001448:	b902      	cbnz	r2, 800144c <HAL_GPIO_WritePin+0x4>
  {
    GPIOx->BSRR = GPIO_Pin;
  }
  else
  {
    GPIOx->BSRR = (uint32_t)GPIO_Pin << 16u;
 800144a:	0409      	lsls	r1, r1, #16
 800144c:	6101      	str	r1, [r0, #16]
  }
}
 800144e:	4770      	bx	lr

08001450 <HAL_GPIO_EXTI_Callback>:
  /* Prevent unused argument(s) compilation warning */
  UNUSED(GPIO_Pin);
  /* NOTE: This function Should not be modified, when the callback is needed,
           the HAL_GPIO_EXTI_Callback could be implemented in the user file
   */
}
 8001450:	4770      	bx	lr
 8001452:	bf00      	nop

08001454 <HAL_GPIO_EXTI_IRQHandler>:
  if (__HAL_GPIO_EXTI_GET_IT(GPIO_Pin) != 0x00u)
 8001454:	4a04      	ldr	r2, [pc, #16]	@ (8001468 <HAL_GPIO_EXTI_IRQHandler+0x14>)
 8001456:	6951      	ldr	r1, [r2, #20]
 8001458:	4201      	tst	r1, r0
 800145a:	d100      	bne.n	800145e <HAL_GPIO_EXTI_IRQHandler+0xa>
 800145c:	4770      	bx	lr
{
 800145e:	b508      	push	{r3, lr}
    __HAL_GPIO_EXTI_CLEAR_IT(GPIO_Pin);
 8001460:	6150      	str	r0, [r2, #20]
    HAL_GPIO_EXTI_Callback(GPIO_Pin);
 8001462:	f7ff fff5 	bl	8001450 <HAL_GPIO_EXTI_Callback>
}
 8001466:	bd08      	pop	{r3, pc}
 8001468:	40010400 	.word	0x40010400

0800146c <I2C_WaitOnFlagUntilTimeout>:
  * @param  Timeout Timeout duration
  * @param  Tickstart Tick start value
  * @retval HAL status
  */
static HAL_StatusTypeDef I2C_WaitOnFlagUntilTimeout(I2C_HandleTypeDef *hi2c, uint32_t Flag, FlagStatus Status, uint32_t Timeout, uint32_t Tickstart)
{
 800146c:	e92d 43f8 	stmdb	sp!, {r3, r4, r5, r6, r7, r8, r9, lr}
 8001470:	460d      	mov	r5, r1
 8001472:	4680      	mov	r8, r0
 8001474:	4616      	mov	r6, r2
 8001476:	461f      	mov	r7, r3
  /* Wait until flag is set */
  while (__HAL_I2C_GET_FLAG(hi2c, Flag) == Status)
 8001478:	ea4f 4911 	mov.w	r9, r1, lsr #16
 800147c:	f1b9 0f01 	cmp.w	r9, #1
 8001480:	f8d8 3000 	ldr.w	r3, [r8]
 8001484:	d102      	bne.n	800148c <I2C_WaitOnFlagUntilTimeout+0x20>
 8001486:	e011      	b.n	80014ac <I2C_WaitOnFlagUntilTimeout+0x40>
  {
    /* Check for the Timeout */
    if (Timeout != HAL_MAX_DELAY)
 8001488:	1c7a      	adds	r2, r7, #1
 800148a:	d119      	bne.n	80014c0 <I2C_WaitOnFlagUntilTimeout+0x54>
  while (__HAL_I2C_GET_FLAG(hi2c, Flag) == Status)
 800148c:	699c      	ldr	r4, [r3, #24]
 800148e:	ea25 0c04 	bic.w	ip, r5, r4
 8001492:	fa1f fc8c 	uxth.w	ip, ip
 8001496:	fabc fc8c 	clz	ip, ip
 800149a:	ea4f 1c5c 	mov.w	ip, ip, lsr #5
 800149e:	4566      	cmp	r6, ip
 80014a0:	d0f2      	beq.n	8001488 <I2C_WaitOnFlagUntilTimeout+0x1c>
          return HAL_ERROR;
        }
      }
    }
  }
  return HAL_OK;
 80014a2:	2000      	movs	r0, #0
}
 80014a4:	e8bd 83f8 	ldmia.w	sp!, {r3, r4, r5, r6, r7, r8, r9, pc}
    if (Timeout != HAL_MAX_DELAY)
 80014a8:	1c79      	adds	r1, r7, #1
 80014aa:	d109      	bne.n	80014c0 <I2C_WaitOnFlagUntilTimeout+0x54>
  while (__HAL_I2C_GET_FLAG(hi2c, Flag) == Status)
 80014ac:	695c      	ldr	r4, [r3, #20]
 80014ae:	ea25 0404 	bic.w	r4, r5, r4
 80014b2:	b2a4      	uxth	r4, r4
 80014b4:	fab4 f484 	clz	r4, r4
 80014b8:	0964      	lsrs	r4, r4, #5
 80014ba:	42a6      	cmp	r6, r4
 80014bc:	d0f4      	beq.n	80014a8 <I2C_WaitOnFlagUntilTimeout+0x3c>
 80014be:	e7f0      	b.n	80014a2 <I2C_WaitOnFlagUntilTimeout+0x36>
      if (((HAL_GetTick() - Tickstart) > Timeout) || (Timeout == 0U))
 80014c0:	f7ff fa4a 	bl	8000958 <HAL_GetTick>
 80014c4:	9b08      	ldr	r3, [sp, #32]
 80014c6:	1ac0      	subs	r0, r0, r3
 80014c8:	42b8      	cmp	r0, r7
 80014ca:	d920      	bls.n	800150e <I2C_WaitOnFlagUntilTimeout+0xa2>
        if ((__HAL_I2C_GET_FLAG(hi2c, Flag) == Status))
 80014cc:	f8d8 3000 	ldr.w	r3, [r8]
 80014d0:	f1b9 0f01 	cmp.w	r9, #1
 80014d4:	bf0c      	ite	eq
 80014d6:	695b      	ldreq	r3, [r3, #20]
 80014d8:	699b      	ldrne	r3, [r3, #24]
 80014da:	ea25 0303 	bic.w	r3, r5, r3
 80014de:	b29b      	uxth	r3, r3
 80014e0:	fab3 f383 	clz	r3, r3
 80014e4:	095b      	lsrs	r3, r3, #5
 80014e6:	42b3      	cmp	r3, r6
 80014e8:	d1c8      	bne.n	800147c <I2C_WaitOnFlagUntilTimeout+0x10>
          hi2c->PreviousState     = I2C_STATE_NONE;
 80014ea:	2200      	movs	r2, #0
          hi2c->State             = HAL_I2C_STATE_READY;
 80014ec:	2320      	movs	r3, #32
          hi2c->PreviousState     = I2C_STATE_NONE;
 80014ee:	f8c8 2030 	str.w	r2, [r8, #48]	@ 0x30
          hi2c->State             = HAL_I2C_STATE_READY;
 80014f2:	f888 303d 	strb.w	r3, [r8, #61]	@ 0x3d
          hi2c->Mode              = HAL_I2C_MODE_NONE;
 80014f6:	f888 203e 	strb.w	r2, [r8, #62]	@ 0x3e
          hi2c->ErrorCode         |= HAL_I2C_ERROR_TIMEOUT;
 80014fa:	f8d8 3040 	ldr.w	r3, [r8, #64]	@ 0x40
          return HAL_ERROR;
 80014fe:	2001      	movs	r0, #1
          hi2c->ErrorCode         |= HAL_I2C_ERROR_TIMEOUT;
 8001500:	f043 0320 	orr.w	r3, r3, #32
          __HAL_UNLOCK(hi2c);
 8001504:	f888 203c 	strb.w	r2, [r8, #60]	@ 0x3c
          hi2c->ErrorCode         |= HAL_I2C_ERROR_TIMEOUT;
 8001508:	f8c8 3040 	str.w	r3, [r8, #64]	@ 0x40
          return HAL_ERROR;
 800150c:	e7ca      	b.n	80014a4 <I2C_WaitOnFlagUntilTimeout+0x38>
      if (((HAL_GetTick() - Tickstart) > Timeout) || (Timeout == 0U))
 800150e:	2f00      	cmp	r7, #0
 8001510:	d1b4      	bne.n	800147c <I2C_WaitOnFlagUntilTimeout+0x10>
 8001512:	e7db      	b.n	80014cc <I2C_WaitOnFlagUntilTimeout+0x60>

08001514 <I2C_WaitOnMasterAddressFlagUntilTimeout>:
  * @param  Timeout Timeout duration
  * @param  Tickstart Tick start value
  * @retval HAL status
  */
static HAL_StatusTypeDef I2C_WaitOnMasterAddressFlagUntilTimeout(I2C_HandleTypeDef *hi2c, uint32_t Flag, uint32_t Timeout, uint32_t Tickstart)
{
 8001514:	e92d 43f8 	stmdb	sp!, {r3, r4, r5, r6, r7, r8, r9, lr}
 8001518:	4680      	mov	r8, r0
 800151a:	460e      	mov	r6, r1
 800151c:	4617      	mov	r7, r2
 800151e:	4699      	mov	r9, r3
 8001520:	6804      	ldr	r4, [r0, #0]
  while (__HAL_I2C_GET_FLAG(hi2c, Flag) == RESET)
 8001522:	e004      	b.n	800152e <I2C_WaitOnMasterAddressFlagUntilTimeout+0x1a>
  {
    if (__HAL_I2C_GET_FLAG(hi2c, I2C_FLAG_AF) == SET)
 8001524:	6965      	ldr	r5, [r4, #20]
 8001526:	056a      	lsls	r2, r5, #21
 8001528:	d409      	bmi.n	800153e <I2C_WaitOnMasterAddressFlagUntilTimeout+0x2a>

      return HAL_ERROR;
    }

    /* Check for the Timeout */
    if (Timeout != HAL_MAX_DELAY)
 800152a:	1c7b      	adds	r3, r7, #1
 800152c:	d121      	bne.n	8001572 <I2C_WaitOnMasterAddressFlagUntilTimeout+0x5e>
  while (__HAL_I2C_GET_FLAG(hi2c, Flag) == RESET)
 800152e:	6960      	ldr	r0, [r4, #20]
 8001530:	ea26 0000 	bic.w	r0, r6, r0
 8001534:	b280      	uxth	r0, r0
 8001536:	2800      	cmp	r0, #0
 8001538:	d1f4      	bne.n	8001524 <I2C_WaitOnMasterAddressFlagUntilTimeout+0x10>
        }
      }
    }
  }
  return HAL_OK;
}
 800153a:	e8bd 83f8 	ldmia.w	sp!, {r3, r4, r5, r6, r7, r8, r9, pc}
      hi2c->PreviousState       = I2C_STATE_NONE;
 800153e:	2200      	movs	r2, #0
      __HAL_I2C_CLEAR_FLAG(hi2c, I2C_FLAG_AF);
 8001540:	f46f 6080 	mvn.w	r0, #1024	@ 0x400
      hi2c->State               = HAL_I2C_STATE_READY;
 8001544:	2120      	movs	r1, #32
      SET_BIT(hi2c->Instance->CR1, I2C_CR1_STOP);
 8001546:	6823      	ldr	r3, [r4, #0]
 8001548:	f443 7300 	orr.w	r3, r3, #512	@ 0x200
 800154c:	6023      	str	r3, [r4, #0]
      __HAL_I2C_CLEAR_FLAG(hi2c, I2C_FLAG_AF);
 800154e:	6160      	str	r0, [r4, #20]
      hi2c->PreviousState       = I2C_STATE_NONE;
 8001550:	f8c8 2030 	str.w	r2, [r8, #48]	@ 0x30
      hi2c->State               = HAL_I2C_STATE_READY;
 8001554:	f888 103d 	strb.w	r1, [r8, #61]	@ 0x3d
      hi2c->Mode                = HAL_I2C_MODE_NONE;
 8001558:	f888 203e 	strb.w	r2, [r8, #62]	@ 0x3e
      hi2c->ErrorCode           |= HAL_I2C_ERROR_AF;
 800155c:	f8d8 3040 	ldr.w	r3, [r8, #64]	@ 0x40
 8001560:	f043 0304 	orr.w	r3, r3, #4
 8001564:	f8c8 3040 	str.w	r3, [r8, #64]	@ 0x40
          __HAL_UNLOCK(hi2c);
 8001568:	2300      	movs	r3, #0
      return HAL_ERROR;
 800156a:	2001      	movs	r0, #1
          __HAL_UNLOCK(hi2c);
 800156c:	f888 303c 	strb.w	r3, [r8, #60]	@ 0x3c
 8001570:	e7e3      	b.n	800153a <I2C_WaitOnMasterAddressFlagUntilTimeout+0x26>
      if (((HAL_GetTick() - Tickstart) > Timeout) || (Timeout == 0U))
 8001572:	f7ff f9f1 	bl	8000958 <HAL_GetTick>
 8001576:	eba0 0009 	sub.w	r0, r0, r9
 800157a:	42b8      	cmp	r0, r7
        if ((__HAL_I2C_GET_FLAG(hi2c, Flag) == RESET))
 800157c:	f8d8 4000 	ldr.w	r4, [r8]
      if (((HAL_GetTick() - Tickstart) > Timeout) || (Timeout == 0U))
 8001580:	d801      	bhi.n	8001586 <I2C_WaitOnMasterAddressFlagUntilTimeout+0x72>
 8001582:	2f00      	cmp	r7, #0
 8001584:	d1d3      	bne.n	800152e <I2C_WaitOnMasterAddressFlagUntilTimeout+0x1a>
        if ((__HAL_I2C_GET_FLAG(hi2c, Flag) == RESET))
 8001586:	6963      	ldr	r3, [r4, #20]
 8001588:	ea26 0303 	bic.w	r3, r6, r3
 800158c:	b29b      	uxth	r3, r3
 800158e:	2b00      	cmp	r3, #0
 8001590:	d0cd      	beq.n	800152e <I2C_WaitOnMasterAddressFlagUntilTimeout+0x1a>
          hi2c->PreviousState       = I2C_STATE_NONE;
 8001592:	2300      	movs	r3, #0
          hi2c->State               = HAL_I2C_STATE_READY;
 8001594:	2220      	movs	r2, #32
          hi2c->PreviousState       = I2C_STATE_NONE;
 8001596:	f8c8 3030 	str.w	r3, [r8, #48]	@ 0x30
          hi2c->State               = HAL_I2C_STATE_READY;
 800159a:	f888 203d 	strb.w	r2, [r8, #61]	@ 0x3d
          hi2c->Mode                = HAL_I2C_MODE_NONE;
 800159e:	f888 303e 	strb.w	r3, [r8, #62]	@ 0x3e
          hi2c->ErrorCode           |= HAL_I2C_ERROR_TIMEOUT;
 80015a2:	f8d8 3040 	ldr.w	r3, [r8, #64]	@ 0x40
 80015a6:	4313      	orrs	r3, r2
 80015a8:	f8c8 3040 	str.w	r3, [r8, #64]	@ 0x40
          return HAL_ERROR;
 80015ac:	e7dc      	b.n	8001568 <I2C_WaitOnMasterAddressFlagUntilTimeout+0x54>
 80015ae:	bf00      	nop

080015b0 <I2C_WaitOnRXNEFlagUntilTimeout>:
  * @param  Timeout Timeout duration
  * @param  Tickstart Tick start value
  * @retval HAL status
  */
static HAL_StatusTypeDef I2C_WaitOnRXNEFlagUntilTimeout(I2C_HandleTypeDef *hi2c, uint32_t Timeout, uint32_t Tickstart)
{
 80015b0:	b5f8      	push	{r3, r4, r5, r6, r7, lr}

  while (__HAL_I2C_GET_FLAG(hi2c, I2C_FLAG_RXNE) == RESET)
 80015b2:	6803      	ldr	r3, [r0, #0]
{
 80015b4:	4617      	mov	r7, r2
  while (__HAL_I2C_GET_FLAG(hi2c, I2C_FLAG_RXNE) == RESET)
 80015b6:	695a      	ldr	r2, [r3, #20]
 80015b8:	0654      	lsls	r4, r2, #25
 80015ba:	d424      	bmi.n	8001606 <I2C_WaitOnRXNEFlagUntilTimeout+0x56>
 80015bc:	4606      	mov	r6, r0
 80015be:	460d      	mov	r5, r1
 80015c0:	e00d      	b.n	80015de <I2C_WaitOnRXNEFlagUntilTimeout+0x2e>

      return HAL_ERROR;
    }

    /* Check for the Timeout */
    if (((HAL_GetTick() - Tickstart) > Timeout) || (Timeout == 0U))
 80015c2:	f7ff f9c9 	bl	8000958 <HAL_GetTick>
 80015c6:	1bc0      	subs	r0, r0, r7
 80015c8:	42a8      	cmp	r0, r5
    {
      if ((__HAL_I2C_GET_FLAG(hi2c, I2C_FLAG_RXNE) == RESET))
 80015ca:	6833      	ldr	r3, [r6, #0]
    if (((HAL_GetTick() - Tickstart) > Timeout) || (Timeout == 0U))
 80015cc:	d800      	bhi.n	80015d0 <I2C_WaitOnRXNEFlagUntilTimeout+0x20>
 80015ce:	b91d      	cbnz	r5, 80015d8 <I2C_WaitOnRXNEFlagUntilTimeout+0x28>
      if ((__HAL_I2C_GET_FLAG(hi2c, I2C_FLAG_RXNE) == RESET))
 80015d0:	695c      	ldr	r4, [r3, #20]
 80015d2:	f014 0440 	ands.w	r4, r4, #64	@ 0x40
 80015d6:	d018      	beq.n	800160a <I2C_WaitOnRXNEFlagUntilTimeout+0x5a>
  while (__HAL_I2C_GET_FLAG(hi2c, I2C_FLAG_RXNE) == RESET)
 80015d8:	695a      	ldr	r2, [r3, #20]
 80015da:	0652      	lsls	r2, r2, #25
 80015dc:	d413      	bmi.n	8001606 <I2C_WaitOnRXNEFlagUntilTimeout+0x56>
    if (__HAL_I2C_GET_FLAG(hi2c, I2C_FLAG_STOPF) == SET)
 80015de:	695a      	ldr	r2, [r3, #20]
 80015e0:	06d1      	lsls	r1, r2, #27
 80015e2:	d5ee      	bpl.n	80015c2 <I2C_WaitOnRXNEFlagUntilTimeout+0x12>
      hi2c->PreviousState       = I2C_STATE_NONE;
 80015e4:	2200      	movs	r2, #0
      __HAL_I2C_CLEAR_FLAG(hi2c, I2C_FLAG_STOPF);
 80015e6:	f06f 0010 	mvn.w	r0, #16
      hi2c->State               = HAL_I2C_STATE_READY;
 80015ea:	2120      	movs	r1, #32
      __HAL_I2C_CLEAR_FLAG(hi2c, I2C_FLAG_STOPF);
 80015ec:	6158      	str	r0, [r3, #20]
      hi2c->PreviousState       = I2C_STATE_NONE;
 80015ee:	6332      	str	r2, [r6, #48]	@ 0x30
      hi2c->State               = HAL_I2C_STATE_READY;
 80015f0:	f886 103d 	strb.w	r1, [r6, #61]	@ 0x3d
      hi2c->Mode                = HAL_I2C_MODE_NONE;
 80015f4:	f886 203e 	strb.w	r2, [r6, #62]	@ 0x3e
      hi2c->ErrorCode           |= HAL_I2C_ERROR_NONE;
 80015f8:	6c33      	ldr	r3, [r6, #64]	@ 0x40
 80015fa:	6433      	str	r3, [r6, #64]	@ 0x40
        hi2c->State               = HAL_I2C_STATE_READY;
        hi2c->Mode                = HAL_I2C_MODE_NONE;
        hi2c->ErrorCode           |= HAL_I2C_ERROR_TIMEOUT;

        /* Process Unlocked */
        __HAL_UNLOCK(hi2c);
 80015fc:	2300      	movs	r3, #0
 80015fe:	f886 303c 	strb.w	r3, [r6, #60]	@ 0x3c
      return HAL_ERROR;
 8001602:	2001      	movs	r0, #1
        return HAL_ERROR;
      }
    }
  }
  return HAL_OK;
}
 8001604:	bdf8      	pop	{r3, r4, r5, r6, r7, pc}
  return HAL_OK;
 8001606:	2000      	movs	r0, #0
}
 8001608:	bdf8      	pop	{r3, r4, r5, r6, r7, pc}
        hi2c->State               = HAL_I2C_STATE_READY;
 800160a:	2320      	movs	r3, #32
        hi2c->PreviousState       = I2C_STATE_NONE;
 800160c:	6334      	str	r4, [r6, #48]	@ 0x30
        hi2c->State               = HAL_I2C_STATE_READY;
 800160e:	f886 303d 	strb.w	r3, [r6, #61]	@ 0x3d
        hi2c->Mode                = HAL_I2C_MODE_NONE;
 8001612:	f886 403e 	strb.w	r4, [r6, #62]	@ 0x3e
        hi2c->ErrorCode           |= HAL_I2C_ERROR_TIMEOUT;
 8001616:	6c33      	ldr	r3, [r6, #64]	@ 0x40
 8001618:	f043 0320 	orr.w	r3, r3, #32
 800161c:	6433      	str	r3, [r6, #64]	@ 0x40
        return HAL_ERROR;
 800161e:	e7ed      	b.n	80015fc <I2C_WaitOnRXNEFlagUntilTimeout+0x4c>

08001620 <I2C_WaitOnTXEFlagUntilTimeout>:
{
 8001620:	b5f8      	push	{r3, r4, r5, r6, r7, lr}
 8001622:	4605      	mov	r5, r0
 8001624:	460e      	mov	r6, r1
 8001626:	4617      	mov	r7, r2
 8001628:	6804      	ldr	r4, [r0, #0]
  while (__HAL_I2C_GET_FLAG(hi2c, I2C_FLAG_TXE) == RESET)
 800162a:	e001      	b.n	8001630 <I2C_WaitOnTXEFlagUntilTimeout+0x10>
    if (Timeout != HAL_MAX_DELAY)
 800162c:	1c73      	adds	r3, r6, #1
 800162e:	d11a      	bne.n	8001666 <I2C_WaitOnTXEFlagUntilTimeout+0x46>
  while (__HAL_I2C_GET_FLAG(hi2c, I2C_FLAG_TXE) == RESET)
 8001630:	6963      	ldr	r3, [r4, #20]
 8001632:	f013 0380 	ands.w	r3, r3, #128	@ 0x80
 8001636:	d114      	bne.n	8001662 <I2C_WaitOnTXEFlagUntilTimeout+0x42>
  *                the configuration information for the specified I2C.
  * @retval HAL status
  */
static HAL_StatusTypeDef I2C_IsAcknowledgeFailed(I2C_HandleTypeDef *hi2c)
{
  if (__HAL_I2C_GET_FLAG(hi2c, I2C_FLAG_AF) == SET)
 8001638:	6960      	ldr	r0, [r4, #20]
 800163a:	0542      	lsls	r2, r0, #21
 800163c:	d5f6      	bpl.n	800162c <I2C_WaitOnTXEFlagUntilTimeout+0xc>
  {
    /* Clear NACKF Flag */
    __HAL_I2C_CLEAR_FLAG(hi2c, I2C_FLAG_AF);
 800163e:	f46f 6180 	mvn.w	r1, #1024	@ 0x400

    hi2c->PreviousState       = I2C_STATE_NONE;
    hi2c->State               = HAL_I2C_STATE_READY;
 8001642:	2220      	movs	r2, #32
    __HAL_I2C_CLEAR_FLAG(hi2c, I2C_FLAG_AF);
 8001644:	6161      	str	r1, [r4, #20]
    hi2c->PreviousState       = I2C_STATE_NONE;
 8001646:	632b      	str	r3, [r5, #48]	@ 0x30
    hi2c->State               = HAL_I2C_STATE_READY;
 8001648:	f885 203d 	strb.w	r2, [r5, #61]	@ 0x3d
    hi2c->Mode                = HAL_I2C_MODE_NONE;
 800164c:	f885 303e 	strb.w	r3, [r5, #62]	@ 0x3e
    hi2c->ErrorCode           |= HAL_I2C_ERROR_AF;
 8001650:	6c2b      	ldr	r3, [r5, #64]	@ 0x40
 8001652:	f043 0304 	orr.w	r3, r3, #4
 8001656:	642b      	str	r3, [r5, #64]	@ 0x40
          __HAL_UNLOCK(hi2c);
 8001658:	2300      	movs	r3, #0
 800165a:	f885 303c 	strb.w	r3, [r5, #60]	@ 0x3c
      return HAL_ERROR;
 800165e:	2001      	movs	r0, #1
}
 8001660:	bdf8      	pop	{r3, r4, r5, r6, r7, pc}
  return HAL_OK;
 8001662:	2000      	movs	r0, #0
}
 8001664:	bdf8      	pop	{r3, r4, r5, r6, r7, pc}
      if (((HAL_GetTick() - Tickstart) > Timeout) || (Timeout == 0U))
 8001666:	f7ff f977 	bl	8000958 <HAL_GetTick>
 800166a:	1bc0      	subs	r0, r0, r7
 800166c:	42b0      	cmp	r0, r6
        if ((__HAL_I2C_GET_FLAG(hi2c, I2C_FLAG_TXE) == RESET))
 800166e:	682c      	ldr	r4, [r5, #0]
      if (((HAL_GetTick() - Tickstart) > Timeout) || (Timeout == 0U))
 8001670:	d801      	bhi.n	8001676 <I2C_WaitOnTXEFlagUntilTimeout+0x56>
 8001672:	2e00      	cmp	r6, #0
 8001674:	d1dc      	bne.n	8001630 <I2C_WaitOnTXEFlagUntilTimeout+0x10>
        if ((__HAL_I2C_GET_FLAG(hi2c, I2C_FLAG_TXE) == RESET))
 8001676:	6963      	ldr	r3, [r4, #20]
 8001678:	f013 0380 	ands.w	r3, r3, #128	@ 0x80
 800167c:	d1d8      	bne.n	8001630 <I2C_WaitOnTXEFlagUntilTimeout+0x10>
          hi2c->State               = HAL_I2C_STATE_READY;
 800167e:	2220      	movs	r2, #32
          hi2c->PreviousState       = I2C_STATE_NONE;
 8001680:	632b      	str	r3, [r5, #48]	@ 0x30
          hi2c->State               = HAL_I2C_STATE_READY;
 8001682:	f885 203d 	strb.w	r2, [r5, #61]	@ 0x3d
          hi2c->Mode                = HAL_I2C_MODE_NONE;
 8001686:	f885 303e 	strb.w	r3, [r5, #62]	@ 0x3e
          hi2c->ErrorCode           |= HAL_I2C_ERROR_TIMEOUT;
 800168a:	6c2b      	ldr	r3, [r5, #64]	@ 0x40
 800168c:	4313      	orrs	r3, r2
 800168e:	642b      	str	r3, [r5, #64]	@ 0x40
          return HAL_ERROR;
 8001690:	e7e2      	b.n	8001658 <I2C_WaitOnTXEFlagUntilTimeout+0x38>
 8001692:	bf00      	nop

08001694 <I2C_RequestMemoryRead>:
{
 8001694:	e92d 4ff0 	stmdb	sp!, {r4, r5, r6, r7, r8, r9, sl, fp, lr}
 8001698:	4606      	mov	r6, r0
 800169a:	460f      	mov	r7, r1
 800169c:	4691      	mov	r9, r2
  SET_BIT(hi2c->Instance->CR1, I2C_CR1_ACK);
 800169e:	6805      	ldr	r5, [r0, #0]
{
 80016a0:	469b      	mov	fp, r3
  SET_BIT(hi2c->Instance->CR1, I2C_CR1_ACK);
 80016a2:	682b      	ldr	r3, [r5, #0]
{
 80016a4:	b085      	sub	sp, #20
  SET_BIT(hi2c->Instance->CR1, I2C_CR1_ACK);
 80016a6:	f443 6380 	orr.w	r3, r3, #1024	@ 0x400
 80016aa:	602b      	str	r3, [r5, #0]
  SET_BIT(hi2c->Instance->CR1, I2C_CR1_START);
 80016ac:	682b      	ldr	r3, [r5, #0]
{
 80016ae:	e9dd 8a0e 	ldrd	r8, sl, [sp, #56]	@ 0x38
  SET_BIT(hi2c->Instance->CR1, I2C_CR1_START);
 80016b2:	f443 7380 	orr.w	r3, r3, #256	@ 0x100
 80016b6:	602b      	str	r3, [r5, #0]
  while (__HAL_I2C_GET_FLAG(hi2c, Flag) == Status)
 80016b8:	696b      	ldr	r3, [r5, #20]
 80016ba:	07da      	lsls	r2, r3, #31
 80016bc:	d405      	bmi.n	80016ca <I2C_RequestMemoryRead+0x36>
    if (Timeout != HAL_MAX_DELAY)
 80016be:	f1b8 3fff 	cmp.w	r8, #4294967295
 80016c2:	d14a      	bne.n	800175a <I2C_RequestMemoryRead+0xc6>
  while (__HAL_I2C_GET_FLAG(hi2c, Flag) == Status)
 80016c4:	696c      	ldr	r4, [r5, #20]
 80016c6:	07e4      	lsls	r4, r4, #31
 80016c8:	d5fc      	bpl.n	80016c4 <I2C_RequestMemoryRead+0x30>
  hi2c->Instance->DR = I2C_7BIT_ADD_WRITE(DevAddress);
 80016ca:	f007 03fe 	and.w	r3, r7, #254	@ 0xfe
 80016ce:	612b      	str	r3, [r5, #16]
  if (I2C_WaitOnMasterAddressFlagUntilTimeout(hi2c, I2C_FLAG_ADDR, Timeout, Tickstart) != HAL_OK)
 80016d0:	4642      	mov	r2, r8
 80016d2:	4653      	mov	r3, sl
 80016d4:	4630      	mov	r0, r6
 80016d6:	4943      	ldr	r1, [pc, #268]	@ (80017e4 <I2C_RequestMemoryRead+0x150>)
  hi2c->Instance->DR = I2C_7BIT_ADD_WRITE(DevAddress);
 80016d8:	b2ff      	uxtb	r7, r7
  if (I2C_WaitOnMasterAddressFlagUntilTimeout(hi2c, I2C_FLAG_ADDR, Timeout, Tickstart) != HAL_OK)
 80016da:	f7ff ff1b 	bl	8001514 <I2C_WaitOnMasterAddressFlagUntilTimeout>
 80016de:	2800      	cmp	r0, #0
 80016e0:	d169      	bne.n	80017b6 <I2C_RequestMemoryRead+0x122>
  __HAL_I2C_CLEAR_ADDRFLAG(hi2c);
 80016e2:	6833      	ldr	r3, [r6, #0]
 80016e4:	9003      	str	r0, [sp, #12]
 80016e6:	6959      	ldr	r1, [r3, #20]
  if (I2C_WaitOnTXEFlagUntilTimeout(hi2c, Timeout, Tickstart) != HAL_OK)
 80016e8:	4652      	mov	r2, sl
  __HAL_I2C_CLEAR_ADDRFLAG(hi2c);
 80016ea:	9103      	str	r1, [sp, #12]
 80016ec:	699b      	ldr	r3, [r3, #24]
  if (I2C_WaitOnTXEFlagUntilTimeout(hi2c, Timeout, Tickstart) != HAL_OK)
 80016ee:	4641      	mov	r1, r8
  __HAL_I2C_CLEAR_ADDRFLAG(hi2c);
 80016f0:	9303      	str	r3, [sp, #12]
  if (I2C_WaitOnTXEFlagUntilTimeout(hi2c, Timeout, Tickstart) != HAL_OK)
 80016f2:	4630      	mov	r0, r6
  __HAL_I2C_CLEAR_ADDRFLAG(hi2c);
 80016f4:	9b03      	ldr	r3, [sp, #12]
  if (I2C_WaitOnTXEFlagUntilTimeout(hi2c, Timeout, Tickstart) != HAL_OK)
 80016f6:	f7ff ff93 	bl	8001620 <I2C_WaitOnTXEFlagUntilTimeout>
 80016fa:	2800      	cmp	r0, #0
 80016fc:	d153      	bne.n	80017a6 <I2C_RequestMemoryRead+0x112>
  if (MemAddSize == I2C_MEMADD_SIZE_8BIT)
 80016fe:	f1bb 0f01 	cmp.w	fp, #1
      SET_BIT(hi2c->Instance->CR1, I2C_CR1_STOP);
 8001702:	6833      	ldr	r3, [r6, #0]
  if (MemAddSize == I2C_MEMADD_SIZE_8BIT)
 8001704:	d159      	bne.n	80017ba <I2C_RequestMemoryRead+0x126>
    hi2c->Instance->DR = I2C_MEM_ADD_LSB(MemAddress);
 8001706:	fa5f f289 	uxtb.w	r2, r9
 800170a:	611a      	str	r2, [r3, #16]
  if (I2C_WaitOnTXEFlagUntilTimeout(hi2c, Timeout, Tickstart) != HAL_OK)
 800170c:	4652      	mov	r2, sl
 800170e:	4641      	mov	r1, r8
 8001710:	4630      	mov	r0, r6
 8001712:	f7ff ff85 	bl	8001620 <I2C_WaitOnTXEFlagUntilTimeout>
 8001716:	2800      	cmp	r0, #0
 8001718:	d145      	bne.n	80017a6 <I2C_RequestMemoryRead+0x112>
  if (I2C_WaitOnFlagUntilTimeout(hi2c, I2C_FLAG_SB, RESET, Timeout, Tickstart) != HAL_OK)
 800171a:	4602      	mov	r2, r0
  SET_BIT(hi2c->Instance->CR1, I2C_CR1_START);
 800171c:	6830      	ldr	r0, [r6, #0]
  if (I2C_WaitOnFlagUntilTimeout(hi2c, I2C_FLAG_SB, RESET, Timeout, Tickstart) != HAL_OK)
 800171e:	4643      	mov	r3, r8
  SET_BIT(hi2c->Instance->CR1, I2C_CR1_START);
 8001720:	6801      	ldr	r1, [r0, #0]
 8001722:	f441 7180 	orr.w	r1, r1, #256	@ 0x100
 8001726:	6001      	str	r1, [r0, #0]
  if (I2C_WaitOnFlagUntilTimeout(hi2c, I2C_FLAG_SB, RESET, Timeout, Tickstart) != HAL_OK)
 8001728:	f04f 1101 	mov.w	r1, #65537	@ 0x10001
 800172c:	4630      	mov	r0, r6
 800172e:	f8cd a000 	str.w	sl, [sp]
 8001732:	f7ff fe9b 	bl	800146c <I2C_WaitOnFlagUntilTimeout>
 8001736:	2800      	cmp	r0, #0
 8001738:	d14e      	bne.n	80017d8 <I2C_RequestMemoryRead+0x144>
  hi2c->Instance->DR = I2C_7BIT_ADD_READ(DevAddress);
 800173a:	6831      	ldr	r1, [r6, #0]
 800173c:	f047 0701 	orr.w	r7, r7, #1
 8001740:	610f      	str	r7, [r1, #16]
  if (I2C_WaitOnMasterAddressFlagUntilTimeout(hi2c, I2C_FLAG_ADDR, Timeout, Tickstart) != HAL_OK)
 8001742:	4653      	mov	r3, sl
 8001744:	4642      	mov	r2, r8
 8001746:	4630      	mov	r0, r6
 8001748:	4926      	ldr	r1, [pc, #152]	@ (80017e4 <I2C_RequestMemoryRead+0x150>)
 800174a:	f7ff fee3 	bl	8001514 <I2C_WaitOnMasterAddressFlagUntilTimeout>
 800174e:	3800      	subs	r0, #0
 8001750:	bf18      	it	ne
 8001752:	2001      	movne	r0, #1
}
 8001754:	b005      	add	sp, #20
 8001756:	e8bd 8ff0 	ldmia.w	sp!, {r4, r5, r6, r7, r8, r9, sl, fp, pc}
      if (((HAL_GetTick() - Tickstart) > Timeout) || (Timeout == 0U))
 800175a:	f7ff f8fd 	bl	8000958 <HAL_GetTick>
 800175e:	eba0 000a 	sub.w	r0, r0, sl
 8001762:	4580      	cmp	r8, r0
        if ((__HAL_I2C_GET_FLAG(hi2c, Flag) == Status))
 8001764:	6835      	ldr	r5, [r6, #0]
      if (((HAL_GetTick() - Tickstart) > Timeout) || (Timeout == 0U))
 8001766:	d217      	bcs.n	8001798 <I2C_RequestMemoryRead+0x104>
        if ((__HAL_I2C_GET_FLAG(hi2c, Flag) == Status))
 8001768:	696b      	ldr	r3, [r5, #20]
 800176a:	07d8      	lsls	r0, r3, #31
 800176c:	d4a4      	bmi.n	80016b8 <I2C_RequestMemoryRead+0x24>
          hi2c->PreviousState     = I2C_STATE_NONE;
 800176e:	2200      	movs	r2, #0
          hi2c->State             = HAL_I2C_STATE_READY;
 8001770:	2320      	movs	r3, #32
          hi2c->PreviousState     = I2C_STATE_NONE;
 8001772:	6332      	str	r2, [r6, #48]	@ 0x30
          hi2c->State             = HAL_I2C_STATE_READY;
 8001774:	f886 303d 	strb.w	r3, [r6, #61]	@ 0x3d
          hi2c->Mode              = HAL_I2C_MODE_NONE;
 8001778:	f886 203e 	strb.w	r2, [r6, #62]	@ 0x3e
          hi2c->ErrorCode         |= HAL_I2C_ERROR_TIMEOUT;
 800177c:	6c33      	ldr	r3, [r6, #64]	@ 0x40
          __HAL_UNLOCK(hi2c);
 800177e:	f886 203c 	strb.w	r2, [r6, #60]	@ 0x3c
          hi2c->ErrorCode         |= HAL_I2C_ERROR_TIMEOUT;
 8001782:	f043 0320 	orr.w	r3, r3, #32
 8001786:	6433      	str	r3, [r6, #64]	@ 0x40
    if (READ_BIT(hi2c->Instance->CR1, I2C_CR1_START) == I2C_CR1_START)
 8001788:	682b      	ldr	r3, [r5, #0]
 800178a:	05d9      	lsls	r1, r3, #23
 800178c:	d502      	bpl.n	8001794 <I2C_RequestMemoryRead+0x100>
      hi2c->ErrorCode = HAL_I2C_WRONG_START;
 800178e:	f44f 7300 	mov.w	r3, #512	@ 0x200
 8001792:	6433      	str	r3, [r6, #64]	@ 0x40
    return HAL_TIMEOUT;
 8001794:	2003      	movs	r0, #3
 8001796:	e7dd      	b.n	8001754 <I2C_RequestMemoryRead+0xc0>
      if (((HAL_GetTick() - Tickstart) > Timeout) || (Timeout == 0U))
 8001798:	f1b8 0f00 	cmp.w	r8, #0
 800179c:	d18c      	bne.n	80016b8 <I2C_RequestMemoryRead+0x24>
        if ((__HAL_I2C_GET_FLAG(hi2c, Flag) == Status))
 800179e:	696b      	ldr	r3, [r5, #20]
 80017a0:	07d8      	lsls	r0, r3, #31
 80017a2:	d489      	bmi.n	80016b8 <I2C_RequestMemoryRead+0x24>
 80017a4:	e7e3      	b.n	800176e <I2C_RequestMemoryRead+0xda>
    if (hi2c->ErrorCode == HAL_I2C_ERROR_AF)
 80017a6:	6c33      	ldr	r3, [r6, #64]	@ 0x40
 80017a8:	2b04      	cmp	r3, #4
 80017aa:	d104      	bne.n	80017b6 <I2C_RequestMemoryRead+0x122>
      SET_BIT(hi2c->Instance->CR1, I2C_CR1_STOP);
 80017ac:	6832      	ldr	r2, [r6, #0]
 80017ae:	6813      	ldr	r3, [r2, #0]
 80017b0:	f443 7300 	orr.w	r3, r3, #512	@ 0x200
 80017b4:	6013      	str	r3, [r2, #0]
    return HAL_ERROR;
 80017b6:	2001      	movs	r0, #1
 80017b8:	e7cc      	b.n	8001754 <I2C_RequestMemoryRead+0xc0>
    hi2c->Instance->DR = I2C_MEM_ADD_MSB(MemAddress);
 80017ba:	ea4f 2219 	mov.w	r2, r9, lsr #8
 80017be:	611a      	str	r2, [r3, #16]
    if (I2C_WaitOnTXEFlagUntilTimeout(hi2c, Timeout, Tickstart) != HAL_OK)
 80017c0:	4641      	mov	r1, r8
 80017c2:	4652      	mov	r2, sl
 80017c4:	4630      	mov	r0, r6
 80017c6:	f7ff ff2b 	bl	8001620 <I2C_WaitOnTXEFlagUntilTimeout>
 80017ca:	2800      	cmp	r0, #0
 80017cc:	d1eb      	bne.n	80017a6 <I2C_RequestMemoryRead+0x112>
    hi2c->Instance->DR = I2C_MEM_ADD_LSB(MemAddress);
 80017ce:	6832      	ldr	r2, [r6, #0]
 80017d0:	fa5f f389 	uxtb.w	r3, r9
 80017d4:	6113      	str	r3, [r2, #16]
 80017d6:	e799      	b.n	800170c <I2C_RequestMemoryRead+0x78>
    if (READ_BIT(hi2c->Instance->CR1, I2C_CR1_START) == I2C_CR1_START)
 80017d8:	6833      	ldr	r3, [r6, #0]
 80017da:	681b      	ldr	r3, [r3, #0]
 80017dc:	05db      	lsls	r3, r3, #23
 80017de:	d5d9      	bpl.n	8001794 <I2C_RequestMemoryRead+0x100>
 80017e0:	e7d5      	b.n	800178e <I2C_RequestMemoryRead+0xfa>
 80017e2:	bf00      	nop
 80017e4:	00010002 	.word	0x00010002

080017e8 <HAL_I2C_Init>:
  if (hi2c == NULL)
 80017e8:	2800      	cmp	r0, #0
 80017ea:	f000 80b6 	beq.w	800195a <HAL_I2C_Init+0x172>
{
 80017ee:	b538      	push	{r3, r4, r5, lr}
  if (hi2c->State == HAL_I2C_STATE_RESET)
 80017f0:	f890 303d 	ldrb.w	r3, [r0, #61]	@ 0x3d
 80017f4:	4604      	mov	r4, r0
 80017f6:	f003 02ff 	and.w	r2, r3, #255	@ 0xff
 80017fa:	2b00      	cmp	r3, #0
 80017fc:	f000 8096 	beq.w	800192c <HAL_I2C_Init+0x144>
  hi2c->State = HAL_I2C_STATE_BUSY;
 8001800:	2224      	movs	r2, #36	@ 0x24
  __HAL_I2C_DISABLE(hi2c);
 8001802:	6823      	ldr	r3, [r4, #0]
  hi2c->State = HAL_I2C_STATE_BUSY;
 8001804:	f884 203d 	strb.w	r2, [r4, #61]	@ 0x3d
  __HAL_I2C_DISABLE(hi2c);
 8001808:	681a      	ldr	r2, [r3, #0]
 800180a:	f022 0201 	bic.w	r2, r2, #1
 800180e:	601a      	str	r2, [r3, #0]
  hi2c->Instance->CR1 |= I2C_CR1_SWRST;
 8001810:	681a      	ldr	r2, [r3, #0]
 8001812:	f442 4200 	orr.w	r2, r2, #32768	@ 0x8000
 8001816:	601a      	str	r2, [r3, #0]
  hi2c->Instance->CR1 &= ~I2C_CR1_SWRST;
 8001818:	681a      	ldr	r2, [r3, #0]
 800181a:	f422 4200 	bic.w	r2, r2, #32768	@ 0x8000
 800181e:	601a      	str	r2, [r3, #0]
  pclk1 = HAL_RCC_GetPCLK1Freq();
 8001820:	f000 fcd4 	bl	80021cc <HAL_RCC_GetPCLK1Freq>
  if (I2C_MIN_PCLK_FREQ(pclk1, hi2c->Init.ClockSpeed) == 1U)
 8001824:	4a4e      	ldr	r2, [pc, #312]	@ (8001960 <HAL_I2C_Init+0x178>)
 8001826:	6863      	ldr	r3, [r4, #4]
 8001828:	4293      	cmp	r3, r2
 800182a:	d84d      	bhi.n	80018c8 <HAL_I2C_Init+0xe0>
 800182c:	4a4d      	ldr	r2, [pc, #308]	@ (8001964 <HAL_I2C_Init+0x17c>)
 800182e:	4290      	cmp	r0, r2
 8001830:	d97a      	bls.n	8001928 <HAL_I2C_Init+0x140>
  freqrange = I2C_FREQRANGE(pclk1);
 8001832:	4d4d      	ldr	r5, [pc, #308]	@ (8001968 <HAL_I2C_Init+0x180>)
  MODIFY_REG(hi2c->Instance->CCR, (I2C_CCR_FS | I2C_CCR_DUTY | I2C_CCR_CCR), I2C_SPEED(pclk1, hi2c->Init.ClockSpeed, hi2c->Init.DutyCycle));
 8001834:	005a      	lsls	r2, r3, #1
  freqrange = I2C_FREQRANGE(pclk1);
 8001836:	fba5 3500 	umull	r3, r5, r5, r0
  MODIFY_REG(hi2c->Instance->CCR, (I2C_CCR_FS | I2C_CCR_DUTY | I2C_CCR_CCR), I2C_SPEED(pclk1, hi2c->Init.ClockSpeed, hi2c->Init.DutyCycle));
 800183a:	1e43      	subs	r3, r0, #1
 800183c:	fbb3 f3f2 	udiv	r3, r3, r2
 8001840:	f640 7cfc 	movw	ip, #4092	@ 0xffc
  MODIFY_REG(hi2c->Instance->CR2, I2C_CR2_FREQ, freqrange);
 8001844:	6822      	ldr	r2, [r4, #0]
  freqrange = I2C_FREQRANGE(pclk1);
 8001846:	0ca8      	lsrs	r0, r5, #18
  MODIFY_REG(hi2c->Instance->CR2, I2C_CR2_FREQ, freqrange);
 8001848:	6851      	ldr	r1, [r2, #4]
  MODIFY_REG(hi2c->Instance->TRISE, I2C_TRISE_TRISE, I2C_RISE_TIME(freqrange, hi2c->Init.ClockSpeed));
 800184a:	3001      	adds	r0, #1
  MODIFY_REG(hi2c->Instance->CR2, I2C_CR2_FREQ, freqrange);
 800184c:	f021 013f 	bic.w	r1, r1, #63	@ 0x3f
 8001850:	ea41 4195 	orr.w	r1, r1, r5, lsr #18
 8001854:	6051      	str	r1, [r2, #4]
  MODIFY_REG(hi2c->Instance->TRISE, I2C_TRISE_TRISE, I2C_RISE_TIME(freqrange, hi2c->Init.ClockSpeed));
 8001856:	6a11      	ldr	r1, [r2, #32]
  MODIFY_REG(hi2c->Instance->CCR, (I2C_CCR_FS | I2C_CCR_DUTY | I2C_CCR_CCR), I2C_SPEED(pclk1, hi2c->Init.ClockSpeed, hi2c->Init.DutyCycle));
 8001858:	3301      	adds	r3, #1
  MODIFY_REG(hi2c->Instance->TRISE, I2C_TRISE_TRISE, I2C_RISE_TIME(freqrange, hi2c->Init.ClockSpeed));
 800185a:	f021 013f 	bic.w	r1, r1, #63	@ 0x3f
 800185e:	4301      	orrs	r1, r0
 8001860:	6211      	str	r1, [r2, #32]
  MODIFY_REG(hi2c->Instance->CCR, (I2C_CCR_FS | I2C_CCR_DUTY | I2C_CCR_CCR), I2C_SPEED(pclk1, hi2c->Init.ClockSpeed, hi2c->Init.DutyCycle));
 8001862:	69d1      	ldr	r1, [r2, #28]
 8001864:	ea13 0f0c 	tst.w	r3, ip
 8001868:	f421 414f 	bic.w	r1, r1, #52992	@ 0xcf00
 800186c:	f021 01ff 	bic.w	r1, r1, #255	@ 0xff
 8001870:	d161      	bne.n	8001936 <HAL_I2C_Init+0x14e>
 8001872:	2304      	movs	r3, #4
 8001874:	430b      	orrs	r3, r1
 8001876:	61d3      	str	r3, [r2, #28]
  MODIFY_REG(hi2c->Instance->CR1, (I2C_CR1_ENGC | I2C_CR1_NOSTRETCH), (hi2c->Init.GeneralCallMode | hi2c->Init.NoStretchMode));
 8001878:	6811      	ldr	r1, [r2, #0]
 800187a:	e9d4 3007 	ldrd	r3, r0, [r4, #28]
 800187e:	f021 01c0 	bic.w	r1, r1, #192	@ 0xc0
 8001882:	4303      	orrs	r3, r0
 8001884:	430b      	orrs	r3, r1
 8001886:	6013      	str	r3, [r2, #0]
  MODIFY_REG(hi2c->Instance->OAR1, (I2C_OAR1_ADDMODE | I2C_OAR1_ADD8_9 | I2C_OAR1_ADD1_7 | I2C_OAR1_ADD0), (hi2c->Init.AddressingMode | hi2c->Init.OwnAddress1));
 8001888:	6891      	ldr	r1, [r2, #8]
 800188a:	e9d4 0303 	ldrd	r0, r3, [r4, #12]
 800188e:	f421 4103 	bic.w	r1, r1, #33536	@ 0x8300
 8001892:	4303      	orrs	r3, r0
 8001894:	f021 01ff 	bic.w	r1, r1, #255	@ 0xff
 8001898:	430b      	orrs	r3, r1
 800189a:	6093      	str	r3, [r2, #8]
  MODIFY_REG(hi2c->Instance->OAR2, (I2C_OAR2_ENDUAL | I2C_OAR2_ADD2), (hi2c->Init.DualAddressMode | hi2c->Init.OwnAddress2));
 800189c:	68d0      	ldr	r0, [r2, #12]
 800189e:	e9d4 3105 	ldrd	r3, r1, [r4, #20]
 80018a2:	f020 00ff 	bic.w	r0, r0, #255	@ 0xff
 80018a6:	430b      	orrs	r3, r1
 80018a8:	4303      	orrs	r3, r0
 80018aa:	60d3      	str	r3, [r2, #12]
  __HAL_I2C_ENABLE(hi2c);
 80018ac:	6813      	ldr	r3, [r2, #0]
  hi2c->ErrorCode = HAL_I2C_ERROR_NONE;
 80018ae:	2100      	movs	r1, #0
  __HAL_I2C_ENABLE(hi2c);
 80018b0:	f043 0301 	orr.w	r3, r3, #1
 80018b4:	6013      	str	r3, [r2, #0]
  hi2c->State = HAL_I2C_STATE_READY;
 80018b6:	2320      	movs	r3, #32
  hi2c->ErrorCode = HAL_I2C_ERROR_NONE;
 80018b8:	6421      	str	r1, [r4, #64]	@ 0x40
  hi2c->State = HAL_I2C_STATE_READY;
 80018ba:	f884 303d 	strb.w	r3, [r4, #61]	@ 0x3d
  hi2c->PreviousState = I2C_STATE_NONE;
 80018be:	6321      	str	r1, [r4, #48]	@ 0x30
  hi2c->Mode = HAL_I2C_MODE_NONE;
 80018c0:	f884 103e 	strb.w	r1, [r4, #62]	@ 0x3e
  return HAL_OK;
 80018c4:	4608      	mov	r0, r1
}
 80018c6:	bd38      	pop	{r3, r4, r5, pc}
  if (I2C_MIN_PCLK_FREQ(pclk1, hi2c->Init.ClockSpeed) == 1U)
 80018c8:	4a28      	ldr	r2, [pc, #160]	@ (800196c <HAL_I2C_Init+0x184>)
 80018ca:	4290      	cmp	r0, r2
 80018cc:	d92c      	bls.n	8001928 <HAL_I2C_Init+0x140>
  freqrange = I2C_FREQRANGE(pclk1);
 80018ce:	4a26      	ldr	r2, [pc, #152]	@ (8001968 <HAL_I2C_Init+0x180>)
  MODIFY_REG(hi2c->Instance->TRISE, I2C_TRISE_TRISE, I2C_RISE_TIME(freqrange, hi2c->Init.ClockSpeed));
 80018d0:	4d27      	ldr	r5, [pc, #156]	@ (8001970 <HAL_I2C_Init+0x188>)
  freqrange = I2C_FREQRANGE(pclk1);
 80018d2:	fba2 2c00 	umull	r2, ip, r2, r0
  MODIFY_REG(hi2c->Instance->TRISE, I2C_TRISE_TRISE, I2C_RISE_TIME(freqrange, hi2c->Init.ClockSpeed));
 80018d6:	f44f 7296 	mov.w	r2, #300	@ 0x12c
  freqrange = I2C_FREQRANGE(pclk1);
 80018da:	ea4f 419c 	mov.w	r1, ip, lsr #18
  MODIFY_REG(hi2c->Instance->TRISE, I2C_TRISE_TRISE, I2C_RISE_TIME(freqrange, hi2c->Init.ClockSpeed));
 80018de:	fb02 f101 	mul.w	r1, r2, r1
  MODIFY_REG(hi2c->Instance->CR2, I2C_CR2_FREQ, freqrange);
 80018e2:	6822      	ldr	r2, [r4, #0]
  MODIFY_REG(hi2c->Instance->TRISE, I2C_TRISE_TRISE, I2C_RISE_TIME(freqrange, hi2c->Init.ClockSpeed));
 80018e4:	fba5 5101 	umull	r5, r1, r5, r1
  MODIFY_REG(hi2c->Instance->CR2, I2C_CR2_FREQ, freqrange);
 80018e8:	6855      	ldr	r5, [r2, #4]
  MODIFY_REG(hi2c->Instance->TRISE, I2C_TRISE_TRISE, I2C_RISE_TIME(freqrange, hi2c->Init.ClockSpeed));
 80018ea:	0989      	lsrs	r1, r1, #6
  MODIFY_REG(hi2c->Instance->CR2, I2C_CR2_FREQ, freqrange);
 80018ec:	f025 053f 	bic.w	r5, r5, #63	@ 0x3f
 80018f0:	ea45 459c 	orr.w	r5, r5, ip, lsr #18
 80018f4:	6055      	str	r5, [r2, #4]
  MODIFY_REG(hi2c->Instance->TRISE, I2C_TRISE_TRISE, I2C_RISE_TIME(freqrange, hi2c->Init.ClockSpeed));
 80018f6:	6a15      	ldr	r5, [r2, #32]
 80018f8:	3101      	adds	r1, #1
 80018fa:	f025 053f 	bic.w	r5, r5, #63	@ 0x3f
 80018fe:	4329      	orrs	r1, r5
 8001900:	6211      	str	r1, [r2, #32]
  MODIFY_REG(hi2c->Instance->CCR, (I2C_CCR_FS | I2C_CCR_DUTY | I2C_CCR_CCR), I2C_SPEED(pclk1, hi2c->Init.ClockSpeed, hi2c->Init.DutyCycle));
 8001902:	69d1      	ldr	r1, [r2, #28]
 8001904:	68a5      	ldr	r5, [r4, #8]
 8001906:	f421 414f 	bic.w	r1, r1, #52992	@ 0xcf00
 800190a:	3801      	subs	r0, #1
 800190c:	f021 01ff 	bic.w	r1, r1, #255	@ 0xff
 8001910:	b9a5      	cbnz	r5, 800193c <HAL_I2C_Init+0x154>
 8001912:	eb03 0343 	add.w	r3, r3, r3, lsl #1
 8001916:	fbb0 f3f3 	udiv	r3, r0, r3
 800191a:	3301      	adds	r3, #1
 800191c:	f3c3 030b 	ubfx	r3, r3, #0, #12
 8001920:	b1cb      	cbz	r3, 8001956 <HAL_I2C_Init+0x16e>
 8001922:	f443 4300 	orr.w	r3, r3, #32768	@ 0x8000
 8001926:	e7a5      	b.n	8001874 <HAL_I2C_Init+0x8c>
    return HAL_ERROR;
 8001928:	2001      	movs	r0, #1
}
 800192a:	bd38      	pop	{r3, r4, r5, pc}
    hi2c->Lock = HAL_UNLOCKED;
 800192c:	f880 203c 	strb.w	r2, [r0, #60]	@ 0x3c
    HAL_I2C_MspInit(hi2c);
 8001930:	f7fe fd5a 	bl	80003e8 <HAL_I2C_MspInit>
 8001934:	e764      	b.n	8001800 <HAL_I2C_Init+0x18>
  MODIFY_REG(hi2c->Instance->CCR, (I2C_CCR_FS | I2C_CCR_DUTY | I2C_CCR_CCR), I2C_SPEED(pclk1, hi2c->Init.ClockSpeed, hi2c->Init.DutyCycle));
 8001936:	f3c3 030b 	ubfx	r3, r3, #0, #12
 800193a:	e79b      	b.n	8001874 <HAL_I2C_Init+0x8c>
 800193c:	eb03 0383 	add.w	r3, r3, r3, lsl #2
 8001940:	eb03 0383 	add.w	r3, r3, r3, lsl #2
 8001944:	fbb0 f3f3 	udiv	r3, r0, r3
 8001948:	3301      	adds	r3, #1
 800194a:	f3c3 030b 	ubfx	r3, r3, #0, #12
 800194e:	b113      	cbz	r3, 8001956 <HAL_I2C_Init+0x16e>
 8001950:	f443 4340 	orr.w	r3, r3, #49152	@ 0xc000
 8001954:	e78e      	b.n	8001874 <HAL_I2C_Init+0x8c>
 8001956:	2301      	movs	r3, #1
 8001958:	e78c      	b.n	8001874 <HAL_I2C_Init+0x8c>
    return HAL_ERROR;
 800195a:	2001      	movs	r0, #1
}
 800195c:	4770      	bx	lr
 800195e:	bf00      	nop
 8001960:	000186a0 	.word	0x000186a0
 8001964:	001e847f 	.word	0x001e847f
 8001968:	431bde83 	.word	0x431bde83
 800196c:	003d08ff 	.word	0x003d08ff
 8001970:	10624dd3 	.word	0x10624dd3

08001974 <HAL_I2C_Mem_Read>:
{
 8001974:	e92d 47f0 	stmdb	sp!, {r4, r5, r6, r7, r8, r9, sl, lr}
  __IO uint32_t count = 0U;
 8001978:	2400      	movs	r4, #0
{
 800197a:	b088      	sub	sp, #32
  __IO uint32_t count = 0U;
 800197c:	9403      	str	r4, [sp, #12]
{
 800197e:	4604      	mov	r4, r0
 8001980:	4699      	mov	r9, r3
 8001982:	460e      	mov	r6, r1
 8001984:	4690      	mov	r8, r2
 8001986:	f8bd a044 	ldrh.w	sl, [sp, #68]	@ 0x44
 800198a:	9f12      	ldr	r7, [sp, #72]	@ 0x48
  uint32_t tickstart = HAL_GetTick();
 800198c:	f7fe ffe4 	bl	8000958 <HAL_GetTick>
  if (hi2c->State == HAL_I2C_STATE_READY)
 8001990:	f894 303d 	ldrb.w	r3, [r4, #61]	@ 0x3d
 8001994:	2b20      	cmp	r3, #32
 8001996:	d004      	beq.n	80019a2 <HAL_I2C_Mem_Read+0x2e>
      return HAL_BUSY;
 8001998:	2602      	movs	r6, #2
}
 800199a:	4630      	mov	r0, r6
 800199c:	b008      	add	sp, #32
 800199e:	e8bd 87f0 	ldmia.w	sp!, {r4, r5, r6, r7, r8, r9, sl, pc}
    if (I2C_WaitOnFlagUntilTimeout(hi2c, I2C_FLAG_BUSY, SET, I2C_TIMEOUT_BUSY_FLAG, tickstart) != HAL_OK)
 80019a2:	4605      	mov	r5, r0
 80019a4:	9000      	str	r0, [sp, #0]
 80019a6:	2319      	movs	r3, #25
 80019a8:	2201      	movs	r2, #1
 80019aa:	4620      	mov	r0, r4
 80019ac:	499f      	ldr	r1, [pc, #636]	@ (8001c2c <HAL_I2C_Mem_Read+0x2b8>)
 80019ae:	f7ff fd5d 	bl	800146c <I2C_WaitOnFlagUntilTimeout>
 80019b2:	2800      	cmp	r0, #0
 80019b4:	d1f0      	bne.n	8001998 <HAL_I2C_Mem_Read+0x24>
    __HAL_LOCK(hi2c);
 80019b6:	f894 303c 	ldrb.w	r3, [r4, #60]	@ 0x3c
 80019ba:	2b01      	cmp	r3, #1
 80019bc:	d0ec      	beq.n	8001998 <HAL_I2C_Mem_Read+0x24>
 80019be:	2301      	movs	r3, #1
    if ((hi2c->Instance->CR1 & I2C_CR1_PE) != I2C_CR1_PE)
 80019c0:	6820      	ldr	r0, [r4, #0]
    __HAL_LOCK(hi2c);
 80019c2:	f884 303c 	strb.w	r3, [r4, #60]	@ 0x3c
    if ((hi2c->Instance->CR1 & I2C_CR1_PE) != I2C_CR1_PE)
 80019c6:	6803      	ldr	r3, [r0, #0]
 80019c8:	07d9      	lsls	r1, r3, #31
 80019ca:	d539      	bpl.n	8001a40 <HAL_I2C_Mem_Read+0xcc>
    if (I2C_RequestMemoryRead(hi2c, DevAddress, MemAddress, MemAddSize, Timeout, tickstart) != HAL_OK)
 80019cc:	4642      	mov	r2, r8
    hi2c->Mode      = HAL_I2C_MODE_MEM;
 80019ce:	f04f 0e40 	mov.w	lr, #64	@ 0x40
    hi2c->ErrorCode = HAL_I2C_ERROR_NONE;
 80019d2:	f04f 0c00 	mov.w	ip, #0
    hi2c->State     = HAL_I2C_STATE_BUSY_RX;
 80019d6:	f04f 0822 	mov.w	r8, #34	@ 0x22
    if (I2C_RequestMemoryRead(hi2c, DevAddress, MemAddress, MemAddSize, Timeout, tickstart) != HAL_OK)
 80019da:	4631      	mov	r1, r6
    CLEAR_BIT(hi2c->Instance->CR1, I2C_CR1_POS);
 80019dc:	6806      	ldr	r6, [r0, #0]
    if (I2C_RequestMemoryRead(hi2c, DevAddress, MemAddress, MemAddSize, Timeout, tickstart) != HAL_OK)
 80019de:	464b      	mov	r3, r9
    CLEAR_BIT(hi2c->Instance->CR1, I2C_CR1_POS);
 80019e0:	f426 6600 	bic.w	r6, r6, #2048	@ 0x800
 80019e4:	6006      	str	r6, [r0, #0]
    hi2c->pBuffPtr    = pData;
 80019e6:	9810      	ldr	r0, [sp, #64]	@ 0x40
 80019e8:	6260      	str	r0, [r4, #36]	@ 0x24
    if (I2C_RequestMemoryRead(hi2c, DevAddress, MemAddress, MemAddSize, Timeout, tickstart) != HAL_OK)
 80019ea:	e9cd 7500 	strd	r7, r5, [sp]
    hi2c->State     = HAL_I2C_STATE_BUSY_RX;
 80019ee:	f884 803d 	strb.w	r8, [r4, #61]	@ 0x3d
    hi2c->Mode      = HAL_I2C_MODE_MEM;
 80019f2:	f884 e03e 	strb.w	lr, [r4, #62]	@ 0x3e
    hi2c->ErrorCode = HAL_I2C_ERROR_NONE;
 80019f6:	f8c4 c040 	str.w	ip, [r4, #64]	@ 0x40
    hi2c->XferCount   = Size;
 80019fa:	f8a4 a02a 	strh.w	sl, [r4, #42]	@ 0x2a
    hi2c->XferSize    = hi2c->XferCount;
 80019fe:	8d60      	ldrh	r0, [r4, #42]	@ 0x2a
 8001a00:	8520      	strh	r0, [r4, #40]	@ 0x28
    hi2c->XferOptions = I2C_NO_OPTION_FRAME;
 8001a02:	488b      	ldr	r0, [pc, #556]	@ (8001c30 <HAL_I2C_Mem_Read+0x2bc>)
 8001a04:	62e0      	str	r0, [r4, #44]	@ 0x2c
    if (I2C_RequestMemoryRead(hi2c, DevAddress, MemAddress, MemAddSize, Timeout, tickstart) != HAL_OK)
 8001a06:	4620      	mov	r0, r4
 8001a08:	f7ff fe44 	bl	8001694 <I2C_RequestMemoryRead>
 8001a0c:	4606      	mov	r6, r0
 8001a0e:	2800      	cmp	r0, #0
 8001a10:	f040 80ca 	bne.w	8001ba8 <HAL_I2C_Mem_Read+0x234>
    if (hi2c->XferSize == 0U)
 8001a14:	8d23      	ldrh	r3, [r4, #40]	@ 0x28
      __HAL_I2C_CLEAR_ADDRFLAG(hi2c);
 8001a16:	6822      	ldr	r2, [r4, #0]
    if (hi2c->XferSize == 0U)
 8001a18:	b9bb      	cbnz	r3, 8001a4a <HAL_I2C_Mem_Read+0xd6>
      __HAL_I2C_CLEAR_ADDRFLAG(hi2c);
 8001a1a:	9004      	str	r0, [sp, #16]
 8001a1c:	6953      	ldr	r3, [r2, #20]
 8001a1e:	9304      	str	r3, [sp, #16]
 8001a20:	6993      	ldr	r3, [r2, #24]
 8001a22:	9304      	str	r3, [sp, #16]
 8001a24:	9b04      	ldr	r3, [sp, #16]
      SET_BIT(hi2c->Instance->CR1, I2C_CR1_STOP);
 8001a26:	6813      	ldr	r3, [r2, #0]
 8001a28:	f443 7300 	orr.w	r3, r3, #512	@ 0x200
 8001a2c:	6013      	str	r3, [r2, #0]
    hi2c->Mode = HAL_I2C_MODE_NONE;
 8001a2e:	2300      	movs	r3, #0
    hi2c->State = HAL_I2C_STATE_READY;
 8001a30:	2220      	movs	r2, #32
    __HAL_UNLOCK(hi2c);
 8001a32:	f884 303c 	strb.w	r3, [r4, #60]	@ 0x3c
    hi2c->State = HAL_I2C_STATE_READY;
 8001a36:	f884 203d 	strb.w	r2, [r4, #61]	@ 0x3d
    hi2c->Mode = HAL_I2C_MODE_NONE;
 8001a3a:	f884 303e 	strb.w	r3, [r4, #62]	@ 0x3e
    return HAL_OK;
 8001a3e:	e7ac      	b.n	800199a <HAL_I2C_Mem_Read+0x26>
      __HAL_I2C_ENABLE(hi2c);
 8001a40:	6803      	ldr	r3, [r0, #0]
 8001a42:	f043 0301 	orr.w	r3, r3, #1
 8001a46:	6003      	str	r3, [r0, #0]
 8001a48:	e7c0      	b.n	80019cc <HAL_I2C_Mem_Read+0x58>
    else if (hi2c->XferSize == 1U)
 8001a4a:	2b01      	cmp	r3, #1
 8001a4c:	f000 80d7 	beq.w	8001bfe <HAL_I2C_Mem_Read+0x28a>
    else if (hi2c->XferSize == 2U)
 8001a50:	2b02      	cmp	r3, #2
 8001a52:	f000 80ae 	beq.w	8001bb2 <HAL_I2C_Mem_Read+0x23e>
      SET_BIT(hi2c->Instance->CR1, I2C_CR1_ACK);
 8001a56:	6811      	ldr	r1, [r2, #0]
 8001a58:	f441 6180 	orr.w	r1, r1, #1024	@ 0x400
 8001a5c:	6011      	str	r1, [r2, #0]
      __HAL_I2C_CLEAR_ADDRFLAG(hi2c);
 8001a5e:	9007      	str	r0, [sp, #28]
 8001a60:	6951      	ldr	r1, [r2, #20]
 8001a62:	9107      	str	r1, [sp, #28]
 8001a64:	6992      	ldr	r2, [r2, #24]
 8001a66:	9207      	str	r2, [sp, #28]
 8001a68:	9a07      	ldr	r2, [sp, #28]
      if (hi2c->XferSize <= 3U)
 8001a6a:	2b03      	cmp	r3, #3
          if (I2C_WaitOnFlagUntilTimeout(hi2c, I2C_FLAG_BTF, RESET, Timeout, tickstart) != HAL_OK)
 8001a6c:	f8df 81c4 	ldr.w	r8, [pc, #452]	@ 8001c34 <HAL_I2C_Mem_Read+0x2c0>
          count = I2C_TIMEOUT_FLAG * (SystemCoreClock / 25U / 1000U);
 8001a70:	f8df a1c4 	ldr.w	sl, [pc, #452]	@ 8001c38 <HAL_I2C_Mem_Read+0x2c4>
 8001a74:	f8df 91c4 	ldr.w	r9, [pc, #452]	@ 8001c3c <HAL_I2C_Mem_Read+0x2c8>
      if (hi2c->XferSize <= 3U)
 8001a78:	d836      	bhi.n	8001ae8 <HAL_I2C_Mem_Read+0x174>
        if (hi2c->XferSize == 1U)
 8001a7a:	2b01      	cmp	r3, #1
 8001a7c:	f000 80af 	beq.w	8001bde <HAL_I2C_Mem_Read+0x26a>
        else if (hi2c->XferSize == 2U)
 8001a80:	2b02      	cmp	r3, #2
          if (I2C_WaitOnFlagUntilTimeout(hi2c, I2C_FLAG_BTF, RESET, Timeout, tickstart) != HAL_OK)
 8001a82:	f04f 0200 	mov.w	r2, #0
 8001a86:	463b      	mov	r3, r7
 8001a88:	4641      	mov	r1, r8
 8001a8a:	4620      	mov	r0, r4
 8001a8c:	9500      	str	r5, [sp, #0]
        else if (hi2c->XferSize == 2U)
 8001a8e:	d150      	bne.n	8001b32 <HAL_I2C_Mem_Read+0x1be>
          if (I2C_WaitOnFlagUntilTimeout(hi2c, I2C_FLAG_BTF, RESET, Timeout, tickstart) != HAL_OK)
 8001a90:	f7ff fcec 	bl	800146c <I2C_WaitOnFlagUntilTimeout>
 8001a94:	2800      	cmp	r0, #0
 8001a96:	f040 8087 	bne.w	8001ba8 <HAL_I2C_Mem_Read+0x234>
 8001a9a:	b672      	cpsid	i
          SET_BIT(hi2c->Instance->CR1, I2C_CR1_STOP);
 8001a9c:	6823      	ldr	r3, [r4, #0]
          *hi2c->pBuffPtr = (uint8_t)hi2c->Instance->DR;
 8001a9e:	6a61      	ldr	r1, [r4, #36]	@ 0x24
          SET_BIT(hi2c->Instance->CR1, I2C_CR1_STOP);
 8001aa0:	681a      	ldr	r2, [r3, #0]
 8001aa2:	f442 7200 	orr.w	r2, r2, #512	@ 0x200
 8001aa6:	601a      	str	r2, [r3, #0]
          *hi2c->pBuffPtr = (uint8_t)hi2c->Instance->DR;
 8001aa8:	691b      	ldr	r3, [r3, #16]
 8001aaa:	700b      	strb	r3, [r1, #0]
          hi2c->XferCount--;
 8001aac:	8d63      	ldrh	r3, [r4, #42]	@ 0x2a
 8001aae:	3b01      	subs	r3, #1
 8001ab0:	b29b      	uxth	r3, r3
 8001ab2:	8563      	strh	r3, [r4, #42]	@ 0x2a
          hi2c->pBuffPtr++;
 8001ab4:	6a63      	ldr	r3, [r4, #36]	@ 0x24
 8001ab6:	3301      	adds	r3, #1
 8001ab8:	6263      	str	r3, [r4, #36]	@ 0x24
          hi2c->XferSize--;
 8001aba:	8d23      	ldrh	r3, [r4, #40]	@ 0x28
 8001abc:	3b01      	subs	r3, #1
 8001abe:	8523      	strh	r3, [r4, #40]	@ 0x28
  __ASM volatile ("cpsie i" : : : "memory");
 8001ac0:	b662      	cpsie	i
          *hi2c->pBuffPtr = (uint8_t)hi2c->Instance->DR;
 8001ac2:	6823      	ldr	r3, [r4, #0]
 8001ac4:	691a      	ldr	r2, [r3, #16]
 8001ac6:	6a63      	ldr	r3, [r4, #36]	@ 0x24
 8001ac8:	701a      	strb	r2, [r3, #0]
          hi2c->XferCount--;
 8001aca:	8d62      	ldrh	r2, [r4, #42]	@ 0x2a
          hi2c->XferSize--;
 8001acc:	8d23      	ldrh	r3, [r4, #40]	@ 0x28
          hi2c->XferCount--;
 8001ace:	3a01      	subs	r2, #1
 8001ad0:	b292      	uxth	r2, r2
 8001ad2:	8562      	strh	r2, [r4, #42]	@ 0x2a
          hi2c->pBuffPtr++;
 8001ad4:	6a62      	ldr	r2, [r4, #36]	@ 0x24
          hi2c->XferSize--;
 8001ad6:	3b01      	subs	r3, #1
 8001ad8:	b29b      	uxth	r3, r3
          hi2c->pBuffPtr++;
 8001ada:	3201      	adds	r2, #1
          hi2c->XferSize--;
 8001adc:	8523      	strh	r3, [r4, #40]	@ 0x28
          hi2c->pBuffPtr++;
 8001ade:	6262      	str	r2, [r4, #36]	@ 0x24
    while (hi2c->XferSize > 0U)
 8001ae0:	2b00      	cmp	r3, #0
 8001ae2:	d0a4      	beq.n	8001a2e <HAL_I2C_Mem_Read+0xba>
      if (hi2c->XferSize <= 3U)
 8001ae4:	2b03      	cmp	r3, #3
 8001ae6:	d9c8      	bls.n	8001a7a <HAL_I2C_Mem_Read+0x106>
        if (I2C_WaitOnRXNEFlagUntilTimeout(hi2c, Timeout, tickstart) != HAL_OK)
 8001ae8:	462a      	mov	r2, r5
 8001aea:	4639      	mov	r1, r7
 8001aec:	4620      	mov	r0, r4
 8001aee:	f7ff fd5f 	bl	80015b0 <I2C_WaitOnRXNEFlagUntilTimeout>
 8001af2:	2800      	cmp	r0, #0
 8001af4:	d158      	bne.n	8001ba8 <HAL_I2C_Mem_Read+0x234>
        *hi2c->pBuffPtr = (uint8_t)hi2c->Instance->DR;
 8001af6:	6823      	ldr	r3, [r4, #0]
 8001af8:	691a      	ldr	r2, [r3, #16]
 8001afa:	6a63      	ldr	r3, [r4, #36]	@ 0x24
 8001afc:	701a      	strb	r2, [r3, #0]
        hi2c->XferCount--;
 8001afe:	8d63      	ldrh	r3, [r4, #42]	@ 0x2a
        if (__HAL_I2C_GET_FLAG(hi2c, I2C_FLAG_BTF) == SET)
 8001b00:	6822      	ldr	r2, [r4, #0]
        hi2c->XferCount--;
 8001b02:	3b01      	subs	r3, #1
 8001b04:	b29b      	uxth	r3, r3
 8001b06:	8563      	strh	r3, [r4, #42]	@ 0x2a
        hi2c->XferSize--;
 8001b08:	8d23      	ldrh	r3, [r4, #40]	@ 0x28
        hi2c->pBuffPtr++;
 8001b0a:	6a61      	ldr	r1, [r4, #36]	@ 0x24
        if (__HAL_I2C_GET_FLAG(hi2c, I2C_FLAG_BTF) == SET)
 8001b0c:	6950      	ldr	r0, [r2, #20]
        hi2c->XferSize--;
 8001b0e:	3b01      	subs	r3, #1
 8001b10:	b29b      	uxth	r3, r3
        hi2c->pBuffPtr++;
 8001b12:	f101 0c01 	add.w	ip, r1, #1
        if (__HAL_I2C_GET_FLAG(hi2c, I2C_FLAG_BTF) == SET)
 8001b16:	0740      	lsls	r0, r0, #29
        hi2c->XferSize--;
 8001b18:	8523      	strh	r3, [r4, #40]	@ 0x28
        hi2c->pBuffPtr++;
 8001b1a:	f8c4 c024 	str.w	ip, [r4, #36]	@ 0x24
        if (__HAL_I2C_GET_FLAG(hi2c, I2C_FLAG_BTF) == SET)
 8001b1e:	d5df      	bpl.n	8001ae0 <HAL_I2C_Mem_Read+0x16c>
          if (hi2c->XferSize == 3U)
 8001b20:	2b03      	cmp	r3, #3
 8001b22:	d103      	bne.n	8001b2c <HAL_I2C_Mem_Read+0x1b8>
            CLEAR_BIT(hi2c->Instance->CR1, I2C_CR1_ACK);
 8001b24:	6813      	ldr	r3, [r2, #0]
 8001b26:	f423 6380 	bic.w	r3, r3, #1024	@ 0x400
 8001b2a:	6013      	str	r3, [r2, #0]
          *hi2c->pBuffPtr = (uint8_t)hi2c->Instance->DR;
 8001b2c:	6913      	ldr	r3, [r2, #16]
 8001b2e:	704b      	strb	r3, [r1, #1]
 8001b30:	e7cb      	b.n	8001aca <HAL_I2C_Mem_Read+0x156>
          if (I2C_WaitOnFlagUntilTimeout(hi2c, I2C_FLAG_BTF, RESET, Timeout, tickstart) != HAL_OK)
 8001b32:	f7ff fc9b 	bl	800146c <I2C_WaitOnFlagUntilTimeout>
 8001b36:	2800      	cmp	r0, #0
 8001b38:	d136      	bne.n	8001ba8 <HAL_I2C_Mem_Read+0x234>
          CLEAR_BIT(hi2c->Instance->CR1, I2C_CR1_ACK);
 8001b3a:	6822      	ldr	r2, [r4, #0]
 8001b3c:	6813      	ldr	r3, [r2, #0]
 8001b3e:	f423 6380 	bic.w	r3, r3, #1024	@ 0x400
 8001b42:	6013      	str	r3, [r2, #0]
  __ASM volatile ("cpsid i" : : : "memory");
 8001b44:	b672      	cpsid	i
          *hi2c->pBuffPtr = (uint8_t)hi2c->Instance->DR;
 8001b46:	6823      	ldr	r3, [r4, #0]
 8001b48:	691a      	ldr	r2, [r3, #16]
 8001b4a:	6a63      	ldr	r3, [r4, #36]	@ 0x24
 8001b4c:	701a      	strb	r2, [r3, #0]
          count = I2C_TIMEOUT_FLAG * (SystemCoreClock / 25U / 1000U);
 8001b4e:	f8da 3000 	ldr.w	r3, [sl]
          hi2c->pBuffPtr++;
 8001b52:	6a61      	ldr	r1, [r4, #36]	@ 0x24
          count = I2C_TIMEOUT_FLAG * (SystemCoreClock / 25U / 1000U);
 8001b54:	08db      	lsrs	r3, r3, #3
 8001b56:	fba9 2303 	umull	r2, r3, r9, r3
          hi2c->XferCount--;
 8001b5a:	8d62      	ldrh	r2, [r4, #42]	@ 0x2a
          count = I2C_TIMEOUT_FLAG * (SystemCoreClock / 25U / 1000U);
 8001b5c:	0a1b      	lsrs	r3, r3, #8
 8001b5e:	eb03 0383 	add.w	r3, r3, r3, lsl #2
          hi2c->XferCount--;
 8001b62:	3a01      	subs	r2, #1
          count = I2C_TIMEOUT_FLAG * (SystemCoreClock / 25U / 1000U);
 8001b64:	ebc3 03c3 	rsb	r3, r3, r3, lsl #3
          hi2c->XferCount--;
 8001b68:	b292      	uxth	r2, r2
 8001b6a:	8562      	strh	r2, [r4, #42]	@ 0x2a
          count = I2C_TIMEOUT_FLAG * (SystemCoreClock / 25U / 1000U);
 8001b6c:	9303      	str	r3, [sp, #12]
          hi2c->XferSize--;
 8001b6e:	8d23      	ldrh	r3, [r4, #40]	@ 0x28
 8001b70:	3b01      	subs	r3, #1
 8001b72:	8523      	strh	r3, [r4, #40]	@ 0x28
          hi2c->pBuffPtr++;
 8001b74:	1c4b      	adds	r3, r1, #1
 8001b76:	6263      	str	r3, [r4, #36]	@ 0x24
          count = I2C_TIMEOUT_FLAG * (SystemCoreClock / 25U / 1000U);
 8001b78:	e003      	b.n	8001b82 <HAL_I2C_Mem_Read+0x20e>
          while (__HAL_I2C_GET_FLAG(hi2c, I2C_FLAG_BTF) == RESET);
 8001b7a:	6823      	ldr	r3, [r4, #0]
 8001b7c:	695a      	ldr	r2, [r3, #20]
 8001b7e:	0752      	lsls	r2, r2, #29
 8001b80:	d436      	bmi.n	8001bf0 <HAL_I2C_Mem_Read+0x27c>
            count--;
 8001b82:	9b03      	ldr	r3, [sp, #12]
 8001b84:	3b01      	subs	r3, #1
 8001b86:	9303      	str	r3, [sp, #12]
            if (count == 0U)
 8001b88:	9b03      	ldr	r3, [sp, #12]
 8001b8a:	2b00      	cmp	r3, #0
 8001b8c:	d1f5      	bne.n	8001b7a <HAL_I2C_Mem_Read+0x206>
              hi2c->State               = HAL_I2C_STATE_READY;
 8001b8e:	2220      	movs	r2, #32
              hi2c->PreviousState       = I2C_STATE_NONE;
 8001b90:	6323      	str	r3, [r4, #48]	@ 0x30
              hi2c->State               = HAL_I2C_STATE_READY;
 8001b92:	f884 203d 	strb.w	r2, [r4, #61]	@ 0x3d
              hi2c->Mode                = HAL_I2C_MODE_NONE;
 8001b96:	f884 303e 	strb.w	r3, [r4, #62]	@ 0x3e
              hi2c->ErrorCode           |= HAL_I2C_ERROR_TIMEOUT;
 8001b9a:	6c22      	ldr	r2, [r4, #64]	@ 0x40
 8001b9c:	f042 0220 	orr.w	r2, r2, #32
 8001ba0:	6422      	str	r2, [r4, #64]	@ 0x40
  __ASM volatile ("cpsie i" : : : "memory");
 8001ba2:	b662      	cpsie	i
              __HAL_UNLOCK(hi2c);
 8001ba4:	f884 303c 	strb.w	r3, [r4, #60]	@ 0x3c
      return HAL_ERROR;
 8001ba8:	2601      	movs	r6, #1
}
 8001baa:	4630      	mov	r0, r6
 8001bac:	b008      	add	sp, #32
 8001bae:	e8bd 87f0 	ldmia.w	sp!, {r4, r5, r6, r7, r8, r9, sl, pc}
      SET_BIT(hi2c->Instance->CR1, I2C_CR1_POS);
 8001bb2:	6813      	ldr	r3, [r2, #0]
 8001bb4:	f443 6300 	orr.w	r3, r3, #2048	@ 0x800
 8001bb8:	6013      	str	r3, [r2, #0]
  __ASM volatile ("cpsid i" : : : "memory");
 8001bba:	b672      	cpsid	i
      __HAL_I2C_CLEAR_ADDRFLAG(hi2c);
 8001bbc:	6823      	ldr	r3, [r4, #0]
 8001bbe:	9006      	str	r0, [sp, #24]
 8001bc0:	695a      	ldr	r2, [r3, #20]
 8001bc2:	9206      	str	r2, [sp, #24]
 8001bc4:	699a      	ldr	r2, [r3, #24]
 8001bc6:	9206      	str	r2, [sp, #24]
 8001bc8:	9a06      	ldr	r2, [sp, #24]
      CLEAR_BIT(hi2c->Instance->CR1, I2C_CR1_ACK);
 8001bca:	681a      	ldr	r2, [r3, #0]
 8001bcc:	f422 6280 	bic.w	r2, r2, #1024	@ 0x400
 8001bd0:	601a      	str	r2, [r3, #0]
  __ASM volatile ("cpsie i" : : : "memory");
 8001bd2:	b662      	cpsie	i
    while (hi2c->XferSize > 0U)
 8001bd4:	8d23      	ldrh	r3, [r4, #40]	@ 0x28
 8001bd6:	2b00      	cmp	r3, #0
 8001bd8:	f47f af47 	bne.w	8001a6a <HAL_I2C_Mem_Read+0xf6>
 8001bdc:	e727      	b.n	8001a2e <HAL_I2C_Mem_Read+0xba>
          if (I2C_WaitOnRXNEFlagUntilTimeout(hi2c, Timeout, tickstart) != HAL_OK)
 8001bde:	462a      	mov	r2, r5
 8001be0:	4639      	mov	r1, r7
 8001be2:	4620      	mov	r0, r4
 8001be4:	f7ff fce4 	bl	80015b0 <I2C_WaitOnRXNEFlagUntilTimeout>
 8001be8:	2800      	cmp	r0, #0
 8001bea:	f43f af6a 	beq.w	8001ac2 <HAL_I2C_Mem_Read+0x14e>
 8001bee:	e7db      	b.n	8001ba8 <HAL_I2C_Mem_Read+0x234>
          SET_BIT(hi2c->Instance->CR1, I2C_CR1_STOP);
 8001bf0:	681a      	ldr	r2, [r3, #0]
 8001bf2:	f442 7200 	orr.w	r2, r2, #512	@ 0x200
 8001bf6:	601a      	str	r2, [r3, #0]
          *hi2c->pBuffPtr = (uint8_t)hi2c->Instance->DR;
 8001bf8:	691b      	ldr	r3, [r3, #16]
 8001bfa:	704b      	strb	r3, [r1, #1]
 8001bfc:	e756      	b.n	8001aac <HAL_I2C_Mem_Read+0x138>
      CLEAR_BIT(hi2c->Instance->CR1, I2C_CR1_ACK);
 8001bfe:	6813      	ldr	r3, [r2, #0]
 8001c00:	f423 6380 	bic.w	r3, r3, #1024	@ 0x400
 8001c04:	6013      	str	r3, [r2, #0]
  __ASM volatile ("cpsid i" : : : "memory");
 8001c06:	b672      	cpsid	i
      __HAL_I2C_CLEAR_ADDRFLAG(hi2c);
 8001c08:	6823      	ldr	r3, [r4, #0]
 8001c0a:	9005      	str	r0, [sp, #20]
 8001c0c:	695a      	ldr	r2, [r3, #20]
 8001c0e:	9205      	str	r2, [sp, #20]
 8001c10:	699a      	ldr	r2, [r3, #24]
 8001c12:	9205      	str	r2, [sp, #20]
 8001c14:	9a05      	ldr	r2, [sp, #20]
      SET_BIT(hi2c->Instance->CR1, I2C_CR1_STOP);
 8001c16:	681a      	ldr	r2, [r3, #0]
 8001c18:	f442 7200 	orr.w	r2, r2, #512	@ 0x200
 8001c1c:	601a      	str	r2, [r3, #0]
  __ASM volatile ("cpsie i" : : : "memory");
 8001c1e:	b662      	cpsie	i
    while (hi2c->XferSize > 0U)
 8001c20:	8d23      	ldrh	r3, [r4, #40]	@ 0x28
 8001c22:	2b00      	cmp	r3, #0
 8001c24:	f47f af21 	bne.w	8001a6a <HAL_I2C_Mem_Read+0xf6>
 8001c28:	e701      	b.n	8001a2e <HAL_I2C_Mem_Read+0xba>
 8001c2a:	bf00      	nop
 8001c2c:	00100002 	.word	0x00100002
 8001c30:	ffff0000 	.word	0xffff0000
 8001c34:	00010004 	.word	0x00010004
 8001c38:	20000000 	.word	0x20000000
 8001c3c:	14f8b589 	.word	0x14f8b589

08001c40 <HAL_PWR_EnterSLEEPMode>:
  UNUSED(Regulator);

  assert_param(IS_PWR_SLEEP_ENTRY(SLEEPEntry));

  /* Clear SLEEPDEEP bit of Cortex System Control Register */
  CLEAR_BIT(SCB->SCR, ((uint32_t)SCB_SCR_SLEEPDEEP_Msk));
 8001c40:	4a06      	ldr	r2, [pc, #24]	@ (8001c5c <HAL_PWR_EnterSLEEPMode+0x1c>)

  /* Select SLEEP mode entry -------------------------------------------------*/
  if(SLEEPEntry == PWR_SLEEPENTRY_WFI)
 8001c42:	2901      	cmp	r1, #1
  CLEAR_BIT(SCB->SCR, ((uint32_t)SCB_SCR_SLEEPDEEP_Msk));
 8001c44:	6913      	ldr	r3, [r2, #16]
 8001c46:	f023 0304 	bic.w	r3, r3, #4
 8001c4a:	6113      	str	r3, [r2, #16]
  if(SLEEPEntry == PWR_SLEEPENTRY_WFI)
 8001c4c:	d003      	beq.n	8001c56 <HAL_PWR_EnterSLEEPMode+0x16>
    __WFI();
  }
  else
  {
    /* Request Wait For Event */
    __SEV();
 8001c4e:	bf40      	sev
    __WFE();
 8001c50:	bf20      	wfe
    __WFE();
 8001c52:	bf20      	wfe
  }
}
 8001c54:	4770      	bx	lr
    __WFI();
 8001c56:	bf30      	wfi
 8001c58:	4770      	bx	lr
 8001c5a:	bf00      	nop
 8001c5c:	e000ed00 	.word	0xe000ed00

08001c60 <HAL_RCC_OscConfig>:
{
  uint32_t tickstart;
  uint32_t pll_config;

  /* Check Null pointer */
  if (RCC_OscInitStruct == NULL)
 8001c60:	2800      	cmp	r0, #0
 8001c62:	f000 81e4 	beq.w	800202e <HAL_RCC_OscConfig+0x3ce>
{
 8001c66:	e92d 41f0 	stmdb	sp!, {r4, r5, r6, r7, r8, lr}

  /* Check the parameters */
  assert_param(IS_RCC_OSCILLATORTYPE(RCC_OscInitStruct->OscillatorType));

  /*------------------------------- HSE Configuration ------------------------*/
  if (((RCC_OscInitStruct->OscillatorType) & RCC_OSCILLATORTYPE_HSE) == RCC_OSCILLATORTYPE_HSE)
 8001c6a:	6803      	ldr	r3, [r0, #0]
 8001c6c:	4604      	mov	r4, r0
 8001c6e:	07dd      	lsls	r5, r3, #31
{
 8001c70:	b082      	sub	sp, #8
  if (((RCC_OscInitStruct->OscillatorType) & RCC_OSCILLATORTYPE_HSE) == RCC_OSCILLATORTYPE_HSE)
 8001c72:	d535      	bpl.n	8001ce0 <HAL_RCC_OscConfig+0x80>
  {
    /* Check the parameters */
    assert_param(IS_RCC_HSE(RCC_OscInitStruct->HSEState));

    /* When the HSE is used as system clock or clock source for PLL in these cases it is not allowed to be disabled */
    if ((__HAL_RCC_GET_SYSCLK_SOURCE() == RCC_SYSCLKSOURCE_STATUS_HSE)
 8001c74:	4999      	ldr	r1, [pc, #612]	@ (8001edc <HAL_RCC_OscConfig+0x27c>)
 8001c76:	684a      	ldr	r2, [r1, #4]
 8001c78:	f002 020c 	and.w	r2, r2, #12
 8001c7c:	2a04      	cmp	r2, #4
 8001c7e:	f000 80ed 	beq.w	8001e5c <HAL_RCC_OscConfig+0x1fc>
        || ((__HAL_RCC_GET_SYSCLK_SOURCE() == RCC_SYSCLKSOURCE_STATUS_PLLCLK) && (__HAL_RCC_GET_PLL_OSCSOURCE() == RCC_PLLSOURCE_HSE)))
 8001c82:	684a      	ldr	r2, [r1, #4]
 8001c84:	f002 020c 	and.w	r2, r2, #12
 8001c88:	2a08      	cmp	r2, #8
 8001c8a:	f000 80e3 	beq.w	8001e54 <HAL_RCC_OscConfig+0x1f4>
      }
    }
    else
    {
      /* Set the new HSE configuration ---------------------------------------*/
      __HAL_RCC_HSE_CONFIG(RCC_OscInitStruct->HSEState);
 8001c8e:	6863      	ldr	r3, [r4, #4]
 8001c90:	f5b3 3f80 	cmp.w	r3, #65536	@ 0x10000
 8001c94:	d010      	beq.n	8001cb8 <HAL_RCC_OscConfig+0x58>
 8001c96:	2b00      	cmp	r3, #0
 8001c98:	f000 810a 	beq.w	8001eb0 <HAL_RCC_OscConfig+0x250>
 8001c9c:	f5b3 2fa0 	cmp.w	r3, #327680	@ 0x50000
 8001ca0:	f000 8180 	beq.w	8001fa4 <HAL_RCC_OscConfig+0x344>
 8001ca4:	4b8d      	ldr	r3, [pc, #564]	@ (8001edc <HAL_RCC_OscConfig+0x27c>)
 8001ca6:	681a      	ldr	r2, [r3, #0]
 8001ca8:	f422 3280 	bic.w	r2, r2, #65536	@ 0x10000
 8001cac:	601a      	str	r2, [r3, #0]
 8001cae:	681a      	ldr	r2, [r3, #0]
 8001cb0:	f422 2280 	bic.w	r2, r2, #262144	@ 0x40000
 8001cb4:	601a      	str	r2, [r3, #0]


      /* Check the HSE State */
      if (RCC_OscInitStruct->HSEState != RCC_HSE_OFF)
 8001cb6:	e004      	b.n	8001cc2 <HAL_RCC_OscConfig+0x62>
      __HAL_RCC_HSE_CONFIG(RCC_OscInitStruct->HSEState);
 8001cb8:	4a88      	ldr	r2, [pc, #544]	@ (8001edc <HAL_RCC_OscConfig+0x27c>)
 8001cba:	6813      	ldr	r3, [r2, #0]
 8001cbc:	f443 3380 	orr.w	r3, r3, #65536	@ 0x10000
 8001cc0:	6013      	str	r3, [r2, #0]
      {
        /* Get Start Tick */
        tickstart = HAL_GetTick();
 8001cc2:	f7fe fe49 	bl	8000958 <HAL_GetTick>

        /* Wait till HSE is ready */
        while (__HAL_RCC_GET_FLAG(RCC_FLAG_HSERDY) == RESET)
 8001cc6:	4e85      	ldr	r6, [pc, #532]	@ (8001edc <HAL_RCC_OscConfig+0x27c>)
        tickstart = HAL_GetTick();
 8001cc8:	4605      	mov	r5, r0
        while (__HAL_RCC_GET_FLAG(RCC_FLAG_HSERDY) == RESET)
 8001cca:	e005      	b.n	8001cd8 <HAL_RCC_OscConfig+0x78>
        {
          if ((HAL_GetTick() - tickstart) > HSE_TIMEOUT_VALUE)
 8001ccc:	f7fe fe44 	bl	8000958 <HAL_GetTick>
 8001cd0:	1b40      	subs	r0, r0, r5
 8001cd2:	2864      	cmp	r0, #100	@ 0x64
 8001cd4:	f200 80e8 	bhi.w	8001ea8 <HAL_RCC_OscConfig+0x248>
        while (__HAL_RCC_GET_FLAG(RCC_FLAG_HSERDY) == RESET)
 8001cd8:	6833      	ldr	r3, [r6, #0]
 8001cda:	039a      	lsls	r2, r3, #14
 8001cdc:	d5f6      	bpl.n	8001ccc <HAL_RCC_OscConfig+0x6c>
        }
      }
    }
  }
  /*----------------------------- HSI Configuration --------------------------*/
  if (((RCC_OscInitStruct->OscillatorType) & RCC_OSCILLATORTYPE_HSI) == RCC_OSCILLATORTYPE_HSI)
 8001cde:	6823      	ldr	r3, [r4, #0]
 8001ce0:	079f      	lsls	r7, r3, #30
 8001ce2:	d528      	bpl.n	8001d36 <HAL_RCC_OscConfig+0xd6>
    /* Check the parameters */
    assert_param(IS_RCC_HSI(RCC_OscInitStruct->HSIState));
    assert_param(IS_RCC_CALIBRATION_VALUE(RCC_OscInitStruct->HSICalibrationValue));

    /* Check if HSI is used as system clock or as PLL source when PLL is selected as system clock */
    if ((__HAL_RCC_GET_SYSCLK_SOURCE() == RCC_SYSCLKSOURCE_STATUS_HSI)
 8001ce4:	4a7d      	ldr	r2, [pc, #500]	@ (8001edc <HAL_RCC_OscConfig+0x27c>)
 8001ce6:	6851      	ldr	r1, [r2, #4]
 8001ce8:	f011 0f0c 	tst.w	r1, #12
 8001cec:	f000 8096 	beq.w	8001e1c <HAL_RCC_OscConfig+0x1bc>
        || ((__HAL_RCC_GET_SYSCLK_SOURCE() == RCC_SYSCLKSOURCE_STATUS_PLLCLK) && (__HAL_RCC_GET_PLL_OSCSOURCE() == RCC_PLLSOURCE_HSI_DIV2)))
 8001cf0:	6851      	ldr	r1, [r2, #4]
 8001cf2:	f001 010c 	and.w	r1, r1, #12
 8001cf6:	2908      	cmp	r1, #8
 8001cf8:	f000 808c 	beq.w	8001e14 <HAL_RCC_OscConfig+0x1b4>
      }
    }
    else
    {
      /* Check the HSI State */
      if (RCC_OscInitStruct->HSIState != RCC_HSI_OFF)
 8001cfc:	6923      	ldr	r3, [r4, #16]
 8001cfe:	2b00      	cmp	r3, #0
 8001d00:	f000 8116 	beq.w	8001f30 <HAL_RCC_OscConfig+0x2d0>
      {
        /* Enable the Internal High Speed oscillator (HSI). */
        __HAL_RCC_HSI_ENABLE();
 8001d04:	2201      	movs	r2, #1
 8001d06:	4b76      	ldr	r3, [pc, #472]	@ (8001ee0 <HAL_RCC_OscConfig+0x280>)

        /* Get Start Tick */
        tickstart = HAL_GetTick();

        /* Wait till HSI is ready */
        while (__HAL_RCC_GET_FLAG(RCC_FLAG_HSIRDY) == RESET)
 8001d08:	4e74      	ldr	r6, [pc, #464]	@ (8001edc <HAL_RCC_OscConfig+0x27c>)
        __HAL_RCC_HSI_ENABLE();
 8001d0a:	601a      	str	r2, [r3, #0]
        tickstart = HAL_GetTick();
 8001d0c:	f7fe fe24 	bl	8000958 <HAL_GetTick>
 8001d10:	4605      	mov	r5, r0
        while (__HAL_RCC_GET_FLAG(RCC_FLAG_HSIRDY) == RESET)
 8001d12:	e005      	b.n	8001d20 <HAL_RCC_OscConfig+0xc0>
        {
          if ((HAL_GetTick() - tickstart) > HSI_TIMEOUT_VALUE)
 8001d14:	f7fe fe20 	bl	8000958 <HAL_GetTick>
 8001d18:	1b40      	subs	r0, r0, r5
 8001d1a:	2802      	cmp	r0, #2
 8001d1c:	f200 80c4 	bhi.w	8001ea8 <HAL_RCC_OscConfig+0x248>
        while (__HAL_RCC_GET_FLAG(RCC_FLAG_HSIRDY) == RESET)
 8001d20:	6833      	ldr	r3, [r6, #0]
 8001d22:	0798      	lsls	r0, r3, #30
 8001d24:	d5f6      	bpl.n	8001d14 <HAL_RCC_OscConfig+0xb4>
            return HAL_TIMEOUT;
          }
        }

        /* Adjusts the Internal High Speed oscillator (HSI) calibration value.*/
        __HAL_RCC_HSI_CALIBRATIONVALUE_ADJUST(RCC_OscInitStruct->HSICalibrationValue);
 8001d26:	6833      	ldr	r3, [r6, #0]
 8001d28:	6962      	ldr	r2, [r4, #20]
 8001d2a:	f023 03f8 	bic.w	r3, r3, #248	@ 0xf8
 8001d2e:	ea43 03c2 	orr.w	r3, r3, r2, lsl #3
 8001d32:	6033      	str	r3, [r6, #0]
        }
      }
    }
  }
  /*------------------------------ LSI Configuration -------------------------*/
  if (((RCC_OscInitStruct->OscillatorType) & RCC_OSCILLATORTYPE_LSI) == RCC_OSCILLATORTYPE_LSI)
 8001d34:	6823      	ldr	r3, [r4, #0]
 8001d36:	071a      	lsls	r2, r3, #28
 8001d38:	d429      	bmi.n	8001d8e <HAL_RCC_OscConfig+0x12e>
        }
      }
    }
  }
  /*------------------------------ LSE Configuration -------------------------*/
  if (((RCC_OscInitStruct->OscillatorType) & RCC_OSCILLATORTYPE_LSE) == RCC_OSCILLATORTYPE_LSE)
 8001d3a:	075d      	lsls	r5, r3, #29
 8001d3c:	d54b      	bpl.n	8001dd6 <HAL_RCC_OscConfig+0x176>
    /* Check the parameters */
    assert_param(IS_RCC_LSE(RCC_OscInitStruct->LSEState));

    /* Update LSE configuration in Backup Domain control register    */
    /* Requires to enable write access to Backup Domain of necessary */
    if (__HAL_RCC_PWR_IS_CLK_DISABLED())
 8001d3e:	4b67      	ldr	r3, [pc, #412]	@ (8001edc <HAL_RCC_OscConfig+0x27c>)
 8001d40:	69da      	ldr	r2, [r3, #28]
 8001d42:	00d0      	lsls	r0, r2, #3
 8001d44:	f100 8084 	bmi.w	8001e50 <HAL_RCC_OscConfig+0x1f0>
    {
      __HAL_RCC_PWR_CLK_ENABLE();
      pwrclkchanged = SET;
 8001d48:	2501      	movs	r5, #1
      __HAL_RCC_PWR_CLK_ENABLE();
 8001d4a:	69da      	ldr	r2, [r3, #28]
 8001d4c:	f042 5280 	orr.w	r2, r2, #268435456	@ 0x10000000
 8001d50:	61da      	str	r2, [r3, #28]
 8001d52:	69db      	ldr	r3, [r3, #28]
 8001d54:	f003 5380 	and.w	r3, r3, #268435456	@ 0x10000000
 8001d58:	9300      	str	r3, [sp, #0]
 8001d5a:	9b00      	ldr	r3, [sp, #0]
    }

    if (HAL_IS_BIT_CLR(PWR->CR, PWR_CR_DBP))
 8001d5c:	4e61      	ldr	r6, [pc, #388]	@ (8001ee4 <HAL_RCC_OscConfig+0x284>)
 8001d5e:	6833      	ldr	r3, [r6, #0]
 8001d60:	05d9      	lsls	r1, r3, #23
 8001d62:	f140 8091 	bpl.w	8001e88 <HAL_RCC_OscConfig+0x228>
        }
      }
    }

    /* Set the new LSE configuration -----------------------------------------*/
    __HAL_RCC_LSE_CONFIG(RCC_OscInitStruct->LSEState);
 8001d66:	68e3      	ldr	r3, [r4, #12]
 8001d68:	2b01      	cmp	r3, #1
 8001d6a:	f000 80f2 	beq.w	8001f52 <HAL_RCC_OscConfig+0x2f2>
 8001d6e:	2b00      	cmp	r3, #0
 8001d70:	f000 80be 	beq.w	8001ef0 <HAL_RCC_OscConfig+0x290>
 8001d74:	2b05      	cmp	r3, #5
 8001d76:	4b59      	ldr	r3, [pc, #356]	@ (8001edc <HAL_RCC_OscConfig+0x27c>)
 8001d78:	6a1a      	ldr	r2, [r3, #32]
 8001d7a:	f000 8120 	beq.w	8001fbe <HAL_RCC_OscConfig+0x35e>
 8001d7e:	f022 0201 	bic.w	r2, r2, #1
 8001d82:	621a      	str	r2, [r3, #32]
 8001d84:	6a1a      	ldr	r2, [r3, #32]
 8001d86:	f022 0204 	bic.w	r2, r2, #4
 8001d8a:	621a      	str	r2, [r3, #32]
    /* Check the LSE State */
    if (RCC_OscInitStruct->LSEState != RCC_LSE_OFF)
 8001d8c:	e0e6      	b.n	8001f5c <HAL_RCC_OscConfig+0x2fc>
    if (RCC_OscInitStruct->LSIState != RCC_LSI_OFF)
 8001d8e:	69a3      	ldr	r3, [r4, #24]
 8001d90:	2b00      	cmp	r3, #0
 8001d92:	d04c      	beq.n	8001e2e <HAL_RCC_OscConfig+0x1ce>
      __HAL_RCC_LSI_ENABLE();
 8001d94:	2201      	movs	r2, #1
 8001d96:	4b52      	ldr	r3, [pc, #328]	@ (8001ee0 <HAL_RCC_OscConfig+0x280>)
      while (__HAL_RCC_GET_FLAG(RCC_FLAG_LSIRDY) == RESET)
 8001d98:	4e50      	ldr	r6, [pc, #320]	@ (8001edc <HAL_RCC_OscConfig+0x27c>)
      __HAL_RCC_LSI_ENABLE();
 8001d9a:	f8c3 2480 	str.w	r2, [r3, #1152]	@ 0x480
      tickstart = HAL_GetTick();
 8001d9e:	f7fe fddb 	bl	8000958 <HAL_GetTick>
 8001da2:	4605      	mov	r5, r0
      while (__HAL_RCC_GET_FLAG(RCC_FLAG_LSIRDY) == RESET)
 8001da4:	e004      	b.n	8001db0 <HAL_RCC_OscConfig+0x150>
        if ((HAL_GetTick() - tickstart) > LSI_TIMEOUT_VALUE)
 8001da6:	f7fe fdd7 	bl	8000958 <HAL_GetTick>
 8001daa:	1b40      	subs	r0, r0, r5
 8001dac:	2802      	cmp	r0, #2
 8001dae:	d87b      	bhi.n	8001ea8 <HAL_RCC_OscConfig+0x248>
      while (__HAL_RCC_GET_FLAG(RCC_FLAG_LSIRDY) == RESET)
 8001db0:	6a73      	ldr	r3, [r6, #36]	@ 0x24
 8001db2:	079b      	lsls	r3, r3, #30
 8001db4:	d5f7      	bpl.n	8001da6 <HAL_RCC_OscConfig+0x146>
  * @param  mdelay: specifies the delay time length, in milliseconds.
  * @retval None
  */
static void RCC_Delay(uint32_t mdelay)
{
  __IO uint32_t Delay = mdelay * (SystemCoreClock / 8U / 1000U);
 8001db6:	4b4c      	ldr	r3, [pc, #304]	@ (8001ee8 <HAL_RCC_OscConfig+0x288>)
 8001db8:	4a4c      	ldr	r2, [pc, #304]	@ (8001eec <HAL_RCC_OscConfig+0x28c>)
 8001dba:	681b      	ldr	r3, [r3, #0]
 8001dbc:	fba2 2303 	umull	r2, r3, r2, r3
 8001dc0:	0a5b      	lsrs	r3, r3, #9
 8001dc2:	9301      	str	r3, [sp, #4]
  do
  {
    __NOP();
 8001dc4:	bf00      	nop
  }
  while (Delay --);
 8001dc6:	9b01      	ldr	r3, [sp, #4]
 8001dc8:	1e5a      	subs	r2, r3, #1
 8001dca:	9201      	str	r2, [sp, #4]
 8001dcc:	2b00      	cmp	r3, #0
 8001dce:	d1f9      	bne.n	8001dc4 <HAL_RCC_OscConfig+0x164>
  if (((RCC_OscInitStruct->OscillatorType) & RCC_OSCILLATORTYPE_LSE) == RCC_OSCILLATORTYPE_LSE)
 8001dd0:	6823      	ldr	r3, [r4, #0]
 8001dd2:	075d      	lsls	r5, r3, #29
 8001dd4:	d4b3      	bmi.n	8001d3e <HAL_RCC_OscConfig+0xde>
  if ((RCC_OscInitStruct->PLL.PLLState) != RCC_PLL_NONE)
 8001dd6:	69e3      	ldr	r3, [r4, #28]
 8001dd8:	b1c3      	cbz	r3, 8001e0c <HAL_RCC_OscConfig+0x1ac>
    if (__HAL_RCC_GET_SYSCLK_SOURCE() != RCC_SYSCLKSOURCE_STATUS_PLLCLK)
 8001dda:	4d40      	ldr	r5, [pc, #256]	@ (8001edc <HAL_RCC_OscConfig+0x27c>)
 8001ddc:	686a      	ldr	r2, [r5, #4]
 8001dde:	f002 020c 	and.w	r2, r2, #12
 8001de2:	2a08      	cmp	r2, #8
 8001de4:	f000 80cd 	beq.w	8001f82 <HAL_RCC_OscConfig+0x322>
        __HAL_RCC_PLL_DISABLE();
 8001de8:	2200      	movs	r2, #0
      if ((RCC_OscInitStruct->PLL.PLLState) == RCC_PLL_ON)
 8001dea:	2b02      	cmp	r3, #2
        __HAL_RCC_PLL_DISABLE();
 8001dec:	4b3c      	ldr	r3, [pc, #240]	@ (8001ee0 <HAL_RCC_OscConfig+0x280>)
 8001dee:	661a      	str	r2, [r3, #96]	@ 0x60
      if ((RCC_OscInitStruct->PLL.PLLState) == RCC_PLL_ON)
 8001df0:	f000 80ed 	beq.w	8001fce <HAL_RCC_OscConfig+0x36e>
        tickstart = HAL_GetTick();
 8001df4:	f7fe fdb0 	bl	8000958 <HAL_GetTick>
 8001df8:	4604      	mov	r4, r0
        while (__HAL_RCC_GET_FLAG(RCC_FLAG_PLLRDY)  != RESET)
 8001dfa:	e004      	b.n	8001e06 <HAL_RCC_OscConfig+0x1a6>
          if ((HAL_GetTick() - tickstart) > PLL_TIMEOUT_VALUE)
 8001dfc:	f7fe fdac 	bl	8000958 <HAL_GetTick>
 8001e00:	1b00      	subs	r0, r0, r4
 8001e02:	2802      	cmp	r0, #2
 8001e04:	d850      	bhi.n	8001ea8 <HAL_RCC_OscConfig+0x248>
        while (__HAL_RCC_GET_FLAG(RCC_FLAG_PLLRDY)  != RESET)
 8001e06:	682b      	ldr	r3, [r5, #0]
 8001e08:	019b      	lsls	r3, r3, #6
 8001e0a:	d4f7      	bmi.n	8001dfc <HAL_RCC_OscConfig+0x19c>
  return HAL_OK;
 8001e0c:	2000      	movs	r0, #0
}
 8001e0e:	b002      	add	sp, #8
 8001e10:	e8bd 81f0 	ldmia.w	sp!, {r4, r5, r6, r7, r8, pc}
        || ((__HAL_RCC_GET_SYSCLK_SOURCE() == RCC_SYSCLKSOURCE_STATUS_PLLCLK) && (__HAL_RCC_GET_PLL_OSCSOURCE() == RCC_PLLSOURCE_HSI_DIV2)))
 8001e14:	6852      	ldr	r2, [r2, #4]
 8001e16:	03d6      	lsls	r6, r2, #15
 8001e18:	f53f af70 	bmi.w	8001cfc <HAL_RCC_OscConfig+0x9c>
      if ((__HAL_RCC_GET_FLAG(RCC_FLAG_HSIRDY) != RESET) && (RCC_OscInitStruct->HSIState != RCC_HSI_ON))
 8001e1c:	4a2f      	ldr	r2, [pc, #188]	@ (8001edc <HAL_RCC_OscConfig+0x27c>)
 8001e1e:	6812      	ldr	r2, [r2, #0]
 8001e20:	0795      	lsls	r5, r2, #30
 8001e22:	d525      	bpl.n	8001e70 <HAL_RCC_OscConfig+0x210>
 8001e24:	6922      	ldr	r2, [r4, #16]
 8001e26:	2a01      	cmp	r2, #1
 8001e28:	d022      	beq.n	8001e70 <HAL_RCC_OscConfig+0x210>
    return HAL_ERROR;
 8001e2a:	2001      	movs	r0, #1
 8001e2c:	e7ef      	b.n	8001e0e <HAL_RCC_OscConfig+0x1ae>
      __HAL_RCC_LSI_DISABLE();
 8001e2e:	4a2c      	ldr	r2, [pc, #176]	@ (8001ee0 <HAL_RCC_OscConfig+0x280>)
      while (__HAL_RCC_GET_FLAG(RCC_FLAG_LSIRDY) != RESET)
 8001e30:	4e2a      	ldr	r6, [pc, #168]	@ (8001edc <HAL_RCC_OscConfig+0x27c>)
      __HAL_RCC_LSI_DISABLE();
 8001e32:	f8c2 3480 	str.w	r3, [r2, #1152]	@ 0x480
      tickstart = HAL_GetTick();
 8001e36:	f7fe fd8f 	bl	8000958 <HAL_GetTick>
 8001e3a:	4605      	mov	r5, r0
      while (__HAL_RCC_GET_FLAG(RCC_FLAG_LSIRDY) != RESET)
 8001e3c:	e004      	b.n	8001e48 <HAL_RCC_OscConfig+0x1e8>
        if ((HAL_GetTick() - tickstart) > LSI_TIMEOUT_VALUE)
 8001e3e:	f7fe fd8b 	bl	8000958 <HAL_GetTick>
 8001e42:	1b40      	subs	r0, r0, r5
 8001e44:	2802      	cmp	r0, #2
 8001e46:	d82f      	bhi.n	8001ea8 <HAL_RCC_OscConfig+0x248>
      while (__HAL_RCC_GET_FLAG(RCC_FLAG_LSIRDY) != RESET)
 8001e48:	6a73      	ldr	r3, [r6, #36]	@ 0x24
 8001e4a:	079f      	lsls	r7, r3, #30
 8001e4c:	d4f7      	bmi.n	8001e3e <HAL_RCC_OscConfig+0x1de>
 8001e4e:	e7bf      	b.n	8001dd0 <HAL_RCC_OscConfig+0x170>
    FlagStatus       pwrclkchanged = RESET;
 8001e50:	2500      	movs	r5, #0
 8001e52:	e783      	b.n	8001d5c <HAL_RCC_OscConfig+0xfc>
        || ((__HAL_RCC_GET_SYSCLK_SOURCE() == RCC_SYSCLKSOURCE_STATUS_PLLCLK) && (__HAL_RCC_GET_PLL_OSCSOURCE() == RCC_PLLSOURCE_HSE)))
 8001e54:	684a      	ldr	r2, [r1, #4]
 8001e56:	03d0      	lsls	r0, r2, #15
 8001e58:	f57f af19 	bpl.w	8001c8e <HAL_RCC_OscConfig+0x2e>
      if ((__HAL_RCC_GET_FLAG(RCC_FLAG_HSERDY) != RESET) && (RCC_OscInitStruct->HSEState == RCC_HSE_OFF))
 8001e5c:	4a1f      	ldr	r2, [pc, #124]	@ (8001edc <HAL_RCC_OscConfig+0x27c>)
 8001e5e:	6812      	ldr	r2, [r2, #0]
 8001e60:	0391      	lsls	r1, r2, #14
 8001e62:	f57f af3d 	bpl.w	8001ce0 <HAL_RCC_OscConfig+0x80>
 8001e66:	6862      	ldr	r2, [r4, #4]
 8001e68:	2a00      	cmp	r2, #0
 8001e6a:	f47f af39 	bne.w	8001ce0 <HAL_RCC_OscConfig+0x80>
 8001e6e:	e7dc      	b.n	8001e2a <HAL_RCC_OscConfig+0x1ca>
        __HAL_RCC_HSI_CALIBRATIONVALUE_ADJUST(RCC_OscInitStruct->HSICalibrationValue);
 8001e70:	491a      	ldr	r1, [pc, #104]	@ (8001edc <HAL_RCC_OscConfig+0x27c>)
 8001e72:	6960      	ldr	r0, [r4, #20]
 8001e74:	680a      	ldr	r2, [r1, #0]
 8001e76:	f022 02f8 	bic.w	r2, r2, #248	@ 0xf8
 8001e7a:	ea42 02c0 	orr.w	r2, r2, r0, lsl #3
 8001e7e:	600a      	str	r2, [r1, #0]
  if (((RCC_OscInitStruct->OscillatorType) & RCC_OSCILLATORTYPE_LSI) == RCC_OSCILLATORTYPE_LSI)
 8001e80:	071a      	lsls	r2, r3, #28
 8001e82:	f57f af5a 	bpl.w	8001d3a <HAL_RCC_OscConfig+0xda>
 8001e86:	e782      	b.n	8001d8e <HAL_RCC_OscConfig+0x12e>
      SET_BIT(PWR->CR, PWR_CR_DBP);
 8001e88:	6833      	ldr	r3, [r6, #0]
 8001e8a:	f443 7380 	orr.w	r3, r3, #256	@ 0x100
 8001e8e:	6033      	str	r3, [r6, #0]
      tickstart = HAL_GetTick();
 8001e90:	f7fe fd62 	bl	8000958 <HAL_GetTick>
 8001e94:	4607      	mov	r7, r0
      while (HAL_IS_BIT_CLR(PWR->CR, PWR_CR_DBP))
 8001e96:	6833      	ldr	r3, [r6, #0]
 8001e98:	05da      	lsls	r2, r3, #23
 8001e9a:	f53f af64 	bmi.w	8001d66 <HAL_RCC_OscConfig+0x106>
        if ((HAL_GetTick() - tickstart) > RCC_DBP_TIMEOUT_VALUE)
 8001e9e:	f7fe fd5b 	bl	8000958 <HAL_GetTick>
 8001ea2:	1bc0      	subs	r0, r0, r7
 8001ea4:	2864      	cmp	r0, #100	@ 0x64
 8001ea6:	d9f6      	bls.n	8001e96 <HAL_RCC_OscConfig+0x236>
            return HAL_TIMEOUT;
 8001ea8:	2003      	movs	r0, #3
}
 8001eaa:	b002      	add	sp, #8
 8001eac:	e8bd 81f0 	ldmia.w	sp!, {r4, r5, r6, r7, r8, pc}
      __HAL_RCC_HSE_CONFIG(RCC_OscInitStruct->HSEState);
 8001eb0:	4d0a      	ldr	r5, [pc, #40]	@ (8001edc <HAL_RCC_OscConfig+0x27c>)
 8001eb2:	682b      	ldr	r3, [r5, #0]
 8001eb4:	f423 3380 	bic.w	r3, r3, #65536	@ 0x10000
 8001eb8:	602b      	str	r3, [r5, #0]
 8001eba:	682b      	ldr	r3, [r5, #0]
 8001ebc:	f423 2380 	bic.w	r3, r3, #262144	@ 0x40000
 8001ec0:	602b      	str	r3, [r5, #0]
        tickstart = HAL_GetTick();
 8001ec2:	f7fe fd49 	bl	8000958 <HAL_GetTick>
 8001ec6:	4606      	mov	r6, r0
        while (__HAL_RCC_GET_FLAG(RCC_FLAG_HSERDY) != RESET)
 8001ec8:	e004      	b.n	8001ed4 <HAL_RCC_OscConfig+0x274>
          if ((HAL_GetTick() - tickstart) > HSE_TIMEOUT_VALUE)
 8001eca:	f7fe fd45 	bl	8000958 <HAL_GetTick>
 8001ece:	1b80      	subs	r0, r0, r6
 8001ed0:	2864      	cmp	r0, #100	@ 0x64
 8001ed2:	d8e9      	bhi.n	8001ea8 <HAL_RCC_OscConfig+0x248>
        while (__HAL_RCC_GET_FLAG(RCC_FLAG_HSERDY) != RESET)
 8001ed4:	682b      	ldr	r3, [r5, #0]
 8001ed6:	039b      	lsls	r3, r3, #14
 8001ed8:	d4f7      	bmi.n	8001eca <HAL_RCC_OscConfig+0x26a>
 8001eda:	e700      	b.n	8001cde <HAL_RCC_OscConfig+0x7e>
 8001edc:	40021000 	.word	0x40021000
 8001ee0:	42420000 	.word	0x42420000
 8001ee4:	40007000 	.word	0x40007000
 8001ee8:	20000000 	.word	0x20000000
 8001eec:	10624dd3 	.word	0x10624dd3
    __HAL_RCC_LSE_CONFIG(RCC_OscInitStruct->LSEState);
 8001ef0:	4e50      	ldr	r6, [pc, #320]	@ (8002034 <HAL_RCC_OscConfig+0x3d4>)
        if ((HAL_GetTick() - tickstart) > RCC_LSE_TIMEOUT_VALUE)
 8001ef2:	f241 3888 	movw	r8, #5000	@ 0x1388
    __HAL_RCC_LSE_CONFIG(RCC_OscInitStruct->LSEState);
 8001ef6:	6a33      	ldr	r3, [r6, #32]
 8001ef8:	f023 0301 	bic.w	r3, r3, #1
 8001efc:	6233      	str	r3, [r6, #32]
 8001efe:	6a33      	ldr	r3, [r6, #32]
 8001f00:	f023 0304 	bic.w	r3, r3, #4
 8001f04:	6233      	str	r3, [r6, #32]
      tickstart = HAL_GetTick();
 8001f06:	f7fe fd27 	bl	8000958 <HAL_GetTick>
 8001f0a:	4607      	mov	r7, r0
      while (__HAL_RCC_GET_FLAG(RCC_FLAG_LSERDY) != RESET)
 8001f0c:	e004      	b.n	8001f18 <HAL_RCC_OscConfig+0x2b8>
        if ((HAL_GetTick() - tickstart) > RCC_LSE_TIMEOUT_VALUE)
 8001f0e:	f7fe fd23 	bl	8000958 <HAL_GetTick>
 8001f12:	1bc0      	subs	r0, r0, r7
 8001f14:	4540      	cmp	r0, r8
 8001f16:	d8c7      	bhi.n	8001ea8 <HAL_RCC_OscConfig+0x248>
      while (__HAL_RCC_GET_FLAG(RCC_FLAG_LSERDY) != RESET)
 8001f18:	6a33      	ldr	r3, [r6, #32]
 8001f1a:	0798      	lsls	r0, r3, #30
 8001f1c:	d4f7      	bmi.n	8001f0e <HAL_RCC_OscConfig+0x2ae>
    if (pwrclkchanged == SET)
 8001f1e:	2d00      	cmp	r5, #0
 8001f20:	f43f af59 	beq.w	8001dd6 <HAL_RCC_OscConfig+0x176>
      __HAL_RCC_PWR_CLK_DISABLE();
 8001f24:	4a43      	ldr	r2, [pc, #268]	@ (8002034 <HAL_RCC_OscConfig+0x3d4>)
 8001f26:	69d3      	ldr	r3, [r2, #28]
 8001f28:	f023 5380 	bic.w	r3, r3, #268435456	@ 0x10000000
 8001f2c:	61d3      	str	r3, [r2, #28]
 8001f2e:	e752      	b.n	8001dd6 <HAL_RCC_OscConfig+0x176>
        __HAL_RCC_HSI_DISABLE();
 8001f30:	4a41      	ldr	r2, [pc, #260]	@ (8002038 <HAL_RCC_OscConfig+0x3d8>)
        while (__HAL_RCC_GET_FLAG(RCC_FLAG_HSIRDY) != RESET)
 8001f32:	4e40      	ldr	r6, [pc, #256]	@ (8002034 <HAL_RCC_OscConfig+0x3d4>)
        __HAL_RCC_HSI_DISABLE();
 8001f34:	6013      	str	r3, [r2, #0]
        tickstart = HAL_GetTick();
 8001f36:	f7fe fd0f 	bl	8000958 <HAL_GetTick>
 8001f3a:	4605      	mov	r5, r0
        while (__HAL_RCC_GET_FLAG(RCC_FLAG_HSIRDY) != RESET)
 8001f3c:	e004      	b.n	8001f48 <HAL_RCC_OscConfig+0x2e8>
          if ((HAL_GetTick() - tickstart) > HSI_TIMEOUT_VALUE)
 8001f3e:	f7fe fd0b 	bl	8000958 <HAL_GetTick>
 8001f42:	1b40      	subs	r0, r0, r5
 8001f44:	2802      	cmp	r0, #2
 8001f46:	d8af      	bhi.n	8001ea8 <HAL_RCC_OscConfig+0x248>
        while (__HAL_RCC_GET_FLAG(RCC_FLAG_HSIRDY) != RESET)
 8001f48:	6833      	ldr	r3, [r6, #0]
 8001f4a:	0799      	lsls	r1, r3, #30
 8001f4c:	d4f7      	bmi.n	8001f3e <HAL_RCC_OscConfig+0x2de>
  if (((RCC_OscInitStruct->OscillatorType) & RCC_OSCILLATORTYPE_LSI) == RCC_OSCILLATORTYPE_LSI)
 8001f4e:	6823      	ldr	r3, [r4, #0]
 8001f50:	e6f1      	b.n	8001d36 <HAL_RCC_OscConfig+0xd6>
    __HAL_RCC_LSE_CONFIG(RCC_OscInitStruct->LSEState);
 8001f52:	4a38      	ldr	r2, [pc, #224]	@ (8002034 <HAL_RCC_OscConfig+0x3d4>)
 8001f54:	6a13      	ldr	r3, [r2, #32]
 8001f56:	f043 0301 	orr.w	r3, r3, #1
 8001f5a:	6213      	str	r3, [r2, #32]
      tickstart = HAL_GetTick();
 8001f5c:	f7fe fcfc 	bl	8000958 <HAL_GetTick>
        if ((HAL_GetTick() - tickstart) > RCC_LSE_TIMEOUT_VALUE)
 8001f60:	f241 3888 	movw	r8, #5000	@ 0x1388
      tickstart = HAL_GetTick();
 8001f64:	4606      	mov	r6, r0
      while (__HAL_RCC_GET_FLAG(RCC_FLAG_LSERDY) == RESET)
 8001f66:	4f33      	ldr	r7, [pc, #204]	@ (8002034 <HAL_RCC_OscConfig+0x3d4>)
 8001f68:	e004      	b.n	8001f74 <HAL_RCC_OscConfig+0x314>
        if ((HAL_GetTick() - tickstart) > RCC_LSE_TIMEOUT_VALUE)
 8001f6a:	f7fe fcf5 	bl	8000958 <HAL_GetTick>
 8001f6e:	1b80      	subs	r0, r0, r6
 8001f70:	4540      	cmp	r0, r8
 8001f72:	d899      	bhi.n	8001ea8 <HAL_RCC_OscConfig+0x248>
      while (__HAL_RCC_GET_FLAG(RCC_FLAG_LSERDY) == RESET)
 8001f74:	6a3b      	ldr	r3, [r7, #32]
 8001f76:	079b      	lsls	r3, r3, #30
 8001f78:	d5f7      	bpl.n	8001f6a <HAL_RCC_OscConfig+0x30a>
    if (pwrclkchanged == SET)
 8001f7a:	2d00      	cmp	r5, #0
 8001f7c:	f43f af2b 	beq.w	8001dd6 <HAL_RCC_OscConfig+0x176>
 8001f80:	e7d0      	b.n	8001f24 <HAL_RCC_OscConfig+0x2c4>
      if ((RCC_OscInitStruct->PLL.PLLState) == RCC_PLL_OFF)
 8001f82:	2b01      	cmp	r3, #1
 8001f84:	f43f af51 	beq.w	8001e2a <HAL_RCC_OscConfig+0x1ca>
        pll_config = RCC->CFGR;
 8001f88:	686b      	ldr	r3, [r5, #4]
        if ((READ_BIT(pll_config, RCC_CFGR_PLLSRC) != RCC_OscInitStruct->PLL.PLLSource) ||
 8001f8a:	6a22      	ldr	r2, [r4, #32]
 8001f8c:	f403 3180 	and.w	r1, r3, #65536	@ 0x10000
 8001f90:	4291      	cmp	r1, r2
 8001f92:	f47f af4a 	bne.w	8001e2a <HAL_RCC_OscConfig+0x1ca>
 8001f96:	6a60      	ldr	r0, [r4, #36]	@ 0x24
            (READ_BIT(pll_config, RCC_CFGR_PLLMULL) != RCC_OscInitStruct->PLL.PLLMUL))
 8001f98:	f403 1370 	and.w	r3, r3, #3932160	@ 0x3c0000
        if ((READ_BIT(pll_config, RCC_CFGR_PLLSRC) != RCC_OscInitStruct->PLL.PLLSource) ||
 8001f9c:	1a18      	subs	r0, r3, r0
 8001f9e:	bf18      	it	ne
 8001fa0:	2001      	movne	r0, #1
 8001fa2:	e734      	b.n	8001e0e <HAL_RCC_OscConfig+0x1ae>
      __HAL_RCC_HSE_CONFIG(RCC_OscInitStruct->HSEState);
 8001fa4:	f103 4380 	add.w	r3, r3, #1073741824	@ 0x40000000
 8001fa8:	f5a3 333c 	sub.w	r3, r3, #192512	@ 0x2f000
 8001fac:	681a      	ldr	r2, [r3, #0]
 8001fae:	f442 2280 	orr.w	r2, r2, #262144	@ 0x40000
 8001fb2:	601a      	str	r2, [r3, #0]
 8001fb4:	681a      	ldr	r2, [r3, #0]
 8001fb6:	f442 3280 	orr.w	r2, r2, #65536	@ 0x10000
 8001fba:	601a      	str	r2, [r3, #0]
      if (RCC_OscInitStruct->HSEState != RCC_HSE_OFF)
 8001fbc:	e681      	b.n	8001cc2 <HAL_RCC_OscConfig+0x62>
    __HAL_RCC_LSE_CONFIG(RCC_OscInitStruct->LSEState);
 8001fbe:	f042 0204 	orr.w	r2, r2, #4
 8001fc2:	621a      	str	r2, [r3, #32]
 8001fc4:	6a1a      	ldr	r2, [r3, #32]
 8001fc6:	f042 0201 	orr.w	r2, r2, #1
 8001fca:	621a      	str	r2, [r3, #32]
    if (RCC_OscInitStruct->LSEState != RCC_LSE_OFF)
 8001fcc:	e7c6      	b.n	8001f5c <HAL_RCC_OscConfig+0x2fc>
        tickstart = HAL_GetTick();
 8001fce:	f7fe fcc3 	bl	8000958 <HAL_GetTick>
 8001fd2:	4606      	mov	r6, r0
        while (__HAL_RCC_GET_FLAG(RCC_FLAG_PLLRDY)  != RESET)
 8001fd4:	e005      	b.n	8001fe2 <HAL_RCC_OscConfig+0x382>
          if ((HAL_GetTick() - tickstart) > PLL_TIMEOUT_VALUE)
 8001fd6:	f7fe fcbf 	bl	8000958 <HAL_GetTick>
 8001fda:	1b80      	subs	r0, r0, r6
 8001fdc:	2802      	cmp	r0, #2
 8001fde:	f63f af63 	bhi.w	8001ea8 <HAL_RCC_OscConfig+0x248>
        while (__HAL_RCC_GET_FLAG(RCC_FLAG_PLLRDY)  != RESET)
 8001fe2:	682b      	ldr	r3, [r5, #0]
 8001fe4:	0199      	lsls	r1, r3, #6
 8001fe6:	d4f6      	bmi.n	8001fd6 <HAL_RCC_OscConfig+0x376>
        if (RCC_OscInitStruct->PLL.PLLSource == RCC_PLLSOURCE_HSE)
 8001fe8:	6a23      	ldr	r3, [r4, #32]
 8001fea:	f5b3 3f80 	cmp.w	r3, #65536	@ 0x10000
 8001fee:	d105      	bne.n	8001ffc <HAL_RCC_OscConfig+0x39c>
          __HAL_RCC_HSE_PREDIV_CONFIG(RCC_OscInitStruct->HSEPredivValue);
 8001ff0:	686a      	ldr	r2, [r5, #4]
 8001ff2:	68a1      	ldr	r1, [r4, #8]
 8001ff4:	f422 3200 	bic.w	r2, r2, #131072	@ 0x20000
 8001ff8:	430a      	orrs	r2, r1
 8001ffa:	606a      	str	r2, [r5, #4]
        __HAL_RCC_PLL_ENABLE();
 8001ffc:	2001      	movs	r0, #1
        __HAL_RCC_PLL_CONFIG(RCC_OscInitStruct->PLL.PLLSource,
 8001ffe:	4d0d      	ldr	r5, [pc, #52]	@ (8002034 <HAL_RCC_OscConfig+0x3d4>)
 8002000:	6a61      	ldr	r1, [r4, #36]	@ 0x24
 8002002:	686a      	ldr	r2, [r5, #4]
 8002004:	430b      	orrs	r3, r1
 8002006:	f422 1274 	bic.w	r2, r2, #3997696	@ 0x3d0000
        __HAL_RCC_PLL_ENABLE();
 800200a:	490b      	ldr	r1, [pc, #44]	@ (8002038 <HAL_RCC_OscConfig+0x3d8>)
        __HAL_RCC_PLL_CONFIG(RCC_OscInitStruct->PLL.PLLSource,
 800200c:	4313      	orrs	r3, r2
 800200e:	606b      	str	r3, [r5, #4]
        __HAL_RCC_PLL_ENABLE();
 8002010:	6608      	str	r0, [r1, #96]	@ 0x60
        tickstart = HAL_GetTick();
 8002012:	f7fe fca1 	bl	8000958 <HAL_GetTick>
 8002016:	4604      	mov	r4, r0
        while (__HAL_RCC_GET_FLAG(RCC_FLAG_PLLRDY)  == RESET)
 8002018:	e005      	b.n	8002026 <HAL_RCC_OscConfig+0x3c6>
          if ((HAL_GetTick() - tickstart) > PLL_TIMEOUT_VALUE)
 800201a:	f7fe fc9d 	bl	8000958 <HAL_GetTick>
 800201e:	1b00      	subs	r0, r0, r4
 8002020:	2802      	cmp	r0, #2
 8002022:	f63f af41 	bhi.w	8001ea8 <HAL_RCC_OscConfig+0x248>
        while (__HAL_RCC_GET_FLAG(RCC_FLAG_PLLRDY)  == RESET)
 8002026:	682b      	ldr	r3, [r5, #0]
 8002028:	019a      	lsls	r2, r3, #6
 800202a:	d5f6      	bpl.n	800201a <HAL_RCC_OscConfig+0x3ba>
 800202c:	e6ee      	b.n	8001e0c <HAL_RCC_OscConfig+0x1ac>
    return HAL_ERROR;
 800202e:	2001      	movs	r0, #1
}
 8002030:	4770      	bx	lr
 8002032:	bf00      	nop
 8002034:	40021000 	.word	0x40021000
 8002038:	42420000 	.word	0x42420000

0800203c <HAL_RCC_GetSysClockFreq>:
  tmpreg = RCC->CFGR;
 800203c:	4a0e      	ldr	r2, [pc, #56]	@ (8002078 <HAL_RCC_GetSysClockFreq+0x3c>)
 800203e:	6853      	ldr	r3, [r2, #4]
  switch (tmpreg & RCC_CFGR_SWS)
 8002040:	f003 010c 	and.w	r1, r3, #12
 8002044:	2908      	cmp	r1, #8
 8002046:	d001      	beq.n	800204c <HAL_RCC_GetSysClockFreq+0x10>
      sysclockfreq = HSE_VALUE;
 8002048:	480c      	ldr	r0, [pc, #48]	@ (800207c <HAL_RCC_GetSysClockFreq+0x40>)
}
 800204a:	4770      	bx	lr
      pllmul = aPLLMULFactorTable[(uint32_t)(tmpreg & RCC_CFGR_PLLMULL) >> RCC_CFGR_PLLMULL_Pos];
 800204c:	480c      	ldr	r0, [pc, #48]	@ (8002080 <HAL_RCC_GetSysClockFreq+0x44>)
 800204e:	f3c3 4183 	ubfx	r1, r3, #18, #4
      if ((tmpreg & RCC_CFGR_PLLSRC) != RCC_PLLSOURCE_HSI_DIV2)
 8002052:	03db      	lsls	r3, r3, #15
      pllmul = aPLLMULFactorTable[(uint32_t)(tmpreg & RCC_CFGR_PLLMULL) >> RCC_CFGR_PLLMULL_Pos];
 8002054:	5c40      	ldrb	r0, [r0, r1]
      if ((tmpreg & RCC_CFGR_PLLSRC) != RCC_PLLSOURCE_HSI_DIV2)
 8002056:	d50a      	bpl.n	800206e <HAL_RCC_GetSysClockFreq+0x32>
        pllclk = (uint32_t)((HSE_VALUE  * pllmul) / prediv);
 8002058:	4908      	ldr	r1, [pc, #32]	@ (800207c <HAL_RCC_GetSysClockFreq+0x40>)
        prediv = aPredivFactorTable[(uint32_t)(RCC->CFGR & RCC_CFGR_PLLXTPRE) >> RCC_CFGR_PLLXTPRE_Pos];
 800205a:	6853      	ldr	r3, [r2, #4]
        pllclk = (uint32_t)((HSE_VALUE  * pllmul) / prediv);
 800205c:	fb01 f000 	mul.w	r0, r1, r0
        prediv = aPredivFactorTable[(uint32_t)(RCC->CFGR & RCC_CFGR_PLLXTPRE) >> RCC_CFGR_PLLXTPRE_Pos];
 8002060:	4a08      	ldr	r2, [pc, #32]	@ (8002084 <HAL_RCC_GetSysClockFreq+0x48>)
 8002062:	f3c3 4340 	ubfx	r3, r3, #17, #1
 8002066:	5cd3      	ldrb	r3, [r2, r3]
        pllclk = (uint32_t)((HSE_VALUE  * pllmul) / prediv);
 8002068:	fbb0 f0f3 	udiv	r0, r0, r3
 800206c:	4770      	bx	lr
        pllclk = (uint32_t)((HSI_VALUE >> 1) * pllmul);
 800206e:	4b06      	ldr	r3, [pc, #24]	@ (8002088 <HAL_RCC_GetSysClockFreq+0x4c>)
 8002070:	fb03 f000 	mul.w	r0, r3, r0
 8002074:	4770      	bx	lr
 8002076:	bf00      	nop
 8002078:	40021000 	.word	0x40021000
 800207c:	007a1200 	.word	0x007a1200
 8002080:	0800614c 	.word	0x0800614c
 8002084:	08006148 	.word	0x08006148
 8002088:	003d0900 	.word	0x003d0900

0800208c <HAL_RCC_ClockConfig>:
  if (RCC_ClkInitStruct == NULL)
 800208c:	2800      	cmp	r0, #0
 800208e:	f000 808c 	beq.w	80021aa <HAL_RCC_ClockConfig+0x11e>
  if (FLatency > __HAL_FLASH_GET_LATENCY())
 8002092:	4a49      	ldr	r2, [pc, #292]	@ (80021b8 <HAL_RCC_ClockConfig+0x12c>)
{
 8002094:	e92d 41f0 	stmdb	sp!, {r4, r5, r6, r7, r8, lr}
  if (FLatency > __HAL_FLASH_GET_LATENCY())
 8002098:	6813      	ldr	r3, [r2, #0]
 800209a:	4604      	mov	r4, r0
 800209c:	f003 0307 	and.w	r3, r3, #7
 80020a0:	428b      	cmp	r3, r1
 80020a2:	460d      	mov	r5, r1
 80020a4:	d20c      	bcs.n	80020c0 <HAL_RCC_ClockConfig+0x34>
    __HAL_FLASH_SET_LATENCY(FLatency);
 80020a6:	6813      	ldr	r3, [r2, #0]
 80020a8:	f023 0307 	bic.w	r3, r3, #7
 80020ac:	430b      	orrs	r3, r1
 80020ae:	6013      	str	r3, [r2, #0]
    if (__HAL_FLASH_GET_LATENCY() != FLatency)
 80020b0:	6813      	ldr	r3, [r2, #0]
 80020b2:	f003 0307 	and.w	r3, r3, #7
 80020b6:	428b      	cmp	r3, r1
 80020b8:	d002      	beq.n	80020c0 <HAL_RCC_ClockConfig+0x34>
    return HAL_ERROR;
 80020ba:	2001      	movs	r0, #1
}
 80020bc:	e8bd 81f0 	ldmia.w	sp!, {r4, r5, r6, r7, r8, pc}
if (((RCC_ClkInitStruct->ClockType) & RCC_CLOCKTYPE_HCLK) == RCC_CLOCKTYPE_HCLK)
 80020c0:	6823      	ldr	r3, [r4, #0]
 80020c2:	0798      	lsls	r0, r3, #30
 80020c4:	d514      	bpl.n	80020f0 <HAL_RCC_ClockConfig+0x64>
    if (((RCC_ClkInitStruct->ClockType) & RCC_CLOCKTYPE_PCLK1) == RCC_CLOCKTYPE_PCLK1)
 80020c6:	0759      	lsls	r1, r3, #29
 80020c8:	d504      	bpl.n	80020d4 <HAL_RCC_ClockConfig+0x48>
      MODIFY_REG(RCC->CFGR, RCC_CFGR_PPRE1, RCC_HCLK_DIV16);
 80020ca:	493c      	ldr	r1, [pc, #240]	@ (80021bc <HAL_RCC_ClockConfig+0x130>)
 80020cc:	684a      	ldr	r2, [r1, #4]
 80020ce:	f442 62e0 	orr.w	r2, r2, #1792	@ 0x700
 80020d2:	604a      	str	r2, [r1, #4]
    if (((RCC_ClkInitStruct->ClockType) & RCC_CLOCKTYPE_PCLK2) == RCC_CLOCKTYPE_PCLK2)
 80020d4:	071a      	lsls	r2, r3, #28
 80020d6:	d504      	bpl.n	80020e2 <HAL_RCC_ClockConfig+0x56>
      MODIFY_REG(RCC->CFGR, RCC_CFGR_PPRE2, (RCC_HCLK_DIV16 << 3));
 80020d8:	4938      	ldr	r1, [pc, #224]	@ (80021bc <HAL_RCC_ClockConfig+0x130>)
 80020da:	684a      	ldr	r2, [r1, #4]
 80020dc:	f442 5260 	orr.w	r2, r2, #14336	@ 0x3800
 80020e0:	604a      	str	r2, [r1, #4]
    MODIFY_REG(RCC->CFGR, RCC_CFGR_HPRE, RCC_ClkInitStruct->AHBCLKDivider);
 80020e2:	4936      	ldr	r1, [pc, #216]	@ (80021bc <HAL_RCC_ClockConfig+0x130>)
 80020e4:	68a0      	ldr	r0, [r4, #8]
 80020e6:	684a      	ldr	r2, [r1, #4]
 80020e8:	f022 02f0 	bic.w	r2, r2, #240	@ 0xf0
 80020ec:	4302      	orrs	r2, r0
 80020ee:	604a      	str	r2, [r1, #4]
  if (((RCC_ClkInitStruct->ClockType) & RCC_CLOCKTYPE_SYSCLK) == RCC_CLOCKTYPE_SYSCLK)
 80020f0:	07df      	lsls	r7, r3, #31
 80020f2:	d520      	bpl.n	8002136 <HAL_RCC_ClockConfig+0xaa>
    if (RCC_ClkInitStruct->SYSCLKSource == RCC_SYSCLKSOURCE_HSE)
 80020f4:	6862      	ldr	r2, [r4, #4]
      if (__HAL_RCC_GET_FLAG(RCC_FLAG_HSERDY) == RESET)
 80020f6:	4b31      	ldr	r3, [pc, #196]	@ (80021bc <HAL_RCC_ClockConfig+0x130>)
    if (RCC_ClkInitStruct->SYSCLKSource == RCC_SYSCLKSOURCE_HSE)
 80020f8:	2a01      	cmp	r2, #1
      if (__HAL_RCC_GET_FLAG(RCC_FLAG_HSERDY) == RESET)
 80020fa:	681b      	ldr	r3, [r3, #0]
    if (RCC_ClkInitStruct->SYSCLKSource == RCC_SYSCLKSOURCE_HSE)
 80020fc:	d057      	beq.n	80021ae <HAL_RCC_ClockConfig+0x122>
    else if (RCC_ClkInitStruct->SYSCLKSource == RCC_SYSCLKSOURCE_PLLCLK)
 80020fe:	2a02      	cmp	r2, #2
 8002100:	d050      	beq.n	80021a4 <HAL_RCC_ClockConfig+0x118>
      if (__HAL_RCC_GET_FLAG(RCC_FLAG_HSIRDY) == RESET)
 8002102:	0799      	lsls	r1, r3, #30
 8002104:	d5d9      	bpl.n	80020ba <HAL_RCC_ClockConfig+0x2e>
    __HAL_RCC_SYSCLK_CONFIG(RCC_ClkInitStruct->SYSCLKSource);
 8002106:	4e2d      	ldr	r6, [pc, #180]	@ (80021bc <HAL_RCC_ClockConfig+0x130>)
      if ((HAL_GetTick() - tickstart) > CLOCKSWITCH_TIMEOUT_VALUE)
 8002108:	f241 3888 	movw	r8, #5000	@ 0x1388
    __HAL_RCC_SYSCLK_CONFIG(RCC_ClkInitStruct->SYSCLKSource);
 800210c:	6873      	ldr	r3, [r6, #4]
 800210e:	f023 0303 	bic.w	r3, r3, #3
 8002112:	4313      	orrs	r3, r2
 8002114:	6073      	str	r3, [r6, #4]
    tickstart = HAL_GetTick();
 8002116:	f7fe fc1f 	bl	8000958 <HAL_GetTick>
 800211a:	4607      	mov	r7, r0
    while (__HAL_RCC_GET_SYSCLK_SOURCE() != (RCC_ClkInitStruct->SYSCLKSource << RCC_CFGR_SWS_Pos))
 800211c:	e004      	b.n	8002128 <HAL_RCC_ClockConfig+0x9c>
      if ((HAL_GetTick() - tickstart) > CLOCKSWITCH_TIMEOUT_VALUE)
 800211e:	f7fe fc1b 	bl	8000958 <HAL_GetTick>
 8002122:	1bc0      	subs	r0, r0, r7
 8002124:	4540      	cmp	r0, r8
 8002126:	d845      	bhi.n	80021b4 <HAL_RCC_ClockConfig+0x128>
    while (__HAL_RCC_GET_SYSCLK_SOURCE() != (RCC_ClkInitStruct->SYSCLKSource << RCC_CFGR_SWS_Pos))
 8002128:	6873      	ldr	r3, [r6, #4]
 800212a:	6862      	ldr	r2, [r4, #4]
 800212c:	f003 030c 	and.w	r3, r3, #12
 8002130:	ebb3 0f82 	cmp.w	r3, r2, lsl #2
 8002134:	d1f3      	bne.n	800211e <HAL_RCC_ClockConfig+0x92>
  if (FLatency < __HAL_FLASH_GET_LATENCY())
 8002136:	4a20      	ldr	r2, [pc, #128]	@ (80021b8 <HAL_RCC_ClockConfig+0x12c>)
 8002138:	6813      	ldr	r3, [r2, #0]
 800213a:	f003 0307 	and.w	r3, r3, #7
 800213e:	42ab      	cmp	r3, r5
 8002140:	d909      	bls.n	8002156 <HAL_RCC_ClockConfig+0xca>
    __HAL_FLASH_SET_LATENCY(FLatency);
 8002142:	6813      	ldr	r3, [r2, #0]
 8002144:	f023 0307 	bic.w	r3, r3, #7
 8002148:	432b      	orrs	r3, r5
 800214a:	6013      	str	r3, [r2, #0]
    if (__HAL_FLASH_GET_LATENCY() != FLatency)
 800214c:	6813      	ldr	r3, [r2, #0]
 800214e:	f003 0307 	and.w	r3, r3, #7
 8002152:	42ab      	cmp	r3, r5
 8002154:	d1b1      	bne.n	80020ba <HAL_RCC_ClockConfig+0x2e>
if (((RCC_ClkInitStruct->ClockType) & RCC_CLOCKTYPE_PCLK1) == RCC_CLOCKTYPE_PCLK1)
 8002156:	6823      	ldr	r3, [r4, #0]
 8002158:	075a      	lsls	r2, r3, #29
 800215a:	d506      	bpl.n	800216a <HAL_RCC_ClockConfig+0xde>
    MODIFY_REG(RCC->CFGR, RCC_CFGR_PPRE1, RCC_ClkInitStruct->APB1CLKDivider);
 800215c:	4917      	ldr	r1, [pc, #92]	@ (80021bc <HAL_RCC_ClockConfig+0x130>)
 800215e:	68e0      	ldr	r0, [r4, #12]
 8002160:	684a      	ldr	r2, [r1, #4]
 8002162:	f422 62e0 	bic.w	r2, r2, #1792	@ 0x700
 8002166:	4302      	orrs	r2, r0
 8002168:	604a      	str	r2, [r1, #4]
  if (((RCC_ClkInitStruct->ClockType) & RCC_CLOCKTYPE_PCLK2) == RCC_CLOCKTYPE_PCLK2)
 800216a:	071b      	lsls	r3, r3, #28
 800216c:	d507      	bpl.n	800217e <HAL_RCC_ClockConfig+0xf2>
    MODIFY_REG(RCC->CFGR, RCC_CFGR_PPRE2, ((RCC_ClkInitStruct->APB2CLKDivider) << 3));
 800216e:	4a13      	ldr	r2, [pc, #76]	@ (80021bc <HAL_RCC_ClockConfig+0x130>)
 8002170:	6921      	ldr	r1, [r4, #16]
 8002172:	6853      	ldr	r3, [r2, #4]
 8002174:	f423 5360 	bic.w	r3, r3, #14336	@ 0x3800
 8002178:	ea43 03c1 	orr.w	r3, r3, r1, lsl #3
 800217c:	6053      	str	r3, [r2, #4]
  SystemCoreClock = HAL_RCC_GetSysClockFreq() >> AHBPrescTable[(RCC->CFGR & RCC_CFGR_HPRE) >> RCC_CFGR_HPRE_Pos];
 800217e:	f7ff ff5d 	bl	800203c <HAL_RCC_GetSysClockFreq>
 8002182:	4603      	mov	r3, r0
 8002184:	4a0d      	ldr	r2, [pc, #52]	@ (80021bc <HAL_RCC_ClockConfig+0x130>)
 8002186:	490e      	ldr	r1, [pc, #56]	@ (80021c0 <HAL_RCC_ClockConfig+0x134>)
 8002188:	6852      	ldr	r2, [r2, #4]
  HAL_InitTick(uwTickPrio);
 800218a:	480e      	ldr	r0, [pc, #56]	@ (80021c4 <HAL_RCC_ClockConfig+0x138>)
  SystemCoreClock = HAL_RCC_GetSysClockFreq() >> AHBPrescTable[(RCC->CFGR & RCC_CFGR_HPRE) >> RCC_CFGR_HPRE_Pos];
 800218c:	f3c2 1203 	ubfx	r2, r2, #4, #4
 8002190:	5c89      	ldrb	r1, [r1, r2]
 8002192:	4a0d      	ldr	r2, [pc, #52]	@ (80021c8 <HAL_RCC_ClockConfig+0x13c>)
 8002194:	40cb      	lsrs	r3, r1
  HAL_InitTick(uwTickPrio);
 8002196:	6800      	ldr	r0, [r0, #0]
  SystemCoreClock = HAL_RCC_GetSysClockFreq() >> AHBPrescTable[(RCC->CFGR & RCC_CFGR_HPRE) >> RCC_CFGR_HPRE_Pos];
 8002198:	6013      	str	r3, [r2, #0]
  HAL_InitTick(uwTickPrio);
 800219a:	f7fe fb9b 	bl	80008d4 <HAL_InitTick>
  return HAL_OK;
 800219e:	2000      	movs	r0, #0
}
 80021a0:	e8bd 81f0 	ldmia.w	sp!, {r4, r5, r6, r7, r8, pc}
      if (__HAL_RCC_GET_FLAG(RCC_FLAG_PLLRDY) == RESET)
 80021a4:	0198      	lsls	r0, r3, #6
 80021a6:	d4ae      	bmi.n	8002106 <HAL_RCC_ClockConfig+0x7a>
 80021a8:	e787      	b.n	80020ba <HAL_RCC_ClockConfig+0x2e>
    return HAL_ERROR;
 80021aa:	2001      	movs	r0, #1
}
 80021ac:	4770      	bx	lr
      if (__HAL_RCC_GET_FLAG(RCC_FLAG_HSERDY) == RESET)
 80021ae:	039e      	lsls	r6, r3, #14
 80021b0:	d4a9      	bmi.n	8002106 <HAL_RCC_ClockConfig+0x7a>
 80021b2:	e782      	b.n	80020ba <HAL_RCC_ClockConfig+0x2e>
        return HAL_TIMEOUT;
 80021b4:	2003      	movs	r0, #3
 80021b6:	e781      	b.n	80020bc <HAL_RCC_ClockConfig+0x30>
 80021b8:	40022000 	.word	0x40022000
 80021bc:	40021000 	.word	0x40021000
 80021c0:	08006138 	.word	0x08006138
 80021c4:	20000008 	.word	0x20000008
 80021c8:	20000000 	.word	0x20000000

080021cc <HAL_RCC_GetPCLK1Freq>:
  return (HAL_RCC_GetHCLKFreq() >> APBPrescTable[(RCC->CFGR & RCC_CFGR_PPRE1) >> RCC_CFGR_PPRE1_Pos]);
 80021cc:	4b04      	ldr	r3, [pc, #16]	@ (80021e0 <HAL_RCC_GetPCLK1Freq+0x14>)
  return SystemCoreClock;
 80021ce:	4a05      	ldr	r2, [pc, #20]	@ (80021e4 <HAL_RCC_GetPCLK1Freq+0x18>)
  return (HAL_RCC_GetHCLKFreq() >> APBPrescTable[(RCC->CFGR & RCC_CFGR_PPRE1) >> RCC_CFGR_PPRE1_Pos]);
 80021d0:	685b      	ldr	r3, [r3, #4]
 80021d2:	4905      	ldr	r1, [pc, #20]	@ (80021e8 <HAL_RCC_GetPCLK1Freq+0x1c>)
 80021d4:	f3c3 2302 	ubfx	r3, r3, #8, #3
 80021d8:	5ccb      	ldrb	r3, [r1, r3]
 80021da:	6810      	ldr	r0, [r2, #0]
}
 80021dc:	40d8      	lsrs	r0, r3
 80021de:	4770      	bx	lr
 80021e0:	40021000 	.word	0x40021000
 80021e4:	20000000 	.word	0x20000000
 80021e8:	08006130 	.word	0x08006130

080021ec <HAL_RCC_GetPCLK2Freq>:
  return (HAL_RCC_GetHCLKFreq() >> APBPrescTable[(RCC->CFGR & RCC_CFGR_PPRE2) >> RCC_CFGR_PPRE2_Pos]);
 80021ec:	4b04      	ldr	r3, [pc, #16]	@ (8002200 <HAL_RCC_GetPCLK2Freq+0x14>)
  return SystemCoreClock;
 80021ee:	4a05      	ldr	r2, [pc, #20]	@ (8002204 <HAL_RCC_GetPCLK2Freq+0x18>)
  return (HAL_RCC_GetHCLKFreq() >> APBPrescTable[(RCC->CFGR & RCC_CFGR_PPRE2) >> RCC_CFGR_PPRE2_Pos]);
 80021f0:	685b      	ldr	r3, [r3, #4]
 80021f2:	4905      	ldr	r1, [pc, #20]	@ (8002208 <HAL_RCC_GetPCLK2Freq+0x1c>)
 80021f4:	f3c3 23c2 	ubfx	r3, r3, #11, #3
 80021f8:	5ccb      	ldrb	r3, [r1, r3]
 80021fa:	6810      	ldr	r0, [r2, #0]
}
 80021fc:	40d8      	lsrs	r0, r3
 80021fe:	4770      	bx	lr
 8002200:	40021000 	.word	0x40021000
 8002204:	20000000 	.word	0x20000000
 8002208:	08006130 	.word	0x08006130

0800220c <HAL_RCCEx_PeriphCLKConfig>:
  *         manually disable it.
  *
  * @retval HAL status
  */
HAL_StatusTypeDef HAL_RCCEx_PeriphCLKConfig(RCC_PeriphCLKInitTypeDef  *PeriphClkInit)
{
 800220c:	e92d 41f0 	stmdb	sp!, {r4, r5, r6, r7, r8, lr}

  /* Check the parameters */
  assert_param(IS_RCC_PERIPHCLOCK(PeriphClkInit->PeriphClockSelection));

  /*------------------------------- RTC/LCD Configuration ------------------------*/
  if ((((PeriphClkInit->PeriphClockSelection) & RCC_PERIPHCLK_RTC) == RCC_PERIPHCLK_RTC))
 8002210:	6803      	ldr	r3, [r0, #0]
{
 8002212:	4604      	mov	r4, r0
  if ((((PeriphClkInit->PeriphClockSelection) & RCC_PERIPHCLK_RTC) == RCC_PERIPHCLK_RTC))
 8002214:	07d8      	lsls	r0, r3, #31
{
 8002216:	b082      	sub	sp, #8
  if ((((PeriphClkInit->PeriphClockSelection) & RCC_PERIPHCLK_RTC) == RCC_PERIPHCLK_RTC))
 8002218:	d52c      	bpl.n	8002274 <HAL_RCCEx_PeriphCLKConfig+0x68>
    assert_param(IS_RCC_RTCCLKSOURCE(PeriphClkInit->RTCClockSelection));

    /* As soon as function is called to change RTC clock source, activation of the
       power domain is done. */
    /* Requires to enable write access to Backup Domain of necessary */
    if (__HAL_RCC_PWR_IS_CLK_DISABLED())
 800221a:	4b39      	ldr	r3, [pc, #228]	@ (8002300 <HAL_RCCEx_PeriphCLKConfig+0xf4>)
 800221c:	69da      	ldr	r2, [r3, #28]
 800221e:	00d1      	lsls	r1, r2, #3
 8002220:	d53f      	bpl.n	80022a2 <HAL_RCCEx_PeriphCLKConfig+0x96>
    {
      __HAL_RCC_PWR_CLK_ENABLE();
      pwrclkchanged = SET;
    }

    if (HAL_IS_BIT_CLR(PWR->CR, PWR_CR_DBP))
 8002222:	4d38      	ldr	r5, [pc, #224]	@ (8002304 <HAL_RCCEx_PeriphCLKConfig+0xf8>)
    FlagStatus pwrclkchanged = RESET;
 8002224:	2600      	movs	r6, #0
    if (HAL_IS_BIT_CLR(PWR->CR, PWR_CR_DBP))
 8002226:	682b      	ldr	r3, [r5, #0]
 8002228:	05da      	lsls	r2, r3, #23
 800222a:	d548      	bpl.n	80022be <HAL_RCCEx_PeriphCLKConfig+0xb2>
        }
      }
    }

    /* Reset the Backup domain only if the RTC Clock source selection is modified from reset value */
    temp_reg = (RCC->BDCR & RCC_BDCR_RTCSEL);
 800222c:	4d34      	ldr	r5, [pc, #208]	@ (8002300 <HAL_RCCEx_PeriphCLKConfig+0xf4>)
    if ((temp_reg != 0x00000000U) && (temp_reg != (PeriphClkInit->RTCClockSelection & RCC_BDCR_RTCSEL)))
 800222e:	6861      	ldr	r1, [r4, #4]
    temp_reg = (RCC->BDCR & RCC_BDCR_RTCSEL);
 8002230:	6a2b      	ldr	r3, [r5, #32]
    if ((temp_reg != 0x00000000U) && (temp_reg != (PeriphClkInit->RTCClockSelection & RCC_BDCR_RTCSEL)))
 8002232:	f413 7340 	ands.w	r3, r3, #768	@ 0x300
 8002236:	d011      	beq.n	800225c <HAL_RCCEx_PeriphCLKConfig+0x50>
 8002238:	f401 7240 	and.w	r2, r1, #768	@ 0x300
 800223c:	429a      	cmp	r2, r3
 800223e:	d00d      	beq.n	800225c <HAL_RCCEx_PeriphCLKConfig+0x50>
    {
      /* Store the content of BDCR register before the reset of Backup Domain */
      temp_reg = (RCC->BDCR & ~(RCC_BDCR_RTCSEL));
      /* RTC Clock selection can be changed only if the Backup Domain is reset */
      __HAL_RCC_BACKUPRESET_FORCE();
      __HAL_RCC_BACKUPRESET_RELEASE();
 8002240:	2000      	movs	r0, #0
      __HAL_RCC_BACKUPRESET_FORCE();
 8002242:	2701      	movs	r7, #1
      temp_reg = (RCC->BDCR & ~(RCC_BDCR_RTCSEL));
 8002244:	6a2b      	ldr	r3, [r5, #32]
      __HAL_RCC_BACKUPRESET_FORCE();
 8002246:	4a30      	ldr	r2, [pc, #192]	@ (8002308 <HAL_RCCEx_PeriphCLKConfig+0xfc>)
      temp_reg = (RCC->BDCR & ~(RCC_BDCR_RTCSEL));
 8002248:	f423 7140 	bic.w	r1, r3, #768	@ 0x300
      __HAL_RCC_BACKUPRESET_FORCE();
 800224c:	f8c2 7440 	str.w	r7, [r2, #1088]	@ 0x440
      __HAL_RCC_BACKUPRESET_RELEASE();
 8002250:	f8c2 0440 	str.w	r0, [r2, #1088]	@ 0x440
      /* Restore the Content of BDCR register */
      RCC->BDCR = temp_reg;

      /* Wait for LSERDY if LSE was enabled */
      if (HAL_IS_BIT_SET(temp_reg, RCC_BDCR_LSEON))
 8002254:	07d8      	lsls	r0, r3, #31
      RCC->BDCR = temp_reg;
 8002256:	6229      	str	r1, [r5, #32]
      if (HAL_IS_BIT_SET(temp_reg, RCC_BDCR_LSEON))
 8002258:	d444      	bmi.n	80022e4 <HAL_RCCEx_PeriphCLKConfig+0xd8>
            return HAL_TIMEOUT;
          }
        }
      }
    }
    __HAL_RCC_RTC_CONFIG(PeriphClkInit->RTCClockSelection);
 800225a:	6861      	ldr	r1, [r4, #4]
 800225c:	4a28      	ldr	r2, [pc, #160]	@ (8002300 <HAL_RCCEx_PeriphCLKConfig+0xf4>)
 800225e:	6a13      	ldr	r3, [r2, #32]
 8002260:	f423 7340 	bic.w	r3, r3, #768	@ 0x300
 8002264:	430b      	orrs	r3, r1
 8002266:	6213      	str	r3, [r2, #32]

    /* Require to disable power clock if necessary */
    if (pwrclkchanged == SET)
 8002268:	b11e      	cbz	r6, 8002272 <HAL_RCCEx_PeriphCLKConfig+0x66>
    {
      __HAL_RCC_PWR_CLK_DISABLE();
 800226a:	69d3      	ldr	r3, [r2, #28]
 800226c:	f023 5380 	bic.w	r3, r3, #268435456	@ 0x10000000
 8002270:	61d3      	str	r3, [r2, #28]
    }
  }

  /*------------------------------ ADC clock Configuration ------------------*/
  if (((PeriphClkInit->PeriphClockSelection) & RCC_PERIPHCLK_ADC) == RCC_PERIPHCLK_ADC)
 8002272:	6823      	ldr	r3, [r4, #0]
 8002274:	079a      	lsls	r2, r3, #30
 8002276:	d506      	bpl.n	8002286 <HAL_RCCEx_PeriphCLKConfig+0x7a>
  {
    /* Check the parameters */
    assert_param(IS_RCC_ADCPLLCLK_DIV(PeriphClkInit->AdcClockSelection));

    /* Configure the ADC clock source */
    __HAL_RCC_ADC_CONFIG(PeriphClkInit->AdcClockSelection);
 8002278:	4921      	ldr	r1, [pc, #132]	@ (8002300 <HAL_RCCEx_PeriphCLKConfig+0xf4>)
 800227a:	68a0      	ldr	r0, [r4, #8]
 800227c:	684a      	ldr	r2, [r1, #4]
 800227e:	f422 4240 	bic.w	r2, r2, #49152	@ 0xc000
 8002282:	4302      	orrs	r2, r0
 8002284:	604a      	str	r2, [r1, #4]

#if defined(STM32F102x6) || defined(STM32F102xB) || defined(STM32F103x6)\
 || defined(STM32F103xB) || defined(STM32F103xE) || defined(STM32F103xG)\
 || defined(STM32F105xC) || defined(STM32F107xC)
  /*------------------------------ USB clock Configuration ------------------*/
  if (((PeriphClkInit->PeriphClockSelection) & RCC_PERIPHCLK_USB) == RCC_PERIPHCLK_USB)
 8002286:	06db      	lsls	r3, r3, #27
 8002288:	d403      	bmi.n	8002292 <HAL_RCCEx_PeriphCLKConfig+0x86>
    /* Configure the USB clock source */
    __HAL_RCC_USB_CONFIG(PeriphClkInit->UsbClockSelection);
  }
#endif /* STM32F102x6 || STM32F102xB || STM32F103x6 || STM32F103xB || STM32F103xE || STM32F103xG || STM32F105xC || STM32F107xC */

  return HAL_OK;
 800228a:	2000      	movs	r0, #0
}
 800228c:	b002      	add	sp, #8
 800228e:	e8bd 81f0 	ldmia.w	sp!, {r4, r5, r6, r7, r8, pc}
    __HAL_RCC_USB_CONFIG(PeriphClkInit->UsbClockSelection);
 8002292:	4a1b      	ldr	r2, [pc, #108]	@ (8002300 <HAL_RCCEx_PeriphCLKConfig+0xf4>)
 8002294:	68e1      	ldr	r1, [r4, #12]
 8002296:	6853      	ldr	r3, [r2, #4]
 8002298:	f423 0380 	bic.w	r3, r3, #4194304	@ 0x400000
 800229c:	430b      	orrs	r3, r1
 800229e:	6053      	str	r3, [r2, #4]
 80022a0:	e7f3      	b.n	800228a <HAL_RCCEx_PeriphCLKConfig+0x7e>
      __HAL_RCC_PWR_CLK_ENABLE();
 80022a2:	69da      	ldr	r2, [r3, #28]
    if (HAL_IS_BIT_CLR(PWR->CR, PWR_CR_DBP))
 80022a4:	4d17      	ldr	r5, [pc, #92]	@ (8002304 <HAL_RCCEx_PeriphCLKConfig+0xf8>)
      __HAL_RCC_PWR_CLK_ENABLE();
 80022a6:	f042 5280 	orr.w	r2, r2, #268435456	@ 0x10000000
 80022aa:	61da      	str	r2, [r3, #28]
 80022ac:	69db      	ldr	r3, [r3, #28]
      pwrclkchanged = SET;
 80022ae:	2601      	movs	r6, #1
      __HAL_RCC_PWR_CLK_ENABLE();
 80022b0:	f003 5380 	and.w	r3, r3, #268435456	@ 0x10000000
 80022b4:	9301      	str	r3, [sp, #4]
 80022b6:	9b01      	ldr	r3, [sp, #4]
    if (HAL_IS_BIT_CLR(PWR->CR, PWR_CR_DBP))
 80022b8:	682b      	ldr	r3, [r5, #0]
 80022ba:	05da      	lsls	r2, r3, #23
 80022bc:	d4b6      	bmi.n	800222c <HAL_RCCEx_PeriphCLKConfig+0x20>
      SET_BIT(PWR->CR, PWR_CR_DBP);
 80022be:	682b      	ldr	r3, [r5, #0]
 80022c0:	f443 7380 	orr.w	r3, r3, #256	@ 0x100
 80022c4:	602b      	str	r3, [r5, #0]
      tickstart = HAL_GetTick();
 80022c6:	f7fe fb47 	bl	8000958 <HAL_GetTick>
 80022ca:	4607      	mov	r7, r0
      while (HAL_IS_BIT_CLR(PWR->CR, PWR_CR_DBP))
 80022cc:	682b      	ldr	r3, [r5, #0]
 80022ce:	05db      	lsls	r3, r3, #23
 80022d0:	d4ac      	bmi.n	800222c <HAL_RCCEx_PeriphCLKConfig+0x20>
        if ((HAL_GetTick() - tickstart) > RCC_DBP_TIMEOUT_VALUE)
 80022d2:	f7fe fb41 	bl	8000958 <HAL_GetTick>
 80022d6:	1bc3      	subs	r3, r0, r7
 80022d8:	2b64      	cmp	r3, #100	@ 0x64
 80022da:	d9f7      	bls.n	80022cc <HAL_RCCEx_PeriphCLKConfig+0xc0>
          return HAL_TIMEOUT;
 80022dc:	2003      	movs	r0, #3
}
 80022de:	b002      	add	sp, #8
 80022e0:	e8bd 81f0 	ldmia.w	sp!, {r4, r5, r6, r7, r8, pc}
        tickstart = HAL_GetTick();
 80022e4:	f7fe fb38 	bl	8000958 <HAL_GetTick>
          if ((HAL_GetTick() - tickstart) > RCC_LSE_TIMEOUT_VALUE)
 80022e8:	f241 3888 	movw	r8, #5000	@ 0x1388
        tickstart = HAL_GetTick();
 80022ec:	4607      	mov	r7, r0
        while (__HAL_RCC_GET_FLAG(RCC_FLAG_LSERDY) == RESET)
 80022ee:	6a2b      	ldr	r3, [r5, #32]
 80022f0:	0799      	lsls	r1, r3, #30
 80022f2:	d4b2      	bmi.n	800225a <HAL_RCCEx_PeriphCLKConfig+0x4e>
          if ((HAL_GetTick() - tickstart) > RCC_LSE_TIMEOUT_VALUE)
 80022f4:	f7fe fb30 	bl	8000958 <HAL_GetTick>
 80022f8:	1bc0      	subs	r0, r0, r7
 80022fa:	4540      	cmp	r0, r8
 80022fc:	d9f7      	bls.n	80022ee <HAL_RCCEx_PeriphCLKConfig+0xe2>
 80022fe:	e7ed      	b.n	80022dc <HAL_RCCEx_PeriphCLKConfig+0xd0>
 8002300:	40021000 	.word	0x40021000
 8002304:	40007000 	.word	0x40007000
 8002308:	42420000 	.word	0x42420000

0800230c <TIM_OC1_SetConfig>:
  uint32_t tmpccmrx;
  uint32_t tmpccer;
  uint32_t tmpcr2;

  /* Get the TIMx CCER register value */
  tmpccer = TIMx->CCER;
 800230c:	6a03      	ldr	r3, [r0, #32]

  /* Disable the Channel 1: Reset the CC1E Bit */
  TIMx->CCER &= ~TIM_CCER_CC1E;
 800230e:	6a02      	ldr	r2, [r0, #32]
{
 8002310:	b470      	push	{r4, r5, r6}
  TIMx->CCER &= ~TIM_CCER_CC1E;
 8002312:	f022 0201 	bic.w	r2, r2, #1
 8002316:	6202      	str	r2, [r0, #32]

  /* Get the TIMx CR2 register value */
  tmpcr2 =  TIMx->CR2;
 8002318:	6844      	ldr	r4, [r0, #4]

  /* Get the TIMx CCMR1 register value */
  tmpccmrx = TIMx->CCMR1;
 800231a:	6982      	ldr	r2, [r0, #24]

  /* Reset the Output Compare Mode Bits */
  tmpccmrx &= ~TIM_CCMR1_OC1M;
  tmpccmrx &= ~TIM_CCMR1_CC1S;
  /* Select the Output Compare Mode */
  tmpccmrx |= OC_Config->OCMode;
 800231c:	680e      	ldr	r6, [r1, #0]
  /* Reset the Output Polarity level */
  tmpccer &= ~TIM_CCER_CC1P;
  /* Set the Output Compare Polarity */
  tmpccer |= OC_Config->OCPolarity;

  if (IS_TIM_CCXN_INSTANCE(TIMx, TIM_CHANNEL_1))
 800231e:	4d0f      	ldr	r5, [pc, #60]	@ (800235c <TIM_OC1_SetConfig+0x50>)
  tmpccmrx &= ~TIM_CCMR1_CC1S;
 8002320:	f022 0273 	bic.w	r2, r2, #115	@ 0x73
  tmpccmrx |= OC_Config->OCMode;
 8002324:	4332      	orrs	r2, r6
  tmpccer |= OC_Config->OCPolarity;
 8002326:	688e      	ldr	r6, [r1, #8]
  tmpccer &= ~TIM_CCER_CC1P;
 8002328:	f023 0302 	bic.w	r3, r3, #2
  if (IS_TIM_CCXN_INSTANCE(TIMx, TIM_CHANNEL_1))
 800232c:	42a8      	cmp	r0, r5
  tmpccer |= OC_Config->OCPolarity;
 800232e:	ea43 0306 	orr.w	r3, r3, r6
  if (IS_TIM_CCXN_INSTANCE(TIMx, TIM_CHANNEL_1))
 8002332:	d006      	beq.n	8002342 <TIM_OC1_SetConfig+0x36>

  /* Write to TIMx CCMR1 */
  TIMx->CCMR1 = tmpccmrx;

  /* Set the Capture Compare Register value */
  TIMx->CCR1 = OC_Config->Pulse;
 8002334:	6849      	ldr	r1, [r1, #4]
  TIMx->CR2 = tmpcr2;
 8002336:	6044      	str	r4, [r0, #4]
  TIMx->CCMR1 = tmpccmrx;
 8002338:	6182      	str	r2, [r0, #24]

  /* Write to TIMx CCER */
  TIMx->CCER = tmpccer;
}
 800233a:	bc70      	pop	{r4, r5, r6}
  TIMx->CCR1 = OC_Config->Pulse;
 800233c:	6341      	str	r1, [r0, #52]	@ 0x34
  TIMx->CCER = tmpccer;
 800233e:	6203      	str	r3, [r0, #32]
}
 8002340:	4770      	bx	lr
    tmpccer |= OC_Config->OCNPolarity;
 8002342:	68cd      	ldr	r5, [r1, #12]
    tmpccer &= ~TIM_CCER_CC1NP;
 8002344:	f023 0308 	bic.w	r3, r3, #8
    tmpccer |= OC_Config->OCNPolarity;
 8002348:	432b      	orrs	r3, r5
    tmpcr2 &= ~TIM_CR2_OIS1N;
 800234a:	f424 7440 	bic.w	r4, r4, #768	@ 0x300
    tmpcr2 |= OC_Config->OCNIdleState;
 800234e:	e9d1 5605 	ldrd	r5, r6, [r1, #20]
 8002352:	4335      	orrs	r5, r6
    tmpccer &= ~TIM_CCER_CC1NE;
 8002354:	f023 0304 	bic.w	r3, r3, #4
    tmpcr2 |= OC_Config->OCNIdleState;
 8002358:	432c      	orrs	r4, r5
 800235a:	e7eb      	b.n	8002334 <TIM_OC1_SetConfig+0x28>
 800235c:	40012c00 	.word	0x40012c00

08002360 <TIM_OC3_SetConfig>:
  uint32_t tmpccmrx;
  uint32_t tmpccer;
  uint32_t tmpcr2;

  /* Get the TIMx CCER register value */
  tmpccer = TIMx->CCER;
 8002360:	6a03      	ldr	r3, [r0, #32]

  /* Disable the Channel 3: Reset the CC2E Bit */
  TIMx->CCER &= ~TIM_CCER_CC3E;
 8002362:	6a02      	ldr	r2, [r0, #32]
{
 8002364:	b470      	push	{r4, r5, r6}
  TIMx->CCER &= ~TIM_CCER_CC3E;
 8002366:	f422 7280 	bic.w	r2, r2, #256	@ 0x100
 800236a:	6202      	str	r2, [r0, #32]

  /* Get the TIMx CR2 register value */
  tmpcr2 =  TIMx->CR2;
 800236c:	6844      	ldr	r4, [r0, #4]

  /* Get the TIMx CCMR2 register value */
  tmpccmrx = TIMx->CCMR2;
 800236e:	69c2      	ldr	r2, [r0, #28]

  /* Reset the Output Compare mode and Capture/Compare selection Bits */
  tmpccmrx &= ~TIM_CCMR2_OC3M;
  tmpccmrx &= ~TIM_CCMR2_CC3S;
  /* Select the Output Compare Mode */
  tmpccmrx |= OC_Config->OCMode;
 8002370:	680e      	ldr	r6, [r1, #0]
  /* Reset the Output Polarity level */
  tmpccer &= ~TIM_CCER_CC3P;
  /* Set the Output Compare Polarity */
  tmpccer |= (OC_Config->OCPolarity << 8U);

  if (IS_TIM_CCXN_INSTANCE(TIMx, TIM_CHANNEL_3))
 8002372:	4d10      	ldr	r5, [pc, #64]	@ (80023b4 <TIM_OC3_SetConfig+0x54>)
  tmpccmrx &= ~TIM_CCMR2_CC3S;
 8002374:	f022 0273 	bic.w	r2, r2, #115	@ 0x73
  tmpccmrx |= OC_Config->OCMode;
 8002378:	4332      	orrs	r2, r6
  tmpccer |= (OC_Config->OCPolarity << 8U);
 800237a:	688e      	ldr	r6, [r1, #8]
  tmpccer &= ~TIM_CCER_CC3P;
 800237c:	f423 7300 	bic.w	r3, r3, #512	@ 0x200
  if (IS_TIM_CCXN_INSTANCE(TIMx, TIM_CHANNEL_3))
 8002380:	42a8      	cmp	r0, r5
  tmpccer |= (OC_Config->OCPolarity << 8U);
 8002382:	ea43 2306 	orr.w	r3, r3, r6, lsl #8
  if (IS_TIM_CCXN_INSTANCE(TIMx, TIM_CHANNEL_3))
 8002386:	d006      	beq.n	8002396 <TIM_OC3_SetConfig+0x36>

  /* Write to TIMx CCMR2 */
  TIMx->CCMR2 = tmpccmrx;

  /* Set the Capture Compare Register value */
  TIMx->CCR3 = OC_Config->Pulse;
 8002388:	6849      	ldr	r1, [r1, #4]
  TIMx->CR2 = tmpcr2;
 800238a:	6044      	str	r4, [r0, #4]
  TIMx->CCMR2 = tmpccmrx;
 800238c:	61c2      	str	r2, [r0, #28]

  /* Write to TIMx CCER */
  TIMx->CCER = tmpccer;
}
 800238e:	bc70      	pop	{r4, r5, r6}
  TIMx->CCR3 = OC_Config->Pulse;
 8002390:	63c1      	str	r1, [r0, #60]	@ 0x3c
  TIMx->CCER = tmpccer;
 8002392:	6203      	str	r3, [r0, #32]
}
 8002394:	4770      	bx	lr
    tmpccer |= (OC_Config->OCNPolarity << 8U);
 8002396:	68cd      	ldr	r5, [r1, #12]
    tmpccer &= ~TIM_CCER_CC3NP;
 8002398:	f423 6300 	bic.w	r3, r3, #2048	@ 0x800
    tmpccer |= (OC_Config->OCNPolarity << 8U);
 800239c:	ea43 2305 	orr.w	r3, r3, r5, lsl #8
    tmpcr2 &= ~TIM_CR2_OIS3N;
 80023a0:	f424 5440 	bic.w	r4, r4, #12288	@ 0x3000
    tmpcr2 |= (OC_Config->OCNIdleState << 4U);
 80023a4:	e9d1 5605 	ldrd	r5, r6, [r1, #20]
 80023a8:	4335      	orrs	r5, r6
    tmpccer &= ~TIM_CCER_CC3NE;
 80023aa:	f423 6380 	bic.w	r3, r3, #1024	@ 0x400
    tmpcr2 |= (OC_Config->OCNIdleState << 4U);
 80023ae:	ea44 1405 	orr.w	r4, r4, r5, lsl #4
 80023b2:	e7e9      	b.n	8002388 <TIM_OC3_SetConfig+0x28>
 80023b4:	40012c00 	.word	0x40012c00

080023b8 <TIM_OC4_SetConfig>:
  uint32_t tmpccmrx;
  uint32_t tmpccer;
  uint32_t tmpcr2;

  /* Get the TIMx CCER register value */
  tmpccer = TIMx->CCER;
 80023b8:	6a03      	ldr	r3, [r0, #32]

  /* Disable the Channel 4: Reset the CC4E Bit */
  TIMx->CCER &= ~TIM_CCER_CC4E;
 80023ba:	6a02      	ldr	r2, [r0, #32]
{
 80023bc:	b430      	push	{r4, r5}
  TIMx->CCER &= ~TIM_CCER_CC4E;
 80023be:	f422 5280 	bic.w	r2, r2, #4096	@ 0x1000
 80023c2:	6202      	str	r2, [r0, #32]

  /* Get the TIMx CR2 register value */
  tmpcr2 =  TIMx->CR2;
 80023c4:	6844      	ldr	r4, [r0, #4]

  /* Get the TIMx CCMR2 register value */
  tmpccmrx = TIMx->CCMR2;
 80023c6:	69c2      	ldr	r2, [r0, #28]
  /* Reset the Output Compare mode and Capture/Compare selection Bits */
  tmpccmrx &= ~TIM_CCMR2_OC4M;
  tmpccmrx &= ~TIM_CCMR2_CC4S;

  /* Select the Output Compare Mode */
  tmpccmrx |= (OC_Config->OCMode << 8U);
 80023c8:	f8d1 c000 	ldr.w	ip, [r1]
  /* Reset the Output Polarity level */
  tmpccer &= ~TIM_CCER_CC4P;
  /* Set the Output Compare Polarity */
  tmpccer |= (OC_Config->OCPolarity << 12U);

  if (IS_TIM_BREAK_INSTANCE(TIMx))
 80023cc:	4d0c      	ldr	r5, [pc, #48]	@ (8002400 <TIM_OC4_SetConfig+0x48>)
  tmpccmrx &= ~TIM_CCMR2_CC4S;
 80023ce:	f422 42e6 	bic.w	r2, r2, #29440	@ 0x7300
  tmpccmrx |= (OC_Config->OCMode << 8U);
 80023d2:	ea42 220c 	orr.w	r2, r2, ip, lsl #8
  tmpccer |= (OC_Config->OCPolarity << 12U);
 80023d6:	f8d1 c008 	ldr.w	ip, [r1, #8]
  tmpccer &= ~TIM_CCER_CC4P;
 80023da:	f423 5300 	bic.w	r3, r3, #8192	@ 0x2000
  if (IS_TIM_BREAK_INSTANCE(TIMx))
 80023de:	42a8      	cmp	r0, r5
  tmpccer |= (OC_Config->OCPolarity << 12U);
 80023e0:	ea43 330c 	orr.w	r3, r3, ip, lsl #12
  if (IS_TIM_BREAK_INSTANCE(TIMx))
 80023e4:	d006      	beq.n	80023f4 <TIM_OC4_SetConfig+0x3c>

  /* Write to TIMx CCMR2 */
  TIMx->CCMR2 = tmpccmrx;

  /* Set the Capture Compare Register value */
  TIMx->CCR4 = OC_Config->Pulse;
 80023e6:	6849      	ldr	r1, [r1, #4]
  TIMx->CR2 = tmpcr2;
 80023e8:	6044      	str	r4, [r0, #4]
  TIMx->CCMR2 = tmpccmrx;
 80023ea:	61c2      	str	r2, [r0, #28]

  /* Write to TIMx CCER */
  TIMx->CCER = tmpccer;
}
 80023ec:	bc30      	pop	{r4, r5}
  TIMx->CCR4 = OC_Config->Pulse;
 80023ee:	6401      	str	r1, [r0, #64]	@ 0x40
  TIMx->CCER = tmpccer;
 80023f0:	6203      	str	r3, [r0, #32]
}
 80023f2:	4770      	bx	lr
    tmpcr2 |= (OC_Config->OCIdleState << 6U);
 80023f4:	694d      	ldr	r5, [r1, #20]
    tmpcr2 &= ~TIM_CR2_OIS4;
 80023f6:	f424 4480 	bic.w	r4, r4, #16384	@ 0x4000
    tmpcr2 |= (OC_Config->OCIdleState << 6U);
 80023fa:	ea44 1485 	orr.w	r4, r4, r5, lsl #6
 80023fe:	e7f2      	b.n	80023e6 <TIM_OC4_SetConfig+0x2e>
 8002400:	40012c00 	.word	0x40012c00

08002404 <HAL_TIM_Base_Start_IT>:
  if (htim->State != HAL_TIM_STATE_READY)
 8002404:	f890 303d 	ldrb.w	r3, [r0, #61]	@ 0x3d
 8002408:	2b01      	cmp	r3, #1
 800240a:	d11f      	bne.n	800244c <HAL_TIM_Base_Start_IT+0x48>
  htim->State = HAL_TIM_STATE_BUSY;
 800240c:	2202      	movs	r2, #2
  __HAL_TIM_ENABLE_IT(htim, TIM_IT_UPDATE);
 800240e:	6803      	ldr	r3, [r0, #0]
  htim->State = HAL_TIM_STATE_BUSY;
 8002410:	f880 203d 	strb.w	r2, [r0, #61]	@ 0x3d
  __HAL_TIM_ENABLE_IT(htim, TIM_IT_UPDATE);
 8002414:	68da      	ldr	r2, [r3, #12]
  if (IS_TIM_SLAVE_INSTANCE(htim->Instance))
 8002416:	490e      	ldr	r1, [pc, #56]	@ (8002450 <HAL_TIM_Base_Start_IT+0x4c>)
  __HAL_TIM_ENABLE_IT(htim, TIM_IT_UPDATE);
 8002418:	f042 0201 	orr.w	r2, r2, #1
  if (IS_TIM_SLAVE_INSTANCE(htim->Instance))
 800241c:	428b      	cmp	r3, r1
  __HAL_TIM_ENABLE_IT(htim, TIM_IT_UPDATE);
 800241e:	60da      	str	r2, [r3, #12]
  if (IS_TIM_SLAVE_INSTANCE(htim->Instance))
 8002420:	d009      	beq.n	8002436 <HAL_TIM_Base_Start_IT+0x32>
 8002422:	f1b3 4f80 	cmp.w	r3, #1073741824	@ 0x40000000
 8002426:	d006      	beq.n	8002436 <HAL_TIM_Base_Start_IT+0x32>
 8002428:	4a0a      	ldr	r2, [pc, #40]	@ (8002454 <HAL_TIM_Base_Start_IT+0x50>)
 800242a:	4293      	cmp	r3, r2
 800242c:	d003      	beq.n	8002436 <HAL_TIM_Base_Start_IT+0x32>
 800242e:	f502 6280 	add.w	r2, r2, #1024	@ 0x400
 8002432:	4293      	cmp	r3, r2
 8002434:	d104      	bne.n	8002440 <HAL_TIM_Base_Start_IT+0x3c>
    tmpsmcr = htim->Instance->SMCR & TIM_SMCR_SMS;
 8002436:	689a      	ldr	r2, [r3, #8]
 8002438:	f002 0207 	and.w	r2, r2, #7
    if (!IS_TIM_SLAVEMODE_TRIGGER_ENABLED(tmpsmcr))
 800243c:	2a06      	cmp	r2, #6
 800243e:	d003      	beq.n	8002448 <HAL_TIM_Base_Start_IT+0x44>
      __HAL_TIM_ENABLE(htim);
 8002440:	681a      	ldr	r2, [r3, #0]
 8002442:	f042 0201 	orr.w	r2, r2, #1
 8002446:	601a      	str	r2, [r3, #0]
  return HAL_OK;
 8002448:	2000      	movs	r0, #0
 800244a:	4770      	bx	lr
    return HAL_ERROR;
 800244c:	2001      	movs	r0, #1
}
 800244e:	4770      	bx	lr
 8002450:	40012c00 	.word	0x40012c00
 8002454:	40000400 	.word	0x40000400

08002458 <HAL_TIM_OC_MspInit>:
__weak void HAL_TIM_OC_MspInit(TIM_HandleTypeDef *htim)
 8002458:	4770      	bx	lr
 800245a:	bf00      	nop

0800245c <HAL_TIM_OC_Start>:
  if (TIM_CHANNEL_STATE_GET(htim, Channel) != HAL_TIM_CHANNEL_STATE_READY)
 800245c:	bb39      	cbnz	r1, 80024ae <HAL_TIM_OC_Start+0x52>
 800245e:	f890 303e 	ldrb.w	r3, [r0, #62]	@ 0x3e
 8002462:	2b01      	cmp	r3, #1
 8002464:	d12b      	bne.n	80024be <HAL_TIM_OC_Start+0x62>
  TIM_CHANNEL_STATE_SET(htim, Channel, HAL_TIM_CHANNEL_STATE_BUSY);
 8002466:	2302      	movs	r3, #2
 8002468:	f880 303e 	strb.w	r3, [r0, #62]	@ 0x3e

  /* Check the parameters */
  assert_param(IS_TIM_CC1_INSTANCE(TIMx));
  assert_param(IS_TIM_CHANNELS(Channel));

  tmp = TIM_CCER_CC1E << (Channel & 0x1FU); /* 0x1FU = 31 bits max shift */
 800246c:	2201      	movs	r2, #1
  TIM_CCxChannelCmd(htim->Instance, Channel, TIM_CCx_ENABLE);
 800246e:	6803      	ldr	r3, [r0, #0]
  tmp = TIM_CCER_CC1E << (Channel & 0x1FU); /* 0x1FU = 31 bits max shift */
 8002470:	f001 011f 	and.w	r1, r1, #31

  /* Reset the CCxE Bit */
  TIMx->CCER &= ~tmp;
 8002474:	6a18      	ldr	r0, [r3, #32]
  tmp = TIM_CCER_CC1E << (Channel & 0x1FU); /* 0x1FU = 31 bits max shift */
 8002476:	408a      	lsls	r2, r1
  TIMx->CCER &= ~tmp;
 8002478:	ea20 0002 	bic.w	r0, r0, r2
{
 800247c:	b410      	push	{r4}
  TIMx->CCER &= ~tmp;
 800247e:	6218      	str	r0, [r3, #32]

  /* Set or reset the CCxE Bit */
  TIMx->CCER |= (uint32_t)(ChannelState << (Channel & 0x1FU)); /* 0x1FU = 31 bits max shift */
 8002480:	6a19      	ldr	r1, [r3, #32]
  if (IS_TIM_BREAK_INSTANCE(htim->Instance) != RESET)
 8002482:	4c20      	ldr	r4, [pc, #128]	@ (8002504 <HAL_TIM_OC_Start+0xa8>)
  TIMx->CCER |= (uint32_t)(ChannelState << (Channel & 0x1FU)); /* 0x1FU = 31 bits max shift */
 8002484:	430a      	orrs	r2, r1
  if (IS_TIM_BREAK_INSTANCE(htim->Instance) != RESET)
 8002486:	42a3      	cmp	r3, r4
  TIMx->CCER |= (uint32_t)(ChannelState << (Channel & 0x1FU)); /* 0x1FU = 31 bits max shift */
 8002488:	621a      	str	r2, [r3, #32]
  if (IS_TIM_BREAK_INSTANCE(htim->Instance) != RESET)
 800248a:	d01a      	beq.n	80024c2 <HAL_TIM_OC_Start+0x66>
  if (IS_TIM_SLAVE_INSTANCE(htim->Instance))
 800248c:	f1b3 4f80 	cmp.w	r3, #1073741824	@ 0x40000000
 8002490:	d01b      	beq.n	80024ca <HAL_TIM_OC_Start+0x6e>
 8002492:	4a1d      	ldr	r2, [pc, #116]	@ (8002508 <HAL_TIM_OC_Start+0xac>)
 8002494:	4293      	cmp	r3, r2
 8002496:	d018      	beq.n	80024ca <HAL_TIM_OC_Start+0x6e>
 8002498:	f502 6280 	add.w	r2, r2, #1024	@ 0x400
 800249c:	4293      	cmp	r3, r2
 800249e:	d014      	beq.n	80024ca <HAL_TIM_OC_Start+0x6e>
      __HAL_TIM_ENABLE(htim);
 80024a0:	681a      	ldr	r2, [r3, #0]
  return HAL_OK;
 80024a2:	2000      	movs	r0, #0
      __HAL_TIM_ENABLE(htim);
 80024a4:	f042 0201 	orr.w	r2, r2, #1
}
 80024a8:	bc10      	pop	{r4}
      __HAL_TIM_ENABLE(htim);
 80024aa:	601a      	str	r2, [r3, #0]
}
 80024ac:	4770      	bx	lr
  if (TIM_CHANNEL_STATE_GET(htim, Channel) != HAL_TIM_CHANNEL_STATE_READY)
 80024ae:	2904      	cmp	r1, #4
 80024b0:	d017      	beq.n	80024e2 <HAL_TIM_OC_Start+0x86>
 80024b2:	2908      	cmp	r1, #8
 80024b4:	d01d      	beq.n	80024f2 <HAL_TIM_OC_Start+0x96>
 80024b6:	f890 3041 	ldrb.w	r3, [r0, #65]	@ 0x41
 80024ba:	2b01      	cmp	r3, #1
 80024bc:	d00d      	beq.n	80024da <HAL_TIM_OC_Start+0x7e>
    return HAL_ERROR;
 80024be:	2001      	movs	r0, #1
}
 80024c0:	4770      	bx	lr
    __HAL_TIM_MOE_ENABLE(htim);
 80024c2:	6c5a      	ldr	r2, [r3, #68]	@ 0x44
 80024c4:	f442 4200 	orr.w	r2, r2, #32768	@ 0x8000
 80024c8:	645a      	str	r2, [r3, #68]	@ 0x44
    tmpsmcr = htim->Instance->SMCR & TIM_SMCR_SMS;
 80024ca:	689a      	ldr	r2, [r3, #8]
 80024cc:	f002 0207 	and.w	r2, r2, #7
    if (!IS_TIM_SLAVEMODE_TRIGGER_ENABLED(tmpsmcr))
 80024d0:	2a06      	cmp	r2, #6
 80024d2:	d1e5      	bne.n	80024a0 <HAL_TIM_OC_Start+0x44>
  return HAL_OK;
 80024d4:	2000      	movs	r0, #0
}
 80024d6:	bc10      	pop	{r4}
 80024d8:	4770      	bx	lr
  TIM_CHANNEL_STATE_SET(htim, Channel, HAL_TIM_CHANNEL_STATE_BUSY);
 80024da:	2302      	movs	r3, #2
 80024dc:	f880 3041 	strb.w	r3, [r0, #65]	@ 0x41
 80024e0:	e7c4      	b.n	800246c <HAL_TIM_OC_Start+0x10>
  if (TIM_CHANNEL_STATE_GET(htim, Channel) != HAL_TIM_CHANNEL_STATE_READY)
 80024e2:	f890 303f 	ldrb.w	r3, [r0, #63]	@ 0x3f
 80024e6:	2b01      	cmp	r3, #1
 80024e8:	d1e9      	bne.n	80024be <HAL_TIM_OC_Start+0x62>
  TIM_CHANNEL_STATE_SET(htim, Channel, HAL_TIM_CHANNEL_STATE_BUSY);
 80024ea:	2302      	movs	r3, #2
 80024ec:	f880 303f 	strb.w	r3, [r0, #63]	@ 0x3f
 80024f0:	e7bc      	b.n	800246c <HAL_TIM_OC_Start+0x10>
  if (TIM_CHANNEL_STATE_GET(htim, Channel) != HAL_TIM_CHANNEL_STATE_READY)
 80024f2:	f890 3040 	ldrb.w	r3, [r0, #64]	@ 0x40
 80024f6:	2b01      	cmp	r3, #1
 80024f8:	d1e1      	bne.n	80024be <HAL_TIM_OC_Start+0x62>
  TIM_CHANNEL_STATE_SET(htim, Channel, HAL_TIM_CHANNEL_STATE_BUSY);
 80024fa:	2302      	movs	r3, #2
 80024fc:	f880 3040 	strb.w	r3, [r0, #64]	@ 0x40
 8002500:	e7b4      	b.n	800246c <HAL_TIM_OC_Start+0x10>
 8002502:	bf00      	nop
 8002504:	40012c00 	.word	0x40012c00
 8002508:	40000400 	.word	0x40000400

0800250c <HAL_TIM_ConfigClockSource>:
  __HAL_LOCK(htim);
 800250c:	f890 203c 	ldrb.w	r2, [r0, #60]	@ 0x3c
 8002510:	2a01      	cmp	r2, #1
 8002512:	d06e      	beq.n	80025f2 <HAL_TIM_ConfigClockSource+0xe6>
 8002514:	4603      	mov	r3, r0
{
 8002516:	b430      	push	{r4, r5}
  __HAL_LOCK(htim);
 8002518:	2001      	movs	r0, #1
  htim->State = HAL_TIM_STATE_BUSY;
 800251a:	2402      	movs	r4, #2
  tmpsmcr = htim->Instance->SMCR;
 800251c:	681a      	ldr	r2, [r3, #0]
  __HAL_LOCK(htim);
 800251e:	f883 003c 	strb.w	r0, [r3, #60]	@ 0x3c
  htim->State = HAL_TIM_STATE_BUSY;
 8002522:	f883 403d 	strb.w	r4, [r3, #61]	@ 0x3d
  tmpsmcr = htim->Instance->SMCR;
 8002526:	6894      	ldr	r4, [r2, #8]
  tmpsmcr &= ~(TIM_SMCR_ETF | TIM_SMCR_ETPS | TIM_SMCR_ECE | TIM_SMCR_ETP);
 8002528:	f424 447f 	bic.w	r4, r4, #65280	@ 0xff00
 800252c:	f024 0477 	bic.w	r4, r4, #119	@ 0x77
  htim->Instance->SMCR = tmpsmcr;
 8002530:	6094      	str	r4, [r2, #8]
  switch (sClockSourceConfig->ClockSource)
 8002532:	680c      	ldr	r4, [r1, #0]
 8002534:	2c60      	cmp	r4, #96	@ 0x60
 8002536:	d076      	beq.n	8002626 <HAL_TIM_ConfigClockSource+0x11a>
 8002538:	d811      	bhi.n	800255e <HAL_TIM_ConfigClockSource+0x52>
 800253a:	2c40      	cmp	r4, #64	@ 0x40
 800253c:	d05b      	beq.n	80025f6 <HAL_TIM_ConfigClockSource+0xea>
 800253e:	d82e      	bhi.n	800259e <HAL_TIM_ConfigClockSource+0x92>
 8002540:	2c20      	cmp	r4, #32
 8002542:	d004      	beq.n	800254e <HAL_TIM_ConfigClockSource+0x42>
 8002544:	f200 8088 	bhi.w	8002658 <HAL_TIM_ConfigClockSource+0x14c>
 8002548:	f034 0110 	bics.w	r1, r4, #16
 800254c:	d11f      	bne.n	800258e <HAL_TIM_ConfigClockSource+0x82>
  tmpsmcr = TIMx->SMCR;
 800254e:	6891      	ldr	r1, [r2, #8]
  tmpsmcr &= ~TIM_SMCR_TS;
 8002550:	f021 0170 	bic.w	r1, r1, #112	@ 0x70
  tmpsmcr |= (InputTriggerSource | TIM_SLAVEMODE_EXTERNAL1);
 8002554:	4321      	orrs	r1, r4
 8002556:	f041 0107 	orr.w	r1, r1, #7
  TIMx->SMCR = tmpsmcr;
 800255a:	6091      	str	r1, [r2, #8]
}
 800255c:	e016      	b.n	800258c <HAL_TIM_ConfigClockSource+0x80>
  switch (sClockSourceConfig->ClockSource)
 800255e:	f5b4 5f80 	cmp.w	r4, #4096	@ 0x1000
 8002562:	d013      	beq.n	800258c <HAL_TIM_ConfigClockSource+0x80>
 8002564:	f5b4 5f00 	cmp.w	r4, #8192	@ 0x2000
 8002568:	d033      	beq.n	80025d2 <HAL_TIM_ConfigClockSource+0xc6>
 800256a:	2c70      	cmp	r4, #112	@ 0x70
 800256c:	d10f      	bne.n	800258e <HAL_TIM_ConfigClockSource+0x82>
  tmpsmcr |= (uint32_t)(TIM_ExtTRGPrescaler | (TIM_ExtTRGPolarity | (ExtTRGFilter << 8U)));
 800256e:	e9d1 5001 	ldrd	r5, r0, [r1, #4]
  tmpsmcr = TIMx->SMCR;
 8002572:	6894      	ldr	r4, [r2, #8]
  tmpsmcr |= (uint32_t)(TIM_ExtTRGPrescaler | (TIM_ExtTRGPolarity | (ExtTRGFilter << 8U)));
 8002574:	4328      	orrs	r0, r5
 8002576:	68cd      	ldr	r5, [r1, #12]
  tmpsmcr &= ~(TIM_SMCR_ETF | TIM_SMCR_ETPS | TIM_SMCR_ECE | TIM_SMCR_ETP);
 8002578:	f424 417f 	bic.w	r1, r4, #65280	@ 0xff00
  tmpsmcr |= (uint32_t)(TIM_ExtTRGPrescaler | (TIM_ExtTRGPolarity | (ExtTRGFilter << 8U)));
 800257c:	ea40 2005 	orr.w	r0, r0, r5, lsl #8
 8002580:	4308      	orrs	r0, r1
  TIMx->SMCR = tmpsmcr;
 8002582:	6090      	str	r0, [r2, #8]
      tmpsmcr = htim->Instance->SMCR;
 8002584:	6891      	ldr	r1, [r2, #8]
      tmpsmcr |= (TIM_SLAVEMODE_EXTERNAL1 | TIM_CLOCKSOURCE_ETRMODE1);
 8002586:	f041 0177 	orr.w	r1, r1, #119	@ 0x77
      htim->Instance->SMCR = tmpsmcr;
 800258a:	6091      	str	r1, [r2, #8]
  HAL_StatusTypeDef status = HAL_OK;
 800258c:	2000      	movs	r0, #0
  htim->State = HAL_TIM_STATE_READY;
 800258e:	2101      	movs	r1, #1
  __HAL_UNLOCK(htim);
 8002590:	2200      	movs	r2, #0
  htim->State = HAL_TIM_STATE_READY;
 8002592:	f883 103d 	strb.w	r1, [r3, #61]	@ 0x3d
  __HAL_UNLOCK(htim);
 8002596:	f883 203c 	strb.w	r2, [r3, #60]	@ 0x3c
}
 800259a:	bc30      	pop	{r4, r5}
 800259c:	4770      	bx	lr
  switch (sClockSourceConfig->ClockSource)
 800259e:	2c50      	cmp	r4, #80	@ 0x50
 80025a0:	d1f5      	bne.n	800258e <HAL_TIM_ConfigClockSource+0x82>
                               sClockSourceConfig->ClockPolarity,
 80025a2:	6848      	ldr	r0, [r1, #4]
                               sClockSourceConfig->ClockFilter);
 80025a4:	68cc      	ldr	r4, [r1, #12]
  tmpccer = TIMx->CCER;
 80025a6:	6a11      	ldr	r1, [r2, #32]
  tmpccer &= ~(TIM_CCER_CC1P | TIM_CCER_CC1NP);
 80025a8:	f021 010a 	bic.w	r1, r1, #10
  tmpccer |= TIM_ICPolarity;
 80025ac:	4308      	orrs	r0, r1
  TIMx->CCER &= ~TIM_CCER_CC1E;
 80025ae:	6a11      	ldr	r1, [r2, #32]
 80025b0:	f021 0101 	bic.w	r1, r1, #1
 80025b4:	6211      	str	r1, [r2, #32]
  tmpccmr1 = TIMx->CCMR1;
 80025b6:	6991      	ldr	r1, [r2, #24]
  tmpccmr1 &= ~TIM_CCMR1_IC1F;
 80025b8:	f021 01f0 	bic.w	r1, r1, #240	@ 0xf0
  tmpccmr1 |= (TIM_ICFilter << 4U);
 80025bc:	ea41 1104 	orr.w	r1, r1, r4, lsl #4
  TIMx->CCMR1 = tmpccmr1;
 80025c0:	6191      	str	r1, [r2, #24]
  TIMx->CCER = tmpccer;
 80025c2:	6210      	str	r0, [r2, #32]
  tmpsmcr = TIMx->SMCR;
 80025c4:	6891      	ldr	r1, [r2, #8]
  tmpsmcr &= ~TIM_SMCR_TS;
 80025c6:	f021 0170 	bic.w	r1, r1, #112	@ 0x70
  tmpsmcr |= (InputTriggerSource | TIM_SLAVEMODE_EXTERNAL1);
 80025ca:	f041 0157 	orr.w	r1, r1, #87	@ 0x57
  TIMx->SMCR = tmpsmcr;
 80025ce:	6091      	str	r1, [r2, #8]
}
 80025d0:	e7dc      	b.n	800258c <HAL_TIM_ConfigClockSource+0x80>
  tmpsmcr |= (uint32_t)(TIM_ExtTRGPrescaler | (TIM_ExtTRGPolarity | (ExtTRGFilter << 8U)));
 80025d2:	e9d1 5001 	ldrd	r5, r0, [r1, #4]
  tmpsmcr = TIMx->SMCR;
 80025d6:	6894      	ldr	r4, [r2, #8]
  tmpsmcr |= (uint32_t)(TIM_ExtTRGPrescaler | (TIM_ExtTRGPolarity | (ExtTRGFilter << 8U)));
 80025d8:	4328      	orrs	r0, r5
 80025da:	68cd      	ldr	r5, [r1, #12]
  tmpsmcr &= ~(TIM_SMCR_ETF | TIM_SMCR_ETPS | TIM_SMCR_ECE | TIM_SMCR_ETP);
 80025dc:	f424 417f 	bic.w	r1, r4, #65280	@ 0xff00
  tmpsmcr |= (uint32_t)(TIM_ExtTRGPrescaler | (TIM_ExtTRGPolarity | (ExtTRGFilter << 8U)));
 80025e0:	ea40 2005 	orr.w	r0, r0, r5, lsl #8
 80025e4:	4308      	orrs	r0, r1
  TIMx->SMCR = tmpsmcr;
 80025e6:	6090      	str	r0, [r2, #8]
      htim->Instance->SMCR |= TIM_SMCR_ECE;
 80025e8:	6891      	ldr	r1, [r2, #8]
 80025ea:	f441 4180 	orr.w	r1, r1, #16384	@ 0x4000
 80025ee:	6091      	str	r1, [r2, #8]
      break;
 80025f0:	e7cc      	b.n	800258c <HAL_TIM_ConfigClockSource+0x80>
  __HAL_LOCK(htim);
 80025f2:	2002      	movs	r0, #2
}
 80025f4:	4770      	bx	lr
                               sClockSourceConfig->ClockPolarity,
 80025f6:	6848      	ldr	r0, [r1, #4]
                               sClockSourceConfig->ClockFilter);
 80025f8:	68cc      	ldr	r4, [r1, #12]
  tmpccer = TIMx->CCER;
 80025fa:	6a11      	ldr	r1, [r2, #32]
  tmpccer &= ~(TIM_CCER_CC1P | TIM_CCER_CC1NP);
 80025fc:	f021 010a 	bic.w	r1, r1, #10
  tmpccer |= TIM_ICPolarity;
 8002600:	4308      	orrs	r0, r1
  TIMx->CCER &= ~TIM_CCER_CC1E;
 8002602:	6a11      	ldr	r1, [r2, #32]
 8002604:	f021 0101 	bic.w	r1, r1, #1
 8002608:	6211      	str	r1, [r2, #32]
  tmpccmr1 = TIMx->CCMR1;
 800260a:	6991      	ldr	r1, [r2, #24]
  tmpccmr1 &= ~TIM_CCMR1_IC1F;
 800260c:	f021 01f0 	bic.w	r1, r1, #240	@ 0xf0
  tmpccmr1 |= (TIM_ICFilter << 4U);
 8002610:	ea41 1104 	orr.w	r1, r1, r4, lsl #4
  TIMx->CCMR1 = tmpccmr1;
 8002614:	6191      	str	r1, [r2, #24]
  TIMx->CCER = tmpccer;
 8002616:	6210      	str	r0, [r2, #32]
  tmpsmcr = TIMx->SMCR;
 8002618:	6891      	ldr	r1, [r2, #8]
  tmpsmcr &= ~TIM_SMCR_TS;
 800261a:	f021 0170 	bic.w	r1, r1, #112	@ 0x70
  tmpsmcr |= (InputTriggerSource | TIM_SLAVEMODE_EXTERNAL1);
 800261e:	f041 0147 	orr.w	r1, r1, #71	@ 0x47
  TIMx->SMCR = tmpsmcr;
 8002622:	6091      	str	r1, [r2, #8]
}
 8002624:	e7b2      	b.n	800258c <HAL_TIM_ConfigClockSource+0x80>
                               sClockSourceConfig->ClockPolarity,
 8002626:	6848      	ldr	r0, [r1, #4]
                               sClockSourceConfig->ClockFilter);
 8002628:	68cc      	ldr	r4, [r1, #12]
  tmpccer = TIMx->CCER;
 800262a:	6a11      	ldr	r1, [r2, #32]
  tmpccer &= ~(TIM_CCER_CC2P | TIM_CCER_CC2NP);
 800262c:	f021 01a0 	bic.w	r1, r1, #160	@ 0xa0
  tmpccer |= (TIM_ICPolarity << 4U);
 8002630:	ea41 1100 	orr.w	r1, r1, r0, lsl #4
  TIMx->CCER &= ~TIM_CCER_CC2E;
 8002634:	6a10      	ldr	r0, [r2, #32]
 8002636:	f020 0010 	bic.w	r0, r0, #16
 800263a:	6210      	str	r0, [r2, #32]
  tmpccmr1 = TIMx->CCMR1;
 800263c:	6990      	ldr	r0, [r2, #24]
  tmpccmr1 &= ~TIM_CCMR1_IC2F;
 800263e:	f420 4070 	bic.w	r0, r0, #61440	@ 0xf000
  tmpccmr1 |= (TIM_ICFilter << 12U);
 8002642:	ea40 3004 	orr.w	r0, r0, r4, lsl #12
  TIMx->CCMR1 = tmpccmr1 ;
 8002646:	6190      	str	r0, [r2, #24]
  TIMx->CCER = tmpccer;
 8002648:	6211      	str	r1, [r2, #32]
  tmpsmcr = TIMx->SMCR;
 800264a:	6891      	ldr	r1, [r2, #8]
  tmpsmcr &= ~TIM_SMCR_TS;
 800264c:	f021 0170 	bic.w	r1, r1, #112	@ 0x70
  tmpsmcr |= (InputTriggerSource | TIM_SLAVEMODE_EXTERNAL1);
 8002650:	f041 0167 	orr.w	r1, r1, #103	@ 0x67
  TIMx->SMCR = tmpsmcr;
 8002654:	6091      	str	r1, [r2, #8]
}
 8002656:	e799      	b.n	800258c <HAL_TIM_ConfigClockSource+0x80>
  switch (sClockSourceConfig->ClockSource)
 8002658:	2c30      	cmp	r4, #48	@ 0x30
 800265a:	f43f af78 	beq.w	800254e <HAL_TIM_ConfigClockSource+0x42>
 800265e:	e796      	b.n	800258e <HAL_TIM_ConfigClockSource+0x82>

08002660 <TIM_Base_SetConfig>:
{
 8002660:	b470      	push	{r4, r5, r6}
  if (IS_TIM_COUNTER_MODE_SELECT_INSTANCE(TIMx))
 8002662:	4e20      	ldr	r6, [pc, #128]	@ (80026e4 <TIM_Base_SetConfig+0x84>)
  tmpcr1 = TIMx->CR1;
 8002664:	6803      	ldr	r3, [r0, #0]
  if (IS_TIM_COUNTER_MODE_SELECT_INSTANCE(TIMx))
 8002666:	42b0      	cmp	r0, r6
  MODIFY_REG(tmpcr1, TIM_CR1_ARPE, Structure->AutoReloadPreload);
 8002668:	694d      	ldr	r5, [r1, #20]
  TIMx->ARR = (uint32_t)Structure->Period ;
 800266a:	688c      	ldr	r4, [r1, #8]
  TIMx->PSC = Structure->Prescaler;
 800266c:	680a      	ldr	r2, [r1, #0]
  if (IS_TIM_COUNTER_MODE_SELECT_INSTANCE(TIMx))
 800266e:	d011      	beq.n	8002694 <TIM_Base_SetConfig+0x34>
 8002670:	f1b0 4f80 	cmp.w	r0, #1073741824	@ 0x40000000
 8002674:	d00e      	beq.n	8002694 <TIM_Base_SetConfig+0x34>
 8002676:	f5a6 3694 	sub.w	r6, r6, #75776	@ 0x12800
 800267a:	42b0      	cmp	r0, r6
 800267c:	d029      	beq.n	80026d2 <TIM_Base_SetConfig+0x72>
 800267e:	f506 6680 	add.w	r6, r6, #1024	@ 0x400
 8002682:	42b0      	cmp	r0, r6
 8002684:	d025      	beq.n	80026d2 <TIM_Base_SetConfig+0x72>
  MODIFY_REG(tmpcr1, TIM_CR1_ARPE, Structure->AutoReloadPreload);
 8002686:	f023 0380 	bic.w	r3, r3, #128	@ 0x80
 800268a:	432b      	orrs	r3, r5
  TIMx->CR1 = tmpcr1;
 800268c:	6003      	str	r3, [r0, #0]
  TIMx->ARR = (uint32_t)Structure->Period ;
 800268e:	62c4      	str	r4, [r0, #44]	@ 0x2c
  TIMx->PSC = Structure->Prescaler;
 8002690:	6282      	str	r2, [r0, #40]	@ 0x28
  if (IS_TIM_REPETITION_COUNTER_INSTANCE(TIMx))
 8002692:	e013      	b.n	80026bc <TIM_Base_SetConfig+0x5c>
    tmpcr1 |= Structure->CounterMode;
 8002694:	684e      	ldr	r6, [r1, #4]
    tmpcr1 &= ~(TIM_CR1_DIR | TIM_CR1_CMS);
 8002696:	f023 0370 	bic.w	r3, r3, #112	@ 0x70
    tmpcr1 |= Structure->CounterMode;
 800269a:	4333      	orrs	r3, r6
    tmpcr1 |= (uint32_t)Structure->ClockDivision;
 800269c:	68ce      	ldr	r6, [r1, #12]
    tmpcr1 &= ~TIM_CR1_CKD;
 800269e:	f423 7340 	bic.w	r3, r3, #768	@ 0x300
    tmpcr1 |= (uint32_t)Structure->ClockDivision;
 80026a2:	4333      	orrs	r3, r6
  MODIFY_REG(tmpcr1, TIM_CR1_ARPE, Structure->AutoReloadPreload);
 80026a4:	f023 0380 	bic.w	r3, r3, #128	@ 0x80
 80026a8:	432b      	orrs	r3, r5
  TIMx->CR1 = tmpcr1;
 80026aa:	6003      	str	r3, [r0, #0]
  if (IS_TIM_REPETITION_COUNTER_INSTANCE(TIMx))
 80026ac:	4b0d      	ldr	r3, [pc, #52]	@ (80026e4 <TIM_Base_SetConfig+0x84>)
  TIMx->ARR = (uint32_t)Structure->Period ;
 80026ae:	62c4      	str	r4, [r0, #44]	@ 0x2c
  if (IS_TIM_REPETITION_COUNTER_INSTANCE(TIMx))
 80026b0:	4298      	cmp	r0, r3
    TIMx->RCR = Structure->RepetitionCounter;
 80026b2:	bf08      	it	eq
 80026b4:	690b      	ldreq	r3, [r1, #16]
  TIMx->PSC = Structure->Prescaler;
 80026b6:	6282      	str	r2, [r0, #40]	@ 0x28
    TIMx->RCR = Structure->RepetitionCounter;
 80026b8:	bf08      	it	eq
 80026ba:	6303      	streq	r3, [r0, #48]	@ 0x30
  TIMx->EGR = TIM_EGR_UG;
 80026bc:	2301      	movs	r3, #1
 80026be:	6143      	str	r3, [r0, #20]
  if (HAL_IS_BIT_SET(TIMx->SR, TIM_FLAG_UPDATE))
 80026c0:	6903      	ldr	r3, [r0, #16]
 80026c2:	07db      	lsls	r3, r3, #31
 80026c4:	d503      	bpl.n	80026ce <TIM_Base_SetConfig+0x6e>
    CLEAR_BIT(TIMx->SR, TIM_FLAG_UPDATE);
 80026c6:	6903      	ldr	r3, [r0, #16]
 80026c8:	f023 0301 	bic.w	r3, r3, #1
 80026cc:	6103      	str	r3, [r0, #16]
}
 80026ce:	bc70      	pop	{r4, r5, r6}
 80026d0:	4770      	bx	lr
    tmpcr1 |= Structure->CounterMode;
 80026d2:	684e      	ldr	r6, [r1, #4]
    tmpcr1 &= ~(TIM_CR1_DIR | TIM_CR1_CMS);
 80026d4:	f023 0370 	bic.w	r3, r3, #112	@ 0x70
    tmpcr1 |= (uint32_t)Structure->ClockDivision;
 80026d8:	68c9      	ldr	r1, [r1, #12]
    tmpcr1 |= Structure->CounterMode;
 80026da:	4333      	orrs	r3, r6
    tmpcr1 &= ~TIM_CR1_CKD;
 80026dc:	f423 7340 	bic.w	r3, r3, #768	@ 0x300
    tmpcr1 |= (uint32_t)Structure->ClockDivision;
 80026e0:	430b      	orrs	r3, r1
 80026e2:	e7d0      	b.n	8002686 <TIM_Base_SetConfig+0x26>
 80026e4:	40012c00 	.word	0x40012c00

080026e8 <HAL_TIM_Base_Init>:
  if (htim == NULL)
 80026e8:	b350      	cbz	r0, 8002740 <HAL_TIM_Base_Init+0x58>
{
 80026ea:	b510      	push	{r4, lr}
  if (htim->State == HAL_TIM_STATE_RESET)
 80026ec:	f890 303d 	ldrb.w	r3, [r0, #61]	@ 0x3d
 80026f0:	4604      	mov	r4, r0
 80026f2:	f003 02ff 	and.w	r2, r3, #255	@ 0xff
 80026f6:	b1f3      	cbz	r3, 8002736 <HAL_TIM_Base_Init+0x4e>
  htim->State = HAL_TIM_STATE_BUSY;
 80026f8:	2302      	movs	r3, #2
  TIM_Base_SetConfig(htim->Instance, &htim->Init);
 80026fa:	4621      	mov	r1, r4
  htim->State = HAL_TIM_STATE_BUSY;
 80026fc:	f884 303d 	strb.w	r3, [r4, #61]	@ 0x3d
  TIM_Base_SetConfig(htim->Instance, &htim->Init);
 8002700:	f851 0b04 	ldr.w	r0, [r1], #4
 8002704:	f7ff ffac 	bl	8002660 <TIM_Base_SetConfig>
  htim->DMABurstState = HAL_DMA_BURST_STATE_READY;
 8002708:	2301      	movs	r3, #1
 800270a:	f884 3046 	strb.w	r3, [r4, #70]	@ 0x46
  TIM_CHANNEL_STATE_SET_ALL(htim, HAL_TIM_CHANNEL_STATE_READY);
 800270e:	f884 303e 	strb.w	r3, [r4, #62]	@ 0x3e
 8002712:	f884 303f 	strb.w	r3, [r4, #63]	@ 0x3f
 8002716:	f884 3040 	strb.w	r3, [r4, #64]	@ 0x40
 800271a:	f884 3041 	strb.w	r3, [r4, #65]	@ 0x41
  TIM_CHANNEL_N_STATE_SET_ALL(htim, HAL_TIM_CHANNEL_STATE_READY);
 800271e:	f884 3042 	strb.w	r3, [r4, #66]	@ 0x42
 8002722:	f884 3043 	strb.w	r3, [r4, #67]	@ 0x43
 8002726:	f884 3044 	strb.w	r3, [r4, #68]	@ 0x44
 800272a:	f884 3045 	strb.w	r3, [r4, #69]	@ 0x45
  htim->State = HAL_TIM_STATE_READY;
 800272e:	f884 303d 	strb.w	r3, [r4, #61]	@ 0x3d
  return HAL_OK;
 8002732:	2000      	movs	r0, #0
}
 8002734:	bd10      	pop	{r4, pc}
    htim->Lock = HAL_UNLOCKED;
 8002736:	f880 203c 	strb.w	r2, [r0, #60]	@ 0x3c
    HAL_TIM_Base_MspInit(htim);
 800273a:	f7fd ff51 	bl	80005e0 <HAL_TIM_Base_MspInit>
 800273e:	e7db      	b.n	80026f8 <HAL_TIM_Base_Init+0x10>
    return HAL_ERROR;
 8002740:	2001      	movs	r0, #1
}
 8002742:	4770      	bx	lr

08002744 <HAL_TIM_OC_Init>:
  if (htim == NULL)
 8002744:	b350      	cbz	r0, 800279c <HAL_TIM_OC_Init+0x58>
{
 8002746:	b510      	push	{r4, lr}
  if (htim->State == HAL_TIM_STATE_RESET)
 8002748:	f890 303d 	ldrb.w	r3, [r0, #61]	@ 0x3d
 800274c:	4604      	mov	r4, r0
 800274e:	f003 02ff 	and.w	r2, r3, #255	@ 0xff
 8002752:	b1f3      	cbz	r3, 8002792 <HAL_TIM_OC_Init+0x4e>
  htim->State = HAL_TIM_STATE_BUSY;
 8002754:	2302      	movs	r3, #2
  TIM_Base_SetConfig(htim->Instance,  &htim->Init);
 8002756:	4621      	mov	r1, r4
  htim->State = HAL_TIM_STATE_BUSY;
 8002758:	f884 303d 	strb.w	r3, [r4, #61]	@ 0x3d
  TIM_Base_SetConfig(htim->Instance,  &htim->Init);
 800275c:	f851 0b04 	ldr.w	r0, [r1], #4
 8002760:	f7ff ff7e 	bl	8002660 <TIM_Base_SetConfig>
  htim->DMABurstState = HAL_DMA_BURST_STATE_READY;
 8002764:	2301      	movs	r3, #1
 8002766:	f884 3046 	strb.w	r3, [r4, #70]	@ 0x46
  TIM_CHANNEL_STATE_SET_ALL(htim, HAL_TIM_CHANNEL_STATE_READY);
 800276a:	f884 303e 	strb.w	r3, [r4, #62]	@ 0x3e
 800276e:	f884 303f 	strb.w	r3, [r4, #63]	@ 0x3f
 8002772:	f884 3040 	strb.w	r3, [r4, #64]	@ 0x40
 8002776:	f884 3041 	strb.w	r3, [r4, #65]	@ 0x41
  TIM_CHANNEL_N_STATE_SET_ALL(htim, HAL_TIM_CHANNEL_STATE_READY);
 800277a:	f884 3042 	strb.w	r3, [r4, #66]	@ 0x42
 800277e:	f884 3043 	strb.w	r3, [r4, #67]	@ 0x43
 8002782:	f884 3044 	strb.w	r3, [r4, #68]	@ 0x44
 8002786:	f884 3045 	strb.w	r3, [r4, #69]	@ 0x45
  htim->State = HAL_TIM_STATE_READY;
 800278a:	f884 303d 	strb.w	r3, [r4, #61]	@ 0x3d
  return HAL_OK;
 800278e:	2000      	movs	r0, #0
}
 8002790:	bd10      	pop	{r4, pc}
    htim->Lock = HAL_UNLOCKED;
 8002792:	f880 203c 	strb.w	r2, [r0, #60]	@ 0x3c
    HAL_TIM_OC_MspInit(htim);
 8002796:	f7ff fe5f 	bl	8002458 <HAL_TIM_OC_MspInit>
 800279a:	e7db      	b.n	8002754 <HAL_TIM_OC_Init+0x10>
    return HAL_ERROR;
 800279c:	2001      	movs	r0, #1
}
 800279e:	4770      	bx	lr

080027a0 <TIM_OC2_SetConfig>:
  tmpccer = TIMx->CCER;
 80027a0:	6a03      	ldr	r3, [r0, #32]
  TIMx->CCER &= ~TIM_CCER_CC2E;
 80027a2:	6a02      	ldr	r2, [r0, #32]
{
 80027a4:	b470      	push	{r4, r5, r6}
  TIMx->CCER &= ~TIM_CCER_CC2E;
 80027a6:	f022 0210 	bic.w	r2, r2, #16
 80027aa:	6202      	str	r2, [r0, #32]
  tmpcr2 =  TIMx->CR2;
 80027ac:	6844      	ldr	r4, [r0, #4]
  tmpccmrx = TIMx->CCMR1;
 80027ae:	6982      	ldr	r2, [r0, #24]
  tmpccmrx |= (OC_Config->OCMode << 8U);
 80027b0:	680e      	ldr	r6, [r1, #0]
  if (IS_TIM_CCXN_INSTANCE(TIMx, TIM_CHANNEL_2))
 80027b2:	4d11      	ldr	r5, [pc, #68]	@ (80027f8 <TIM_OC2_SetConfig+0x58>)
  tmpccmrx &= ~TIM_CCMR1_CC2S;
 80027b4:	f422 42e6 	bic.w	r2, r2, #29440	@ 0x7300
  tmpccmrx |= (OC_Config->OCMode << 8U);
 80027b8:	ea42 2206 	orr.w	r2, r2, r6, lsl #8
  tmpccer |= (OC_Config->OCPolarity << 4U);
 80027bc:	688e      	ldr	r6, [r1, #8]
  tmpccer &= ~TIM_CCER_CC2P;
 80027be:	f023 0320 	bic.w	r3, r3, #32
  if (IS_TIM_CCXN_INSTANCE(TIMx, TIM_CHANNEL_2))
 80027c2:	42a8      	cmp	r0, r5
  tmpccer |= (OC_Config->OCPolarity << 4U);
 80027c4:	ea43 1306 	orr.w	r3, r3, r6, lsl #4
  if (IS_TIM_CCXN_INSTANCE(TIMx, TIM_CHANNEL_2))
 80027c8:	d006      	beq.n	80027d8 <TIM_OC2_SetConfig+0x38>
  TIMx->CCR2 = OC_Config->Pulse;
 80027ca:	6849      	ldr	r1, [r1, #4]
  TIMx->CR2 = tmpcr2;
 80027cc:	6044      	str	r4, [r0, #4]
  TIMx->CCMR1 = tmpccmrx;
 80027ce:	6182      	str	r2, [r0, #24]
}
 80027d0:	bc70      	pop	{r4, r5, r6}
  TIMx->CCR2 = OC_Config->Pulse;
 80027d2:	6381      	str	r1, [r0, #56]	@ 0x38
  TIMx->CCER = tmpccer;
 80027d4:	6203      	str	r3, [r0, #32]
}
 80027d6:	4770      	bx	lr
    tmpccer |= (OC_Config->OCNPolarity << 4U);
 80027d8:	68cd      	ldr	r5, [r1, #12]
    tmpccer &= ~TIM_CCER_CC2NP;
 80027da:	f023 0380 	bic.w	r3, r3, #128	@ 0x80
    tmpccer |= (OC_Config->OCNPolarity << 4U);
 80027de:	ea43 1305 	orr.w	r3, r3, r5, lsl #4
    tmpcr2 &= ~TIM_CR2_OIS2N;
 80027e2:	f424 6440 	bic.w	r4, r4, #3072	@ 0xc00
    tmpcr2 |= (OC_Config->OCNIdleState << 2U);
 80027e6:	e9d1 5605 	ldrd	r5, r6, [r1, #20]
 80027ea:	4335      	orrs	r5, r6
    tmpccer &= ~TIM_CCER_CC2NE;
 80027ec:	f023 0340 	bic.w	r3, r3, #64	@ 0x40
    tmpcr2 |= (OC_Config->OCNIdleState << 2U);
 80027f0:	ea44 0485 	orr.w	r4, r4, r5, lsl #2
 80027f4:	e7e9      	b.n	80027ca <TIM_OC2_SetConfig+0x2a>
 80027f6:	bf00      	nop
 80027f8:	40012c00 	.word	0x40012c00

080027fc <HAL_TIM_OC_ConfigChannel>:
  __HAL_LOCK(htim);
 80027fc:	f890 303c 	ldrb.w	r3, [r0, #60]	@ 0x3c
 8002800:	2b01      	cmp	r3, #1
 8002802:	d025      	beq.n	8002850 <HAL_TIM_OC_ConfigChannel+0x54>
{
 8002804:	b510      	push	{r4, lr}
 8002806:	4604      	mov	r4, r0
  switch (Channel)
 8002808:	2a0c      	cmp	r2, #12
 800280a:	d808      	bhi.n	800281e <HAL_TIM_OC_ConfigChannel+0x22>
 800280c:	e8df f002 	tbb	[pc, r2]
 8002810:	07070714 	.word	0x07070714
 8002814:	07070718 	.word	0x07070718
 8002818:	0707071c 	.word	0x0707071c
 800281c:	0c          	.byte	0x0c
 800281d:	00          	.byte	0x00
  __HAL_UNLOCK(htim);
 800281e:	2300      	movs	r3, #0
 8002820:	f884 303c 	strb.w	r3, [r4, #60]	@ 0x3c
  switch (Channel)
 8002824:	2001      	movs	r0, #1
}
 8002826:	bd10      	pop	{r4, pc}
      TIM_OC4_SetConfig(htim->Instance, sConfig);
 8002828:	6800      	ldr	r0, [r0, #0]
 800282a:	f7ff fdc5 	bl	80023b8 <TIM_OC4_SetConfig>
  __HAL_UNLOCK(htim);
 800282e:	2300      	movs	r3, #0
 8002830:	f884 303c 	strb.w	r3, [r4, #60]	@ 0x3c
  HAL_StatusTypeDef status = HAL_OK;
 8002834:	2000      	movs	r0, #0
}
 8002836:	bd10      	pop	{r4, pc}
      TIM_OC1_SetConfig(htim->Instance, sConfig);
 8002838:	6800      	ldr	r0, [r0, #0]
 800283a:	f7ff fd67 	bl	800230c <TIM_OC1_SetConfig>
      break;
 800283e:	e7f6      	b.n	800282e <HAL_TIM_OC_ConfigChannel+0x32>
      TIM_OC2_SetConfig(htim->Instance, sConfig);
 8002840:	6800      	ldr	r0, [r0, #0]
 8002842:	f7ff ffad 	bl	80027a0 <TIM_OC2_SetConfig>
      break;
 8002846:	e7f2      	b.n	800282e <HAL_TIM_OC_ConfigChannel+0x32>
      TIM_OC3_SetConfig(htim->Instance, sConfig);
 8002848:	6800      	ldr	r0, [r0, #0]
 800284a:	f7ff fd89 	bl	8002360 <TIM_OC3_SetConfig>
      break;
 800284e:	e7ee      	b.n	800282e <HAL_TIM_OC_ConfigChannel+0x32>
  __HAL_LOCK(htim);
 8002850:	2002      	movs	r0, #2
}
 8002852:	4770      	bx	lr

08002854 <HAL_TIMEx_MasterConfigSynchronization>:
  assert_param(IS_TIM_MASTER_INSTANCE(htim->Instance));
  assert_param(IS_TIM_TRGO_SOURCE(sMasterConfig->MasterOutputTrigger));
  assert_param(IS_TIM_MSM_STATE(sMasterConfig->MasterSlaveMode));

  /* Check input state */
  __HAL_LOCK(htim);
 8002854:	f890 203c 	ldrb.w	r2, [r0, #60]	@ 0x3c
 8002858:	2a01      	cmp	r2, #1
 800285a:	d027      	beq.n	80028ac <HAL_TIMEx_MasterConfigSynchronization+0x58>
 800285c:	4603      	mov	r3, r0

  /* Change the handler state */
  htim->State = HAL_TIM_STATE_BUSY;
 800285e:	2002      	movs	r0, #2

  /* Get the TIMx CR2 register value */
  tmpcr2 = htim->Instance->CR2;
 8002860:	681a      	ldr	r2, [r3, #0]
{
 8002862:	b430      	push	{r4, r5}
  htim->State = HAL_TIM_STATE_BUSY;
 8002864:	f883 003d 	strb.w	r0, [r3, #61]	@ 0x3d
  tmpcr2 = htim->Instance->CR2;
 8002868:	6850      	ldr	r0, [r2, #4]
  tmpsmcr = htim->Instance->SMCR;

  /* Reset the MMS Bits */
  tmpcr2 &= ~TIM_CR2_MMS;
  /* Select the TRGO source */
  tmpcr2 |=  sMasterConfig->MasterOutputTrigger;
 800286a:	680c      	ldr	r4, [r1, #0]

  /* Update TIMx CR2 */
  htim->Instance->CR2 = tmpcr2;

  if (IS_TIM_SLAVE_INSTANCE(htim->Instance))
 800286c:	4d10      	ldr	r5, [pc, #64]	@ (80028b0 <HAL_TIMEx_MasterConfigSynchronization+0x5c>)
  tmpcr2 &= ~TIM_CR2_MMS;
 800286e:	f020 0070 	bic.w	r0, r0, #112	@ 0x70
  tmpcr2 |=  sMasterConfig->MasterOutputTrigger;
 8002872:	4320      	orrs	r0, r4
  if (IS_TIM_SLAVE_INSTANCE(htim->Instance))
 8002874:	42aa      	cmp	r2, r5
  tmpsmcr = htim->Instance->SMCR;
 8002876:	6894      	ldr	r4, [r2, #8]
  htim->Instance->CR2 = tmpcr2;
 8002878:	6050      	str	r0, [r2, #4]
  if (IS_TIM_SLAVE_INSTANCE(htim->Instance))
 800287a:	d009      	beq.n	8002890 <HAL_TIMEx_MasterConfigSynchronization+0x3c>
 800287c:	f1b2 4f80 	cmp.w	r2, #1073741824	@ 0x40000000
 8002880:	d006      	beq.n	8002890 <HAL_TIMEx_MasterConfigSynchronization+0x3c>
 8002882:	480c      	ldr	r0, [pc, #48]	@ (80028b4 <HAL_TIMEx_MasterConfigSynchronization+0x60>)
 8002884:	4282      	cmp	r2, r0
 8002886:	d003      	beq.n	8002890 <HAL_TIMEx_MasterConfigSynchronization+0x3c>
 8002888:	f500 6080 	add.w	r0, r0, #1024	@ 0x400
 800288c:	4282      	cmp	r2, r0
 800288e:	d104      	bne.n	800289a <HAL_TIMEx_MasterConfigSynchronization+0x46>
  {
    /* Reset the MSM Bit */
    tmpsmcr &= ~TIM_SMCR_MSM;
    /* Set master mode */
    tmpsmcr |= sMasterConfig->MasterSlaveMode;
 8002890:	6849      	ldr	r1, [r1, #4]
    tmpsmcr &= ~TIM_SMCR_MSM;
 8002892:	f024 0480 	bic.w	r4, r4, #128	@ 0x80
    tmpsmcr |= sMasterConfig->MasterSlaveMode;
 8002896:	430c      	orrs	r4, r1

    /* Update TIMx SMCR */
    htim->Instance->SMCR = tmpsmcr;
 8002898:	6094      	str	r4, [r2, #8]
  }

  /* Change the htim state */
  htim->State = HAL_TIM_STATE_READY;

  __HAL_UNLOCK(htim);
 800289a:	2200      	movs	r2, #0
  htim->State = HAL_TIM_STATE_READY;
 800289c:	2101      	movs	r1, #1
  __HAL_UNLOCK(htim);
 800289e:	f883 203c 	strb.w	r2, [r3, #60]	@ 0x3c
  htim->State = HAL_TIM_STATE_READY;
 80028a2:	f883 103d 	strb.w	r1, [r3, #61]	@ 0x3d

  return HAL_OK;
 80028a6:	4610      	mov	r0, r2
}
 80028a8:	bc30      	pop	{r4, r5}
 80028aa:	4770      	bx	lr
  __HAL_LOCK(htim);
 80028ac:	2002      	movs	r0, #2
}
 80028ae:	4770      	bx	lr
 80028b0:	40012c00 	.word	0x40012c00
 80028b4:	40000400 	.word	0x40000400

080028b8 <UART_EndRxTransfer>:
  * @brief  End ongoing Rx transfer on UART peripheral (following error detection or Reception completion).
  * @param  huart UART handle.
  * @retval None
  */
static void UART_EndRxTransfer(UART_HandleTypeDef *huart)
{
 80028b8:	6802      	ldr	r2, [r0, #0]
 */
__STATIC_FORCEINLINE uint32_t __LDREXW(volatile uint32_t *addr)
{
    uint32_t result;

   __ASM volatile ("ldrex %0, %1" : "=r" (result) : "Q" (*addr) );
 80028ba:	f102 030c 	add.w	r3, r2, #12
 80028be:	e853 3f00 	ldrex	r3, [r3]
  /* Disable RXNE, PE and ERR (Frame error, noise error, overrun error) interrupts */
  ATOMIC_CLEAR_BIT(huart->Instance->CR1, (USART_CR1_RXNEIE | USART_CR1_PEIE));
 80028c2:	f423 7390 	bic.w	r3, r3, #288	@ 0x120
 */
__STATIC_FORCEINLINE uint32_t __STREXW(uint32_t value, volatile uint32_t *addr)
{
   uint32_t result;

   __ASM volatile ("strex %0, %2, %1" : "=&r" (result), "=Q" (*addr) : "r" (value) );
 80028c6:	f102 0c0c 	add.w	ip, r2, #12
 80028ca:	e84c 3100 	strex	r1, r3, [ip]
 80028ce:	2900      	cmp	r1, #0
 80028d0:	d1f3      	bne.n	80028ba <UART_EndRxTransfer+0x2>
   __ASM volatile ("ldrex %0, %1" : "=r" (result) : "Q" (*addr) );
 80028d2:	f102 0314 	add.w	r3, r2, #20
 80028d6:	e853 3f00 	ldrex	r3, [r3]
  ATOMIC_CLEAR_BIT(huart->Instance->CR3, USART_CR3_EIE);
 80028da:	f023 0301 	bic.w	r3, r3, #1
   __ASM volatile ("strex %0, %2, %1" : "=&r" (result), "=Q" (*addr) : "r" (value) );
 80028de:	f102 0c14 	add.w	ip, r2, #20
 80028e2:	e84c 3100 	strex	r1, r3, [ip]
 80028e6:	2900      	cmp	r1, #0
 80028e8:	d1f3      	bne.n	80028d2 <UART_EndRxTransfer+0x1a>

  /* In case of reception waiting for IDLE event, disable also the IDLE IE interrupt source */
  if (huart->ReceptionType == HAL_UART_RECEPTION_TOIDLE)
 80028ea:	6b03      	ldr	r3, [r0, #48]	@ 0x30
 80028ec:	2b01      	cmp	r3, #1
 80028ee:	d005      	beq.n	80028fc <UART_EndRxTransfer+0x44>
  {
    ATOMIC_CLEAR_BIT(huart->Instance->CR1, USART_CR1_IDLEIE);
  }

  /* At end of Rx process, restore huart->RxState to Ready */
  huart->RxState = HAL_UART_STATE_READY;
 80028f0:	2220      	movs	r2, #32
  huart->ReceptionType = HAL_UART_RECEPTION_STANDARD;
 80028f2:	2300      	movs	r3, #0
  huart->RxState = HAL_UART_STATE_READY;
 80028f4:	f880 2042 	strb.w	r2, [r0, #66]	@ 0x42
  huart->ReceptionType = HAL_UART_RECEPTION_STANDARD;
 80028f8:	6303      	str	r3, [r0, #48]	@ 0x30
}
 80028fa:	4770      	bx	lr
   __ASM volatile ("ldrex %0, %1" : "=r" (result) : "Q" (*addr) );
 80028fc:	f102 030c 	add.w	r3, r2, #12
 8002900:	e853 3f00 	ldrex	r3, [r3]
    ATOMIC_CLEAR_BIT(huart->Instance->CR1, USART_CR1_IDLEIE);
 8002904:	f023 0310 	bic.w	r3, r3, #16
   __ASM volatile ("strex %0, %2, %1" : "=&r" (result), "=Q" (*addr) : "r" (value) );
 8002908:	f102 0c0c 	add.w	ip, r2, #12
 800290c:	e84c 3100 	strex	r1, r3, [ip]
 8002910:	2900      	cmp	r1, #0
 8002912:	d1f3      	bne.n	80028fc <UART_EndRxTransfer+0x44>
 8002914:	e7ec      	b.n	80028f0 <UART_EndRxTransfer+0x38>
 8002916:	bf00      	nop

08002918 <UART_SetConfig>:
  * @param  huart  Pointer to a UART_HandleTypeDef structure that contains
  *                the configuration information for the specified UART module.
  * @retval None
  */
static void UART_SetConfig(UART_HandleTypeDef *huart)
{
 8002918:	b538      	push	{r3, r4, r5, lr}
 800291a:	4604      	mov	r4, r0
  assert_param(IS_UART_MODE(huart->Init.Mode));

  /*-------------------------- USART CR2 Configuration -----------------------*/
  /* Configure the UART Stop Bits: Set STOP[13:12] bits
     according to huart->Init.StopBits value */
  MODIFY_REG(huart->Instance->CR2, USART_CR2_STOP, huart->Init.StopBits);
 800291c:	6803      	ldr	r3, [r0, #0]
 800291e:	68c1      	ldr	r1, [r0, #12]
 8002920:	691a      	ldr	r2, [r3, #16]
  /*-------------------------- USART CR3 Configuration -----------------------*/
  /* Configure the UART HFC: Set CTSE and RTSE bits according to huart->Init.HwFlowCtl value */
  MODIFY_REG(huart->Instance->CR3, (USART_CR3_RTSE | USART_CR3_CTSE), huart->Init.HwFlowCtl);


  if(huart->Instance == USART1)
 8002922:	4d1c      	ldr	r5, [pc, #112]	@ (8002994 <UART_SetConfig+0x7c>)
  MODIFY_REG(huart->Instance->CR2, USART_CR2_STOP, huart->Init.StopBits);
 8002924:	f422 5240 	bic.w	r2, r2, #12288	@ 0x3000
 8002928:	430a      	orrs	r2, r1
 800292a:	611a      	str	r2, [r3, #16]
  tmpreg = (uint32_t)huart->Init.WordLength | huart->Init.Parity | huart->Init.Mode;
 800292c:	6882      	ldr	r2, [r0, #8]
 800292e:	6900      	ldr	r0, [r0, #16]
  MODIFY_REG(huart->Instance->CR1,
 8002930:	68d9      	ldr	r1, [r3, #12]
  tmpreg = (uint32_t)huart->Init.WordLength | huart->Init.Parity | huart->Init.Mode;
 8002932:	4302      	orrs	r2, r0
 8002934:	6960      	ldr	r0, [r4, #20]
  MODIFY_REG(huart->Instance->CR1,
 8002936:	f421 51b0 	bic.w	r1, r1, #5632	@ 0x1600
 800293a:	f021 010c 	bic.w	r1, r1, #12
  tmpreg = (uint32_t)huart->Init.WordLength | huart->Init.Parity | huart->Init.Mode;
 800293e:	4302      	orrs	r2, r0
  MODIFY_REG(huart->Instance->CR1,
 8002940:	430a      	orrs	r2, r1
 8002942:	60da      	str	r2, [r3, #12]
  MODIFY_REG(huart->Instance->CR3, (USART_CR3_RTSE | USART_CR3_CTSE), huart->Init.HwFlowCtl);
 8002944:	695a      	ldr	r2, [r3, #20]
 8002946:	69a1      	ldr	r1, [r4, #24]
 8002948:	f422 7240 	bic.w	r2, r2, #768	@ 0x300
 800294c:	430a      	orrs	r2, r1
  if(huart->Instance == USART1)
 800294e:	42ab      	cmp	r3, r5
  MODIFY_REG(huart->Instance->CR3, (USART_CR3_RTSE | USART_CR3_CTSE), huart->Init.HwFlowCtl);
 8002950:	615a      	str	r2, [r3, #20]
  if(huart->Instance == USART1)
 8002952:	d01b      	beq.n	800298c <UART_SetConfig+0x74>
  {
    pclk = HAL_RCC_GetPCLK2Freq();
  }
  else
  {
    pclk = HAL_RCC_GetPCLK1Freq();
 8002954:	f7ff fc3a 	bl	80021cc <HAL_RCC_GetPCLK1Freq>
 8002958:	4603      	mov	r3, r0
  else
  {
    huart->Instance->BRR = UART_BRR_SAMPLING16(pclk, huart->Init.BaudRate);
  }
#else
  huart->Instance->BRR = UART_BRR_SAMPLING16(pclk, huart->Init.BaudRate);
 800295a:	6862      	ldr	r2, [r4, #4]
 800295c:	eb03 0383 	add.w	r3, r3, r3, lsl #2
 8002960:	0092      	lsls	r2, r2, #2
 8002962:	eb03 0383 	add.w	r3, r3, r3, lsl #2
 8002966:	fbb3 f3f2 	udiv	r3, r3, r2
 800296a:	2564      	movs	r5, #100	@ 0x64
 800296c:	490a      	ldr	r1, [pc, #40]	@ (8002998 <UART_SetConfig+0x80>)
 800296e:	6820      	ldr	r0, [r4, #0]
 8002970:	fba1 4203 	umull	r4, r2, r1, r3
 8002974:	0952      	lsrs	r2, r2, #5
 8002976:	fb05 3312 	mls	r3, r5, r2, r3
 800297a:	011b      	lsls	r3, r3, #4
 800297c:	3332      	adds	r3, #50	@ 0x32
 800297e:	fba1 1303 	umull	r1, r3, r1, r3
 8002982:	0112      	lsls	r2, r2, #4
 8002984:	eb02 1253 	add.w	r2, r2, r3, lsr #5
 8002988:	6082      	str	r2, [r0, #8]
#endif /* USART_CR1_OVER8 */
}
 800298a:	bd38      	pop	{r3, r4, r5, pc}
    pclk = HAL_RCC_GetPCLK2Freq();
 800298c:	f7ff fc2e 	bl	80021ec <HAL_RCC_GetPCLK2Freq>
 8002990:	4603      	mov	r3, r0
 8002992:	e7e2      	b.n	800295a <UART_SetConfig+0x42>
 8002994:	40013800 	.word	0x40013800
 8002998:	51eb851f 	.word	0x51eb851f

0800299c <HAL_UART_Init>:
  if (huart == NULL)
 800299c:	b370      	cbz	r0, 80029fc <HAL_UART_Init+0x60>
{
 800299e:	b510      	push	{r4, lr}
  if (huart->gState == HAL_UART_STATE_RESET)
 80029a0:	f890 3041 	ldrb.w	r3, [r0, #65]	@ 0x41
 80029a4:	4604      	mov	r4, r0
 80029a6:	f003 02ff 	and.w	r2, r3, #255	@ 0xff
 80029aa:	b313      	cbz	r3, 80029f2 <HAL_UART_Init+0x56>
  huart->gState = HAL_UART_STATE_BUSY;
 80029ac:	2324      	movs	r3, #36	@ 0x24
  __HAL_UART_DISABLE(huart);
 80029ae:	6822      	ldr	r2, [r4, #0]
  huart->gState = HAL_UART_STATE_BUSY;
 80029b0:	f884 3041 	strb.w	r3, [r4, #65]	@ 0x41
  __HAL_UART_DISABLE(huart);
 80029b4:	68d3      	ldr	r3, [r2, #12]
  UART_SetConfig(huart);
 80029b6:	4620      	mov	r0, r4
  __HAL_UART_DISABLE(huart);
 80029b8:	f423 5300 	bic.w	r3, r3, #8192	@ 0x2000
 80029bc:	60d3      	str	r3, [r2, #12]
  UART_SetConfig(huart);
 80029be:	f7ff ffab 	bl	8002918 <UART_SetConfig>
  huart->ErrorCode = HAL_UART_ERROR_NONE;
 80029c2:	2200      	movs	r2, #0
  huart->gState = HAL_UART_STATE_READY;
 80029c4:	f04f 0c20 	mov.w	ip, #32
  CLEAR_BIT(huart->Instance->CR2, (USART_CR2_LINEN | USART_CR2_CLKEN));
 80029c8:	6823      	ldr	r3, [r4, #0]
  return HAL_OK;
 80029ca:	4610      	mov	r0, r2
  CLEAR_BIT(huart->Instance->CR2, (USART_CR2_LINEN | USART_CR2_CLKEN));
 80029cc:	6919      	ldr	r1, [r3, #16]
 80029ce:	f421 4190 	bic.w	r1, r1, #18432	@ 0x4800
 80029d2:	6119      	str	r1, [r3, #16]
  CLEAR_BIT(huart->Instance->CR3, (USART_CR3_SCEN | USART_CR3_HDSEL | USART_CR3_IREN));
 80029d4:	6959      	ldr	r1, [r3, #20]
 80029d6:	f021 012a 	bic.w	r1, r1, #42	@ 0x2a
 80029da:	6159      	str	r1, [r3, #20]
  __HAL_UART_ENABLE(huart);
 80029dc:	68d9      	ldr	r1, [r3, #12]
 80029de:	f441 5100 	orr.w	r1, r1, #8192	@ 0x2000
 80029e2:	60d9      	str	r1, [r3, #12]
  huart->ErrorCode = HAL_UART_ERROR_NONE;
 80029e4:	6462      	str	r2, [r4, #68]	@ 0x44
  huart->gState = HAL_UART_STATE_READY;
 80029e6:	f884 c041 	strb.w	ip, [r4, #65]	@ 0x41
  huart->RxState = HAL_UART_STATE_READY;
 80029ea:	f884 c042 	strb.w	ip, [r4, #66]	@ 0x42
  huart->RxEventType = HAL_UART_RXEVENT_TC;
 80029ee:	6362      	str	r2, [r4, #52]	@ 0x34
}
 80029f0:	bd10      	pop	{r4, pc}
    huart->Lock = HAL_UNLOCKED;
 80029f2:	f880 2040 	strb.w	r2, [r0, #64]	@ 0x40
    HAL_UART_MspInit(huart);
 80029f6:	f7fd fec3 	bl	8000780 <HAL_UART_MspInit>
 80029fa:	e7d7      	b.n	80029ac <HAL_UART_Init+0x10>
    return HAL_ERROR;
 80029fc:	2001      	movs	r0, #1
}
 80029fe:	4770      	bx	lr

08002a00 <HAL_UART_Receive_IT>:
  if (huart->RxState == HAL_UART_STATE_READY)
 8002a00:	f890 3042 	ldrb.w	r3, [r0, #66]	@ 0x42
 8002a04:	2b20      	cmp	r3, #32
 8002a06:	d103      	bne.n	8002a10 <HAL_UART_Receive_IT+0x10>
    if ((pData == NULL) || (Size == 0U))
 8002a08:	b101      	cbz	r1, 8002a0c <HAL_UART_Receive_IT+0xc>
 8002a0a:	b91a      	cbnz	r2, 8002a14 <HAL_UART_Receive_IT+0x14>
      return HAL_ERROR;
 8002a0c:	2001      	movs	r0, #1
}
 8002a0e:	4770      	bx	lr
    return HAL_BUSY;
 8002a10:	2002      	movs	r0, #2
 8002a12:	4770      	bx	lr
{
 8002a14:	b410      	push	{r4}
  huart->RxState = HAL_UART_STATE_BUSY_RX;
 8002a16:	f04f 0c22 	mov.w	ip, #34	@ 0x22
    huart->ReceptionType = HAL_UART_RECEPTION_STANDARD;
 8002a1a:	2400      	movs	r4, #0
  huart->pRxBuffPtr = pData;
 8002a1c:	6281      	str	r1, [r0, #40]	@ 0x28
  if (huart->Init.Parity != UART_PARITY_NONE)
 8002a1e:	6901      	ldr	r1, [r0, #16]
    huart->ReceptionType = HAL_UART_RECEPTION_STANDARD;
 8002a20:	6304      	str	r4, [r0, #48]	@ 0x30
    __HAL_UART_ENABLE_IT(huart, UART_IT_PE);
 8002a22:	6803      	ldr	r3, [r0, #0]
  huart->RxXferCount = Size;
 8002a24:	85c2      	strh	r2, [r0, #46]	@ 0x2e
  huart->RxXferSize = Size;
 8002a26:	8582      	strh	r2, [r0, #44]	@ 0x2c
  huart->ErrorCode = HAL_UART_ERROR_NONE;
 8002a28:	6444      	str	r4, [r0, #68]	@ 0x44
  huart->RxState = HAL_UART_STATE_BUSY_RX;
 8002a2a:	f880 c042 	strb.w	ip, [r0, #66]	@ 0x42
  if (huart->Init.Parity != UART_PARITY_NONE)
 8002a2e:	b119      	cbz	r1, 8002a38 <HAL_UART_Receive_IT+0x38>
    __HAL_UART_ENABLE_IT(huart, UART_IT_PE);
 8002a30:	68da      	ldr	r2, [r3, #12]
 8002a32:	f442 7280 	orr.w	r2, r2, #256	@ 0x100
 8002a36:	60da      	str	r2, [r3, #12]
  __HAL_UART_ENABLE_IT(huart, UART_IT_ERR);
 8002a38:	695a      	ldr	r2, [r3, #20]
    return (UART_Start_Receive_IT(huart, pData, Size));
 8002a3a:	2000      	movs	r0, #0
  __HAL_UART_ENABLE_IT(huart, UART_IT_ERR);
 8002a3c:	f042 0201 	orr.w	r2, r2, #1
 8002a40:	615a      	str	r2, [r3, #20]
  __HAL_UART_ENABLE_IT(huart, UART_IT_RXNE);
 8002a42:	68da      	ldr	r2, [r3, #12]
}
 8002a44:	bc10      	pop	{r4}
  __HAL_UART_ENABLE_IT(huart, UART_IT_RXNE);
 8002a46:	f042 0220 	orr.w	r2, r2, #32
 8002a4a:	60da      	str	r2, [r3, #12]
}
 8002a4c:	4770      	bx	lr
 8002a4e:	bf00      	nop

08002a50 <HAL_UART_Transmit_DMA>:
{
 8002a50:	b5f8      	push	{r3, r4, r5, r6, r7, lr}
 8002a52:	4604      	mov	r4, r0
  if (huart->gState == HAL_UART_STATE_READY)
 8002a54:	f890 0041 	ldrb.w	r0, [r0, #65]	@ 0x41
 8002a58:	2820      	cmp	r0, #32
 8002a5a:	d103      	bne.n	8002a64 <HAL_UART_Transmit_DMA+0x14>
    if ((pData == NULL) || (Size == 0U))
 8002a5c:	b101      	cbz	r1, 8002a60 <HAL_UART_Transmit_DMA+0x10>
 8002a5e:	b91a      	cbnz	r2, 8002a68 <HAL_UART_Transmit_DMA+0x18>
      return HAL_ERROR;
 8002a60:	2001      	movs	r0, #1
}
 8002a62:	bdf8      	pop	{r3, r4, r5, r6, r7, pc}
    return HAL_BUSY;
 8002a64:	2002      	movs	r0, #2
}
 8002a66:	bdf8      	pop	{r3, r4, r5, r6, r7, pc}
    huart->ErrorCode = HAL_UART_ERROR_NONE;
 8002a68:	2500      	movs	r5, #0
    huart->gState = HAL_UART_STATE_BUSY_TX;
 8002a6a:	f04f 0e21 	mov.w	lr, #33	@ 0x21
    huart->TxXferCount = Size;
 8002a6e:	84e2      	strh	r2, [r4, #38]	@ 0x26
    huart->TxXferSize = Size;
 8002a70:	84a2      	strh	r2, [r4, #36]	@ 0x24
    HAL_DMA_Start_IT(huart->hdmatx, *(const uint32_t *)tmp, (uint32_t)&huart->Instance->DR, Size);
 8002a72:	4613      	mov	r3, r2
    huart->hdmatx->XferCpltCallback = UART_DMATransmitCplt;
 8002a74:	6ba0      	ldr	r0, [r4, #56]	@ 0x38
    HAL_DMA_Start_IT(huart->hdmatx, *(const uint32_t *)tmp, (uint32_t)&huart->Instance->DR, Size);
 8002a76:	6822      	ldr	r2, [r4, #0]
    huart->hdmatx->XferCpltCallback = UART_DMATransmitCplt;
 8002a78:	f8df c040 	ldr.w	ip, [pc, #64]	@ 8002abc <HAL_UART_Transmit_DMA+0x6c>
    huart->hdmatx->XferHalfCpltCallback = UART_DMATxHalfCplt;
 8002a7c:	4f10      	ldr	r7, [pc, #64]	@ (8002ac0 <HAL_UART_Transmit_DMA+0x70>)
    huart->hdmatx->XferErrorCallback = UART_DMAError;
 8002a7e:	4e11      	ldr	r6, [pc, #68]	@ (8002ac4 <HAL_UART_Transmit_DMA+0x74>)
    huart->ErrorCode = HAL_UART_ERROR_NONE;
 8002a80:	6465      	str	r5, [r4, #68]	@ 0x44
    huart->pTxBuffPtr = pData;
 8002a82:	6221      	str	r1, [r4, #32]
    huart->gState = HAL_UART_STATE_BUSY_TX;
 8002a84:	f884 e041 	strb.w	lr, [r4, #65]	@ 0x41
    HAL_DMA_Start_IT(huart->hdmatx, *(const uint32_t *)tmp, (uint32_t)&huart->Instance->DR, Size);
 8002a88:	3204      	adds	r2, #4
    huart->hdmatx->XferHalfCpltCallback = UART_DMATxHalfCplt;
 8002a8a:	e9c0 c70a 	strd	ip, r7, [r0, #40]	@ 0x28
    huart->hdmatx->XferAbortCallback = NULL;
 8002a8e:	e9c0 650c 	strd	r6, r5, [r0, #48]	@ 0x30
    HAL_DMA_Start_IT(huart->hdmatx, *(const uint32_t *)tmp, (uint32_t)&huart->Instance->DR, Size);
 8002a92:	f7fe fa85 	bl	8000fa0 <HAL_DMA_Start_IT>
    __HAL_UART_CLEAR_FLAG(huart, UART_FLAG_TC);
 8002a96:	f06f 0340 	mvn.w	r3, #64	@ 0x40
 8002a9a:	6822      	ldr	r2, [r4, #0]
 8002a9c:	6013      	str	r3, [r2, #0]
   __ASM volatile ("ldrex %0, %1" : "=r" (result) : "Q" (*addr) );
 8002a9e:	f102 0314 	add.w	r3, r2, #20
 8002aa2:	e853 3f00 	ldrex	r3, [r3]
    ATOMIC_SET_BIT(huart->Instance->CR3, USART_CR3_DMAT);
 8002aa6:	f043 0380 	orr.w	r3, r3, #128	@ 0x80
   __ASM volatile ("strex %0, %2, %1" : "=&r" (result), "=Q" (*addr) : "r" (value) );
 8002aaa:	f102 0014 	add.w	r0, r2, #20
 8002aae:	e840 3100 	strex	r1, r3, [r0]
 8002ab2:	2900      	cmp	r1, #0
 8002ab4:	d1f3      	bne.n	8002a9e <HAL_UART_Transmit_DMA+0x4e>
    return HAL_OK;
 8002ab6:	2000      	movs	r0, #0
}
 8002ab8:	bdf8      	pop	{r3, r4, r5, r6, r7, pc}
 8002aba:	bf00      	nop
 8002abc:	08002acd 	.word	0x08002acd
 8002ac0:	08002b1d 	.word	0x08002b1d
 8002ac4:	08002b2d 	.word	0x08002b2d

08002ac8 <HAL_UART_TxCpltCallback>:
__weak void HAL_UART_TxCpltCallback(UART_HandleTypeDef *huart)
 8002ac8:	4770      	bx	lr
 8002aca:	bf00      	nop

08002acc <UART_DMATransmitCplt>:
{
 8002acc:	b508      	push	{r3, lr}
  if ((hdma->Instance->CCR & DMA_CCR_CIRC) == 0U)
 8002ace:	6803      	ldr	r3, [r0, #0]
  UART_HandleTypeDef *huart = (UART_HandleTypeDef *)((DMA_HandleTypeDef *)hdma)->Parent;
 8002ad0:	6a40      	ldr	r0, [r0, #36]	@ 0x24
  if ((hdma->Instance->CCR & DMA_CCR_CIRC) == 0U)
 8002ad2:	681b      	ldr	r3, [r3, #0]
 8002ad4:	f013 0320 	ands.w	r3, r3, #32
 8002ad8:	d11a      	bne.n	8002b10 <UART_DMATransmitCplt+0x44>
    huart->TxXferCount = 0x00U;
 8002ada:	6802      	ldr	r2, [r0, #0]
 8002adc:	84c3      	strh	r3, [r0, #38]	@ 0x26
   __ASM volatile ("ldrex %0, %1" : "=r" (result) : "Q" (*addr) );
 8002ade:	f102 0314 	add.w	r3, r2, #20
 8002ae2:	e853 3f00 	ldrex	r3, [r3]
    ATOMIC_CLEAR_BIT(huart->Instance->CR3, USART_CR3_DMAT);
 8002ae6:	f023 0380 	bic.w	r3, r3, #128	@ 0x80
   __ASM volatile ("strex %0, %2, %1" : "=&r" (result), "=Q" (*addr) : "r" (value) );
 8002aea:	f102 0014 	add.w	r0, r2, #20
 8002aee:	e840 3100 	strex	r1, r3, [r0]
 8002af2:	2900      	cmp	r1, #0
 8002af4:	d1f3      	bne.n	8002ade <UART_DMATransmitCplt+0x12>
   __ASM volatile ("ldrex %0, %1" : "=r" (result) : "Q" (*addr) );
 8002af6:	f102 030c 	add.w	r3, r2, #12
 8002afa:	e853 3f00 	ldrex	r3, [r3]
    ATOMIC_SET_BIT(huart->Instance->CR1, USART_CR1_TCIE);
 8002afe:	f043 0340 	orr.w	r3, r3, #64	@ 0x40
   __ASM volatile ("strex %0, %2, %1" : "=&r" (result), "=Q" (*addr) : "r" (value) );
 8002b02:	f102 000c 	add.w	r0, r2, #12
 8002b06:	e840 3100 	strex	r1, r3, [r0]
 8002b0a:	2900      	cmp	r1, #0
 8002b0c:	d1f3      	bne.n	8002af6 <UART_DMATransmitCplt+0x2a>
}
 8002b0e:	bd08      	pop	{r3, pc}
    HAL_UART_TxCpltCallback(huart);
 8002b10:	f7ff ffda 	bl	8002ac8 <HAL_UART_TxCpltCallback>
}
 8002b14:	bd08      	pop	{r3, pc}
 8002b16:	bf00      	nop

08002b18 <HAL_UART_TxHalfCpltCallback>:
__weak void HAL_UART_TxHalfCpltCallback(UART_HandleTypeDef *huart)
 8002b18:	4770      	bx	lr
 8002b1a:	bf00      	nop

08002b1c <UART_DMATxHalfCplt>:
{
 8002b1c:	b508      	push	{r3, lr}
  HAL_UART_TxHalfCpltCallback(huart);
 8002b1e:	6a40      	ldr	r0, [r0, #36]	@ 0x24
 8002b20:	f7ff fffa 	bl	8002b18 <HAL_UART_TxHalfCpltCallback>
}
 8002b24:	bd08      	pop	{r3, pc}
 8002b26:	bf00      	nop

08002b28 <HAL_UART_ErrorCallback>:
__weak void HAL_UART_ErrorCallback(UART_HandleTypeDef *huart)
 8002b28:	4770      	bx	lr
 8002b2a:	bf00      	nop

08002b2c <UART_DMAError>:
{
 8002b2c:	b508      	push	{r3, lr}
  UART_HandleTypeDef *huart = (UART_HandleTypeDef *)((DMA_HandleTypeDef *)hdma)->Parent;
 8002b2e:	6a40      	ldr	r0, [r0, #36]	@ 0x24
  dmarequest = HAL_IS_BIT_SET(huart->Instance->CR3, USART_CR3_DMAT);
 8002b30:	6802      	ldr	r2, [r0, #0]
 8002b32:	6951      	ldr	r1, [r2, #20]
  if ((huart->gState == HAL_UART_STATE_BUSY_TX) && dmarequest)
 8002b34:	f890 3041 	ldrb.w	r3, [r0, #65]	@ 0x41
 8002b38:	2b21      	cmp	r3, #33	@ 0x21
 8002b3a:	d00b      	beq.n	8002b54 <UART_DMAError+0x28>
  dmarequest = HAL_IS_BIT_SET(huart->Instance->CR3, USART_CR3_DMAR);
 8002b3c:	6952      	ldr	r2, [r2, #20]
  if ((huart->RxState == HAL_UART_STATE_BUSY_RX) && dmarequest)
 8002b3e:	f890 3042 	ldrb.w	r3, [r0, #66]	@ 0x42
 8002b42:	2b22      	cmp	r3, #34	@ 0x22
 8002b44:	d01e      	beq.n	8002b84 <UART_DMAError+0x58>
  huart->ErrorCode |= HAL_UART_ERROR_DMA;
 8002b46:	6c43      	ldr	r3, [r0, #68]	@ 0x44
 8002b48:	f043 0310 	orr.w	r3, r3, #16
 8002b4c:	6443      	str	r3, [r0, #68]	@ 0x44
  HAL_UART_ErrorCallback(huart);
 8002b4e:	f7ff ffeb 	bl	8002b28 <HAL_UART_ErrorCallback>
}
 8002b52:	bd08      	pop	{r3, pc}
  if ((huart->gState == HAL_UART_STATE_BUSY_TX) && dmarequest)
 8002b54:	0609      	lsls	r1, r1, #24
 8002b56:	d5f1      	bpl.n	8002b3c <UART_DMAError+0x10>
    huart->TxXferCount = 0x00U;
 8002b58:	2300      	movs	r3, #0
 8002b5a:	84c3      	strh	r3, [r0, #38]	@ 0x26
   __ASM volatile ("ldrex %0, %1" : "=r" (result) : "Q" (*addr) );
 8002b5c:	f102 030c 	add.w	r3, r2, #12
 8002b60:	e853 3f00 	ldrex	r3, [r3]
  ATOMIC_CLEAR_BIT(huart->Instance->CR1, (USART_CR1_TXEIE | USART_CR1_TCIE));
 8002b64:	f023 03c0 	bic.w	r3, r3, #192	@ 0xc0
   __ASM volatile ("strex %0, %2, %1" : "=&r" (result), "=Q" (*addr) : "r" (value) );
 8002b68:	f102 0c0c 	add.w	ip, r2, #12
 8002b6c:	e84c 3100 	strex	r1, r3, [ip]
 8002b70:	2900      	cmp	r1, #0
 8002b72:	d1f3      	bne.n	8002b5c <UART_DMAError+0x30>
  huart->gState = HAL_UART_STATE_READY;
 8002b74:	2320      	movs	r3, #32
 8002b76:	f880 3041 	strb.w	r3, [r0, #65]	@ 0x41
  dmarequest = HAL_IS_BIT_SET(huart->Instance->CR3, USART_CR3_DMAR);
 8002b7a:	6952      	ldr	r2, [r2, #20]
  if ((huart->RxState == HAL_UART_STATE_BUSY_RX) && dmarequest)
 8002b7c:	f890 3042 	ldrb.w	r3, [r0, #66]	@ 0x42
 8002b80:	2b22      	cmp	r3, #34	@ 0x22
 8002b82:	d1e0      	bne.n	8002b46 <UART_DMAError+0x1a>
 8002b84:	0653      	lsls	r3, r2, #25
 8002b86:	d5de      	bpl.n	8002b46 <UART_DMAError+0x1a>
    huart->RxXferCount = 0x00U;
 8002b88:	2300      	movs	r3, #0
 8002b8a:	85c3      	strh	r3, [r0, #46]	@ 0x2e
    UART_EndRxTransfer(huart);
 8002b8c:	f7ff fe94 	bl	80028b8 <UART_EndRxTransfer>
 8002b90:	e7d9      	b.n	8002b46 <UART_DMAError+0x1a>
 8002b92:	bf00      	nop

08002b94 <UART_DMAAbortOnError>:
{
 8002b94:	b508      	push	{r3, lr}
  huart->RxXferCount = 0x00U;
 8002b96:	2300      	movs	r3, #0
  UART_HandleTypeDef *huart = (UART_HandleTypeDef *)((DMA_HandleTypeDef *)hdma)->Parent;
 8002b98:	6a40      	ldr	r0, [r0, #36]	@ 0x24
  huart->RxXferCount = 0x00U;
 8002b9a:	85c3      	strh	r3, [r0, #46]	@ 0x2e
  huart->TxXferCount = 0x00U;
 8002b9c:	84c3      	strh	r3, [r0, #38]	@ 0x26
  HAL_UART_ErrorCallback(huart);
 8002b9e:	f7ff ffc3 	bl	8002b28 <HAL_UART_ErrorCallback>
}
 8002ba2:	bd08      	pop	{r3, pc}

08002ba4 <HAL_UARTEx_RxEventCallback>:
}
 8002ba4:	4770      	bx	lr
 8002ba6:	bf00      	nop

08002ba8 <UART_Receive_IT.isra.0>:
  if (huart->RxState == HAL_UART_STATE_BUSY_RX)
 8002ba8:	f890 3042 	ldrb.w	r3, [r0, #66]	@ 0x42
 8002bac:	2b22      	cmp	r3, #34	@ 0x22
 8002bae:	d157      	bne.n	8002c60 <UART_Receive_IT.isra.0+0xb8>
    if ((huart->Init.WordLength == UART_WORDLENGTH_9B) && (huart->Init.Parity == UART_PARITY_NONE))
 8002bb0:	6883      	ldr	r3, [r0, #8]
      *pdata16bits = (uint16_t)(huart->Instance->DR & (uint16_t)0x01FF);
 8002bb2:	6801      	ldr	r1, [r0, #0]
    if ((huart->Init.WordLength == UART_WORDLENGTH_9B) && (huart->Init.Parity == UART_PARITY_NONE))
 8002bb4:	f5b3 5f80 	cmp.w	r3, #4096	@ 0x1000
      pdata16bits = (uint16_t *) huart->pRxBuffPtr;
 8002bb8:	6a82      	ldr	r2, [r0, #40]	@ 0x28
    if ((huart->Init.WordLength == UART_WORDLENGTH_9B) && (huart->Init.Parity == UART_PARITY_NONE))
 8002bba:	d044      	beq.n	8002c46 <UART_Receive_IT.isra.0+0x9e>
      if ((huart->Init.WordLength == UART_WORDLENGTH_9B) || ((huart->Init.WordLength == UART_WORDLENGTH_8B) && (huart->Init.Parity == UART_PARITY_NONE)))
 8002bbc:	2b00      	cmp	r3, #0
 8002bbe:	d14b      	bne.n	8002c58 <UART_Receive_IT.isra.0+0xb0>
 8002bc0:	6903      	ldr	r3, [r0, #16]
 8002bc2:	2b00      	cmp	r3, #0
 8002bc4:	d148      	bne.n	8002c58 <UART_Receive_IT.isra.0+0xb0>
        *pdata8bits = (uint8_t)(huart->Instance->DR & (uint8_t)0x00FF);
 8002bc6:	684b      	ldr	r3, [r1, #4]
 8002bc8:	b2db      	uxtb	r3, r3
 8002bca:	7013      	strb	r3, [r2, #0]
      huart->pRxBuffPtr += 1U;
 8002bcc:	6a82      	ldr	r2, [r0, #40]	@ 0x28
 8002bce:	3201      	adds	r2, #1
    if (--huart->RxXferCount == 0U)
 8002bd0:	8dc3      	ldrh	r3, [r0, #46]	@ 0x2e
      huart->pRxBuffPtr += 2U;
 8002bd2:	6282      	str	r2, [r0, #40]	@ 0x28
    if (--huart->RxXferCount == 0U)
 8002bd4:	3b01      	subs	r3, #1
 8002bd6:	b29b      	uxth	r3, r3
 8002bd8:	85c3      	strh	r3, [r0, #46]	@ 0x2e
 8002bda:	2b00      	cmp	r3, #0
 8002bdc:	d140      	bne.n	8002c60 <UART_Receive_IT.isra.0+0xb8>
      huart->RxState = HAL_UART_STATE_READY;
 8002bde:	f04f 0c20 	mov.w	ip, #32
static HAL_StatusTypeDef UART_Receive_IT(UART_HandleTypeDef *huart)
 8002be2:	b500      	push	{lr}
      __HAL_UART_DISABLE_IT(huart, UART_IT_RXNE);
 8002be4:	6802      	ldr	r2, [r0, #0]
static HAL_StatusTypeDef UART_Receive_IT(UART_HandleTypeDef *huart)
 8002be6:	b083      	sub	sp, #12
      __HAL_UART_DISABLE_IT(huart, UART_IT_RXNE);
 8002be8:	68d1      	ldr	r1, [r2, #12]
 8002bea:	f021 0120 	bic.w	r1, r1, #32
 8002bee:	60d1      	str	r1, [r2, #12]
      __HAL_UART_DISABLE_IT(huart, UART_IT_PE);
 8002bf0:	68d1      	ldr	r1, [r2, #12]
 8002bf2:	f421 7180 	bic.w	r1, r1, #256	@ 0x100
 8002bf6:	60d1      	str	r1, [r2, #12]
      __HAL_UART_DISABLE_IT(huart, UART_IT_ERR);
 8002bf8:	6951      	ldr	r1, [r2, #20]
 8002bfa:	f021 0101 	bic.w	r1, r1, #1
 8002bfe:	6151      	str	r1, [r2, #20]
      huart->RxState = HAL_UART_STATE_READY;
 8002c00:	f880 c042 	strb.w	ip, [r0, #66]	@ 0x42
      huart->RxEventType = HAL_UART_RXEVENT_TC;
 8002c04:	6343      	str	r3, [r0, #52]	@ 0x34
      if (huart->ReceptionType == HAL_UART_RECEPTION_TOIDLE)
 8002c06:	6b01      	ldr	r1, [r0, #48]	@ 0x30
 8002c08:	2901      	cmp	r1, #1
 8002c0a:	d12a      	bne.n	8002c62 <UART_Receive_IT.isra.0+0xba>
        huart->ReceptionType = HAL_UART_RECEPTION_STANDARD;
 8002c0c:	6303      	str	r3, [r0, #48]	@ 0x30
   __ASM volatile ("ldrex %0, %1" : "=r" (result) : "Q" (*addr) );
 8002c0e:	f102 030c 	add.w	r3, r2, #12
 8002c12:	e853 3f00 	ldrex	r3, [r3]
        ATOMIC_CLEAR_BIT(huart->Instance->CR1, USART_CR1_IDLEIE);
 8002c16:	f023 0310 	bic.w	r3, r3, #16
   __ASM volatile ("strex %0, %2, %1" : "=&r" (result), "=Q" (*addr) : "r" (value) );
 8002c1a:	f102 0c0c 	add.w	ip, r2, #12
 8002c1e:	e84c 3100 	strex	r1, r3, [ip]
 8002c22:	2900      	cmp	r1, #0
 8002c24:	d1f3      	bne.n	8002c0e <UART_Receive_IT.isra.0+0x66>
        if (__HAL_UART_GET_FLAG(huart, UART_FLAG_IDLE))
 8002c26:	6813      	ldr	r3, [r2, #0]
 8002c28:	06db      	lsls	r3, r3, #27
 8002c2a:	d506      	bpl.n	8002c3a <UART_Receive_IT.isra.0+0x92>
          __HAL_UART_CLEAR_IDLEFLAG(huart);
 8002c2c:	2300      	movs	r3, #0
 8002c2e:	9301      	str	r3, [sp, #4]
 8002c30:	6813      	ldr	r3, [r2, #0]
 8002c32:	9301      	str	r3, [sp, #4]
 8002c34:	6853      	ldr	r3, [r2, #4]
 8002c36:	9301      	str	r3, [sp, #4]
 8002c38:	9b01      	ldr	r3, [sp, #4]
        HAL_UARTEx_RxEventCallback(huart, huart->RxXferSize);
 8002c3a:	8d81      	ldrh	r1, [r0, #44]	@ 0x2c
 8002c3c:	f7ff ffb2 	bl	8002ba4 <HAL_UARTEx_RxEventCallback>
}
 8002c40:	b003      	add	sp, #12
 8002c42:	f85d fb04 	ldr.w	pc, [sp], #4
    if ((huart->Init.WordLength == UART_WORDLENGTH_9B) && (huart->Init.Parity == UART_PARITY_NONE))
 8002c46:	6903      	ldr	r3, [r0, #16]
 8002c48:	2b00      	cmp	r3, #0
 8002c4a:	d1bc      	bne.n	8002bc6 <UART_Receive_IT.isra.0+0x1e>
      *pdata16bits = (uint16_t)(huart->Instance->DR & (uint16_t)0x01FF);
 8002c4c:	684b      	ldr	r3, [r1, #4]
 8002c4e:	f3c3 0308 	ubfx	r3, r3, #0, #9
 8002c52:	f822 3b02 	strh.w	r3, [r2], #2
      huart->pRxBuffPtr += 2U;
 8002c56:	e7bb      	b.n	8002bd0 <UART_Receive_IT.isra.0+0x28>
        *pdata8bits = (uint8_t)(huart->Instance->DR & (uint8_t)0x007F);
 8002c58:	684b      	ldr	r3, [r1, #4]
 8002c5a:	f003 037f 	and.w	r3, r3, #127	@ 0x7f
 8002c5e:	e7b4      	b.n	8002bca <UART_Receive_IT.isra.0+0x22>
 8002c60:	4770      	bx	lr
        HAL_UART_RxCpltCallback(huart);
 8002c62:	f000 ff81 	bl	8003b68 <HAL_UART_RxCpltCallback>
}
 8002c66:	b003      	add	sp, #12
 8002c68:	f85d fb04 	ldr.w	pc, [sp], #4

08002c6c <HAL_UART_IRQHandler>:
{
 8002c6c:	b570      	push	{r4, r5, r6, lr}
  uint32_t isrflags   = READ_REG(huart->Instance->SR);
 8002c6e:	6805      	ldr	r5, [r0, #0]
{
 8002c70:	4604      	mov	r4, r0
  uint32_t isrflags   = READ_REG(huart->Instance->SR);
 8002c72:	682b      	ldr	r3, [r5, #0]
 8002c74:	462a      	mov	r2, r5
  if (errorflags == RESET)
 8002c76:	f013 0f0f 	tst.w	r3, #15
  uint32_t cr1its     = READ_REG(huart->Instance->CR1);
 8002c7a:	68ee      	ldr	r6, [r5, #12]
{
 8002c7c:	b082      	sub	sp, #8
  uint32_t cr3its     = READ_REG(huart->Instance->CR3);
 8002c7e:	6969      	ldr	r1, [r5, #20]
  if (errorflags == RESET)
 8002c80:	d16f      	bne.n	8002d62 <HAL_UART_IRQHandler+0xf6>
    if (((isrflags & USART_SR_RXNE) != RESET) && ((cr1its & USART_CR1_RXNEIE) != RESET))
 8002c82:	069d      	lsls	r5, r3, #26
 8002c84:	d502      	bpl.n	8002c8c <HAL_UART_IRQHandler+0x20>
 8002c86:	06b1      	lsls	r1, r6, #26
 8002c88:	f100 80c3 	bmi.w	8002e12 <HAL_UART_IRQHandler+0x1a6>
  if ((huart->ReceptionType == HAL_UART_RECEPTION_TOIDLE)
 8002c8c:	6b21      	ldr	r1, [r4, #48]	@ 0x30
 8002c8e:	2901      	cmp	r1, #1
 8002c90:	d00b      	beq.n	8002caa <HAL_UART_IRQHandler+0x3e>
  if (((isrflags & USART_SR_TXE) != RESET) && ((cr1its & USART_CR1_TXEIE) != RESET))
 8002c92:	0618      	lsls	r0, r3, #24
 8002c94:	d502      	bpl.n	8002c9c <HAL_UART_IRQHandler+0x30>
 8002c96:	0631      	lsls	r1, r6, #24
 8002c98:	f100 8091 	bmi.w	8002dbe <HAL_UART_IRQHandler+0x152>
  if (((isrflags & USART_SR_TC) != RESET) && ((cr1its & USART_CR1_TCIE) != RESET))
 8002c9c:	065b      	lsls	r3, r3, #25
 8002c9e:	d502      	bpl.n	8002ca6 <HAL_UART_IRQHandler+0x3a>
 8002ca0:	0675      	lsls	r5, r6, #25
 8002ca2:	f100 80ab 	bmi.w	8002dfc <HAL_UART_IRQHandler+0x190>
}
 8002ca6:	b002      	add	sp, #8
 8002ca8:	bd70      	pop	{r4, r5, r6, pc}
      && ((isrflags & USART_SR_IDLE) != 0U)
 8002caa:	06d8      	lsls	r0, r3, #27
 8002cac:	d5f1      	bpl.n	8002c92 <HAL_UART_IRQHandler+0x26>
      && ((cr1its & USART_SR_IDLE) != 0U))
 8002cae:	06f1      	lsls	r1, r6, #27
 8002cb0:	d5ef      	bpl.n	8002c92 <HAL_UART_IRQHandler+0x26>
    __HAL_UART_CLEAR_IDLEFLAG(huart);
 8002cb2:	2300      	movs	r3, #0
 8002cb4:	9301      	str	r3, [sp, #4]
 8002cb6:	6813      	ldr	r3, [r2, #0]
 8002cb8:	9301      	str	r3, [sp, #4]
 8002cba:	6853      	ldr	r3, [r2, #4]
 8002cbc:	9301      	str	r3, [sp, #4]
 8002cbe:	9b01      	ldr	r3, [sp, #4]
    if (HAL_IS_BIT_SET(huart->Instance->CR3, USART_CR3_DMAR))
 8002cc0:	6953      	ldr	r3, [r2, #20]
 8002cc2:	065d      	lsls	r5, r3, #25
 8002cc4:	f140 810a 	bpl.w	8002edc <HAL_UART_IRQHandler+0x270>
      uint16_t nb_remaining_rx_data = (uint16_t) __HAL_DMA_GET_COUNTER(huart->hdmarx);
 8002cc8:	6be0      	ldr	r0, [r4, #60]	@ 0x3c
 8002cca:	6803      	ldr	r3, [r0, #0]
 8002ccc:	685b      	ldr	r3, [r3, #4]
 8002cce:	b29b      	uxth	r3, r3
      if ((nb_remaining_rx_data > 0U)
 8002cd0:	2b00      	cmp	r3, #0
 8002cd2:	d0e8      	beq.n	8002ca6 <HAL_UART_IRQHandler+0x3a>
          && (nb_remaining_rx_data < huart->RxXferSize))
 8002cd4:	8da1      	ldrh	r1, [r4, #44]	@ 0x2c
 8002cd6:	4299      	cmp	r1, r3
 8002cd8:	d9e5      	bls.n	8002ca6 <HAL_UART_IRQHandler+0x3a>
        huart->RxXferCount = nb_remaining_rx_data;
 8002cda:	85e3      	strh	r3, [r4, #46]	@ 0x2e
        if (huart->hdmarx->Init.Mode != DMA_CIRCULAR)
 8002cdc:	6983      	ldr	r3, [r0, #24]
 8002cde:	2b20      	cmp	r3, #32
 8002ce0:	d036      	beq.n	8002d50 <HAL_UART_IRQHandler+0xe4>
   __ASM volatile ("ldrex %0, %1" : "=r" (result) : "Q" (*addr) );
 8002ce2:	f102 030c 	add.w	r3, r2, #12
 8002ce6:	e853 3f00 	ldrex	r3, [r3]
          ATOMIC_CLEAR_BIT(huart->Instance->CR1, USART_CR1_PEIE);
 8002cea:	f423 7380 	bic.w	r3, r3, #256	@ 0x100
   __ASM volatile ("strex %0, %2, %1" : "=&r" (result), "=Q" (*addr) : "r" (value) );
 8002cee:	f102 050c 	add.w	r5, r2, #12
 8002cf2:	e845 3100 	strex	r1, r3, [r5]
 8002cf6:	2900      	cmp	r1, #0
 8002cf8:	d1f3      	bne.n	8002ce2 <HAL_UART_IRQHandler+0x76>
   __ASM volatile ("ldrex %0, %1" : "=r" (result) : "Q" (*addr) );
 8002cfa:	f102 0314 	add.w	r3, r2, #20
 8002cfe:	e853 3f00 	ldrex	r3, [r3]
          ATOMIC_CLEAR_BIT(huart->Instance->CR3, USART_CR3_EIE);
 8002d02:	f023 0301 	bic.w	r3, r3, #1
   __ASM volatile ("strex %0, %2, %1" : "=&r" (result), "=Q" (*addr) : "r" (value) );
 8002d06:	f102 0514 	add.w	r5, r2, #20
 8002d0a:	e845 3100 	strex	r1, r3, [r5]
 8002d0e:	2900      	cmp	r1, #0
 8002d10:	d1f3      	bne.n	8002cfa <HAL_UART_IRQHandler+0x8e>
   __ASM volatile ("ldrex %0, %1" : "=r" (result) : "Q" (*addr) );
 8002d12:	f102 0314 	add.w	r3, r2, #20
 8002d16:	e853 3f00 	ldrex	r3, [r3]
          ATOMIC_CLEAR_BIT(huart->Instance->CR3, USART_CR3_DMAR);
 8002d1a:	f023 0340 	bic.w	r3, r3, #64	@ 0x40
   __ASM volatile ("strex %0, %2, %1" : "=&r" (result), "=Q" (*addr) : "r" (value) );
 8002d1e:	f102 0514 	add.w	r5, r2, #20
 8002d22:	e845 3100 	strex	r1, r3, [r5]
 8002d26:	2900      	cmp	r1, #0
 8002d28:	d1f3      	bne.n	8002d12 <HAL_UART_IRQHandler+0xa6>
          huart->RxState = HAL_UART_STATE_READY;
 8002d2a:	2320      	movs	r3, #32
 8002d2c:	f884 3042 	strb.w	r3, [r4, #66]	@ 0x42
          huart->ReceptionType = HAL_UART_RECEPTION_STANDARD;
 8002d30:	6321      	str	r1, [r4, #48]	@ 0x30
   __ASM volatile ("ldrex %0, %1" : "=r" (result) : "Q" (*addr) );
 8002d32:	f102 030c 	add.w	r3, r2, #12
 8002d36:	e853 3f00 	ldrex	r3, [r3]
          ATOMIC_CLEAR_BIT(huart->Instance->CR1, USART_CR1_IDLEIE);
 8002d3a:	f023 0310 	bic.w	r3, r3, #16
   __ASM volatile ("strex %0, %2, %1" : "=&r" (result), "=Q" (*addr) : "r" (value) );
 8002d3e:	f102 050c 	add.w	r5, r2, #12
 8002d42:	e845 3100 	strex	r1, r3, [r5]
 8002d46:	2900      	cmp	r1, #0
 8002d48:	d1f3      	bne.n	8002d32 <HAL_UART_IRQHandler+0xc6>
          (void)HAL_DMA_Abort(huart->hdmarx);
 8002d4a:	f7fe f96b 	bl	8001024 <HAL_DMA_Abort>
        HAL_UARTEx_RxEventCallback(huart, (huart->RxXferSize - huart->RxXferCount));
 8002d4e:	8da1      	ldrh	r1, [r4, #44]	@ 0x2c
        huart->RxEventType = HAL_UART_RXEVENT_IDLE;
 8002d50:	2302      	movs	r3, #2
 8002d52:	6363      	str	r3, [r4, #52]	@ 0x34
        HAL_UARTEx_RxEventCallback(huart, (huart->RxXferSize - huart->RxXferCount));
 8002d54:	8de3      	ldrh	r3, [r4, #46]	@ 0x2e
 8002d56:	4620      	mov	r0, r4
 8002d58:	1ac9      	subs	r1, r1, r3
 8002d5a:	b289      	uxth	r1, r1
 8002d5c:	f7ff ff22 	bl	8002ba4 <HAL_UARTEx_RxEventCallback>
 8002d60:	e7a1      	b.n	8002ca6 <HAL_UART_IRQHandler+0x3a>
  if ((errorflags != RESET) && (((cr3its & USART_CR3_EIE) != RESET)
 8002d62:	f011 0101 	ands.w	r1, r1, #1
 8002d66:	d176      	bne.n	8002e56 <HAL_UART_IRQHandler+0x1ea>
                                || ((cr1its & (USART_CR1_RXNEIE | USART_CR1_PEIE)) != RESET)))
 8002d68:	f416 7f90 	tst.w	r6, #288	@ 0x120
 8002d6c:	d08e      	beq.n	8002c8c <HAL_UART_IRQHandler+0x20>
    if (((isrflags & USART_SR_PE) != RESET) && ((cr1its & USART_CR1_PEIE) != RESET))
 8002d6e:	07da      	lsls	r2, r3, #31
 8002d70:	d50a      	bpl.n	8002d88 <HAL_UART_IRQHandler+0x11c>
 8002d72:	05f0      	lsls	r0, r6, #23
 8002d74:	f140 80ed 	bpl.w	8002f52 <HAL_UART_IRQHandler+0x2e6>
      huart->ErrorCode |= HAL_UART_ERROR_PE;
 8002d78:	6c62      	ldr	r2, [r4, #68]	@ 0x44
    if (((isrflags & USART_SR_NE) != RESET) && ((cr3its & USART_CR3_EIE) != RESET))
 8002d7a:	0758      	lsls	r0, r3, #29
      huart->ErrorCode |= HAL_UART_ERROR_PE;
 8002d7c:	f042 0201 	orr.w	r2, r2, #1
 8002d80:	6462      	str	r2, [r4, #68]	@ 0x44
    if (((isrflags & USART_SR_NE) != RESET) && ((cr3its & USART_CR3_EIE) != RESET))
 8002d82:	d54f      	bpl.n	8002e24 <HAL_UART_IRQHandler+0x1b8>
 8002d84:	2900      	cmp	r1, #0
 8002d86:	d16a      	bne.n	8002e5e <HAL_UART_IRQHandler+0x1f2>
    if (((isrflags & USART_SR_FE) != RESET) && ((cr3its & USART_CR3_EIE) != RESET))
 8002d88:	0798      	lsls	r0, r3, #30
 8002d8a:	d55a      	bpl.n	8002e42 <HAL_UART_IRQHandler+0x1d6>
    if (((isrflags & USART_SR_ORE) != RESET) && (((cr1its & USART_CR1_RXNEIE) != RESET)
 8002d8c:	0719      	lsls	r1, r3, #28
 8002d8e:	f100 80a2 	bmi.w	8002ed6 <HAL_UART_IRQHandler+0x26a>
    if (huart->ErrorCode != HAL_UART_ERROR_NONE)
 8002d92:	6c62      	ldr	r2, [r4, #68]	@ 0x44
 8002d94:	2a00      	cmp	r2, #0
 8002d96:	d086      	beq.n	8002ca6 <HAL_UART_IRQHandler+0x3a>
      if (((isrflags & USART_SR_RXNE) != RESET) && ((cr1its & USART_CR1_RXNEIE) != RESET))
 8002d98:	069a      	lsls	r2, r3, #26
 8002d9a:	d502      	bpl.n	8002da2 <HAL_UART_IRQHandler+0x136>
 8002d9c:	06b3      	lsls	r3, r6, #26
 8002d9e:	f100 80dc 	bmi.w	8002f5a <HAL_UART_IRQHandler+0x2ee>
      dmarequest = HAL_IS_BIT_SET(huart->Instance->CR3, USART_CR3_DMAR);
 8002da2:	696b      	ldr	r3, [r5, #20]
      if (((huart->ErrorCode & HAL_UART_ERROR_ORE) != RESET) || dmarequest)
 8002da4:	6c62      	ldr	r2, [r4, #68]	@ 0x44
      dmarequest = HAL_IS_BIT_SET(huart->Instance->CR3, USART_CR3_DMAR);
 8002da6:	f003 0340 	and.w	r3, r3, #64	@ 0x40
      if (((huart->ErrorCode & HAL_UART_ERROR_ORE) != RESET) || dmarequest)
 8002daa:	f002 0208 	and.w	r2, r2, #8
 8002dae:	ea53 0602 	orrs.w	r6, r3, r2
        UART_EndRxTransfer(huart);
 8002db2:	4620      	mov	r0, r4
      if (((huart->ErrorCode & HAL_UART_ERROR_ORE) != RESET) || dmarequest)
 8002db4:	d15c      	bne.n	8002e70 <HAL_UART_IRQHandler+0x204>
        HAL_UART_ErrorCallback(huart);
 8002db6:	f7ff feb7 	bl	8002b28 <HAL_UART_ErrorCallback>
        huart->ErrorCode = HAL_UART_ERROR_NONE;
 8002dba:	6466      	str	r6, [r4, #68]	@ 0x44
 8002dbc:	e773      	b.n	8002ca6 <HAL_UART_IRQHandler+0x3a>
  if (huart->gState == HAL_UART_STATE_BUSY_TX)
 8002dbe:	f894 3041 	ldrb.w	r3, [r4, #65]	@ 0x41
 8002dc2:	2b21      	cmp	r3, #33	@ 0x21
 8002dc4:	f47f af6f 	bne.w	8002ca6 <HAL_UART_IRQHandler+0x3a>
    if ((huart->Init.WordLength == UART_WORDLENGTH_9B) && (huart->Init.Parity == UART_PARITY_NONE))
 8002dc8:	68a1      	ldr	r1, [r4, #8]
      tmp = (const uint16_t *) huart->pTxBuffPtr;
 8002dca:	6a23      	ldr	r3, [r4, #32]
    if ((huart->Init.WordLength == UART_WORDLENGTH_9B) && (huart->Init.Parity == UART_PARITY_NONE))
 8002dcc:	f5b1 5f80 	cmp.w	r1, #4096	@ 0x1000
 8002dd0:	f000 80c8 	beq.w	8002f64 <HAL_UART_IRQHandler+0x2f8>
      huart->Instance->DR = (uint8_t)(*huart->pTxBuffPtr++ & (uint8_t)0x00FF);
 8002dd4:	1c59      	adds	r1, r3, #1
 8002dd6:	6221      	str	r1, [r4, #32]
 8002dd8:	781b      	ldrb	r3, [r3, #0]
 8002dda:	6053      	str	r3, [r2, #4]
    if (--huart->TxXferCount == 0U)
 8002ddc:	8ce3      	ldrh	r3, [r4, #38]	@ 0x26
 8002dde:	3b01      	subs	r3, #1
 8002de0:	b29b      	uxth	r3, r3
 8002de2:	84e3      	strh	r3, [r4, #38]	@ 0x26
 8002de4:	2b00      	cmp	r3, #0
 8002de6:	f47f af5e 	bne.w	8002ca6 <HAL_UART_IRQHandler+0x3a>
      __HAL_UART_DISABLE_IT(huart, UART_IT_TXE);
 8002dea:	68d3      	ldr	r3, [r2, #12]
 8002dec:	f023 0380 	bic.w	r3, r3, #128	@ 0x80
 8002df0:	60d3      	str	r3, [r2, #12]
      __HAL_UART_ENABLE_IT(huart, UART_IT_TC);
 8002df2:	68d3      	ldr	r3, [r2, #12]
 8002df4:	f043 0340 	orr.w	r3, r3, #64	@ 0x40
 8002df8:	60d3      	str	r3, [r2, #12]
 8002dfa:	e754      	b.n	8002ca6 <HAL_UART_IRQHandler+0x3a>
  huart->gState = HAL_UART_STATE_READY;
 8002dfc:	2120      	movs	r1, #32
  __HAL_UART_DISABLE_IT(huart, UART_IT_TC);
 8002dfe:	68d3      	ldr	r3, [r2, #12]
  HAL_UART_TxCpltCallback(huart);
 8002e00:	4620      	mov	r0, r4
  __HAL_UART_DISABLE_IT(huart, UART_IT_TC);
 8002e02:	f023 0340 	bic.w	r3, r3, #64	@ 0x40
 8002e06:	60d3      	str	r3, [r2, #12]
  huart->gState = HAL_UART_STATE_READY;
 8002e08:	f884 1041 	strb.w	r1, [r4, #65]	@ 0x41
  HAL_UART_TxCpltCallback(huart);
 8002e0c:	f7ff fe5c 	bl	8002ac8 <HAL_UART_TxCpltCallback>
  return HAL_OK;
 8002e10:	e749      	b.n	8002ca6 <HAL_UART_IRQHandler+0x3a>
}
 8002e12:	b002      	add	sp, #8
 8002e14:	e8bd 4070 	ldmia.w	sp!, {r4, r5, r6, lr}
      UART_Receive_IT(huart);
 8002e18:	f7ff bec6 	b.w	8002ba8 <UART_Receive_IT.isra.0>
    if (((isrflags & USART_SR_PE) != RESET) && ((cr1its & USART_CR1_PEIE) != RESET))
 8002e1c:	05f0      	lsls	r0, r6, #23
 8002e1e:	d4ab      	bmi.n	8002d78 <HAL_UART_IRQHandler+0x10c>
    if (((isrflags & USART_SR_NE) != RESET) && ((cr3its & USART_CR3_EIE) != RESET))
 8002e20:	075a      	lsls	r2, r3, #29
 8002e22:	d41c      	bmi.n	8002e5e <HAL_UART_IRQHandler+0x1f2>
    if (((isrflags & USART_SR_FE) != RESET) && ((cr3its & USART_CR3_EIE) != RESET))
 8002e24:	0798      	lsls	r0, r3, #30
 8002e26:	d50c      	bpl.n	8002e42 <HAL_UART_IRQHandler+0x1d6>
 8002e28:	2900      	cmp	r1, #0
 8002e2a:	d0af      	beq.n	8002d8c <HAL_UART_IRQHandler+0x120>
      huart->ErrorCode |= HAL_UART_ERROR_FE;
 8002e2c:	6c62      	ldr	r2, [r4, #68]	@ 0x44
 8002e2e:	f042 0204 	orr.w	r2, r2, #4
 8002e32:	6462      	str	r2, [r4, #68]	@ 0x44
    if (((isrflags & USART_SR_ORE) != RESET) && (((cr1its & USART_CR1_RXNEIE) != RESET)
 8002e34:	071a      	lsls	r2, r3, #28
 8002e36:	d5ac      	bpl.n	8002d92 <HAL_UART_IRQHandler+0x126>
      huart->ErrorCode |= HAL_UART_ERROR_ORE;
 8002e38:	6c62      	ldr	r2, [r4, #68]	@ 0x44
 8002e3a:	f042 0208 	orr.w	r2, r2, #8
 8002e3e:	6462      	str	r2, [r4, #68]	@ 0x44
 8002e40:	e7a7      	b.n	8002d92 <HAL_UART_IRQHandler+0x126>
    if (((isrflags & USART_SR_ORE) != RESET) && (((cr1its & USART_CR1_RXNEIE) != RESET)
 8002e42:	0718      	lsls	r0, r3, #28
 8002e44:	d5a5      	bpl.n	8002d92 <HAL_UART_IRQHandler+0x126>
 8002e46:	f006 0220 	and.w	r2, r6, #32
 8002e4a:	430a      	orrs	r2, r1
 8002e4c:	d1f4      	bne.n	8002e38 <HAL_UART_IRQHandler+0x1cc>
    if (huart->ErrorCode != HAL_UART_ERROR_NONE)
 8002e4e:	6c63      	ldr	r3, [r4, #68]	@ 0x44
 8002e50:	2b00      	cmp	r3, #0
 8002e52:	d1a6      	bne.n	8002da2 <HAL_UART_IRQHandler+0x136>
 8002e54:	e727      	b.n	8002ca6 <HAL_UART_IRQHandler+0x3a>
    if (((isrflags & USART_SR_PE) != RESET) && ((cr1its & USART_CR1_PEIE) != RESET))
 8002e56:	07da      	lsls	r2, r3, #31
 8002e58:	d4e0      	bmi.n	8002e1c <HAL_UART_IRQHandler+0x1b0>
    if (((isrflags & USART_SR_NE) != RESET) && ((cr3its & USART_CR3_EIE) != RESET))
 8002e5a:	0758      	lsls	r0, r3, #29
 8002e5c:	d538      	bpl.n	8002ed0 <HAL_UART_IRQHandler+0x264>
      huart->ErrorCode |= HAL_UART_ERROR_NE;
 8002e5e:	6c62      	ldr	r2, [r4, #68]	@ 0x44
    if (((isrflags & USART_SR_FE) != RESET) && ((cr3its & USART_CR3_EIE) != RESET))
 8002e60:	0799      	lsls	r1, r3, #30
      huart->ErrorCode |= HAL_UART_ERROR_NE;
 8002e62:	f042 0202 	orr.w	r2, r2, #2
 8002e66:	6462      	str	r2, [r4, #68]	@ 0x44
    if (((isrflags & USART_SR_FE) != RESET) && ((cr3its & USART_CR3_EIE) != RESET))
 8002e68:	d4e0      	bmi.n	8002e2c <HAL_UART_IRQHandler+0x1c0>
    if (((isrflags & USART_SR_ORE) != RESET) && (((cr1its & USART_CR1_RXNEIE) != RESET)
 8002e6a:	071a      	lsls	r2, r3, #28
 8002e6c:	d4e4      	bmi.n	8002e38 <HAL_UART_IRQHandler+0x1cc>
 8002e6e:	e790      	b.n	8002d92 <HAL_UART_IRQHandler+0x126>
        UART_EndRxTransfer(huart);
 8002e70:	f7ff fd22 	bl	80028b8 <UART_EndRxTransfer>
        if (HAL_IS_BIT_SET(huart->Instance->CR3, USART_CR3_DMAR))
 8002e74:	696b      	ldr	r3, [r5, #20]
 8002e76:	065e      	lsls	r6, r3, #25
 8002e78:	d526      	bpl.n	8002ec8 <HAL_UART_IRQHandler+0x25c>
   __ASM volatile ("ldrex %0, %1" : "=r" (result) : "Q" (*addr) );
 8002e7a:	f105 0314 	add.w	r3, r5, #20
 8002e7e:	e853 3f00 	ldrex	r3, [r3]
          ATOMIC_CLEAR_BIT(huart->Instance->CR3, USART_CR3_DMAR);
 8002e82:	f023 0340 	bic.w	r3, r3, #64	@ 0x40
   __ASM volatile ("strex %0, %2, %1" : "=&r" (result), "=Q" (*addr) : "r" (value) );
 8002e86:	f105 0114 	add.w	r1, r5, #20
 8002e8a:	e841 3200 	strex	r2, r3, [r1]
 8002e8e:	b162      	cbz	r2, 8002eaa <HAL_UART_IRQHandler+0x23e>
 8002e90:	6822      	ldr	r2, [r4, #0]
   __ASM volatile ("ldrex %0, %1" : "=r" (result) : "Q" (*addr) );
 8002e92:	f102 0314 	add.w	r3, r2, #20
 8002e96:	e853 3f00 	ldrex	r3, [r3]
 8002e9a:	f023 0340 	bic.w	r3, r3, #64	@ 0x40
   __ASM volatile ("strex %0, %2, %1" : "=&r" (result), "=Q" (*addr) : "r" (value) );
 8002e9e:	f102 0014 	add.w	r0, r2, #20
 8002ea2:	e840 3100 	strex	r1, r3, [r0]
 8002ea6:	2900      	cmp	r1, #0
 8002ea8:	d1f3      	bne.n	8002e92 <HAL_UART_IRQHandler+0x226>
          if (huart->hdmarx != NULL)
 8002eaa:	6be0      	ldr	r0, [r4, #60]	@ 0x3c
 8002eac:	b160      	cbz	r0, 8002ec8 <HAL_UART_IRQHandler+0x25c>
            huart->hdmarx->XferAbortCallback = UART_DMAAbortOnError;
 8002eae:	4b33      	ldr	r3, [pc, #204]	@ (8002f7c <HAL_UART_IRQHandler+0x310>)
 8002eb0:	6343      	str	r3, [r0, #52]	@ 0x34
            if (HAL_DMA_Abort_IT(huart->hdmarx) != HAL_OK)
 8002eb2:	f7fe f8db 	bl	800106c <HAL_DMA_Abort_IT>
 8002eb6:	2800      	cmp	r0, #0
 8002eb8:	f43f aef5 	beq.w	8002ca6 <HAL_UART_IRQHandler+0x3a>
              huart->hdmarx->XferAbortCallback(huart->hdmarx);
 8002ebc:	6be0      	ldr	r0, [r4, #60]	@ 0x3c
 8002ebe:	6b43      	ldr	r3, [r0, #52]	@ 0x34
}
 8002ec0:	b002      	add	sp, #8
 8002ec2:	e8bd 4070 	ldmia.w	sp!, {r4, r5, r6, lr}
              huart->hdmarx->XferAbortCallback(huart->hdmarx);
 8002ec6:	4718      	bx	r3
            HAL_UART_ErrorCallback(huart);
 8002ec8:	4620      	mov	r0, r4
 8002eca:	f7ff fe2d 	bl	8002b28 <HAL_UART_ErrorCallback>
 8002ece:	e6ea      	b.n	8002ca6 <HAL_UART_IRQHandler+0x3a>
    if (((isrflags & USART_SR_FE) != RESET) && ((cr3its & USART_CR3_EIE) != RESET))
 8002ed0:	0799      	lsls	r1, r3, #30
 8002ed2:	d4ab      	bmi.n	8002e2c <HAL_UART_IRQHandler+0x1c0>
 8002ed4:	e7c9      	b.n	8002e6a <HAL_UART_IRQHandler+0x1fe>
    if (((isrflags & USART_SR_ORE) != RESET) && (((cr1its & USART_CR1_RXNEIE) != RESET)
 8002ed6:	06b2      	lsls	r2, r6, #26
 8002ed8:	d4ae      	bmi.n	8002e38 <HAL_UART_IRQHandler+0x1cc>
 8002eda:	e7b8      	b.n	8002e4e <HAL_UART_IRQHandler+0x1e2>
      uint16_t nb_rx_data = huart->RxXferSize - huart->RxXferCount;
 8002edc:	8de1      	ldrh	r1, [r4, #46]	@ 0x2e
      if ((huart->RxXferCount > 0U)
 8002ede:	8de3      	ldrh	r3, [r4, #46]	@ 0x2e
      uint16_t nb_rx_data = huart->RxXferSize - huart->RxXferCount;
 8002ee0:	8da0      	ldrh	r0, [r4, #44]	@ 0x2c
      if ((huart->RxXferCount > 0U)
 8002ee2:	b29b      	uxth	r3, r3
      uint16_t nb_rx_data = huart->RxXferSize - huart->RxXferCount;
 8002ee4:	b289      	uxth	r1, r1
      if ((huart->RxXferCount > 0U)
 8002ee6:	2b00      	cmp	r3, #0
 8002ee8:	f43f aedd 	beq.w	8002ca6 <HAL_UART_IRQHandler+0x3a>
      uint16_t nb_rx_data = huart->RxXferSize - huart->RxXferCount;
 8002eec:	1a41      	subs	r1, r0, r1
 8002eee:	b289      	uxth	r1, r1
          && (nb_rx_data > 0U))
 8002ef0:	2900      	cmp	r1, #0
 8002ef2:	f43f aed8 	beq.w	8002ca6 <HAL_UART_IRQHandler+0x3a>
   __ASM volatile ("ldrex %0, %1" : "=r" (result) : "Q" (*addr) );
 8002ef6:	f102 030c 	add.w	r3, r2, #12
 8002efa:	e853 3f00 	ldrex	r3, [r3]
        ATOMIC_CLEAR_BIT(huart->Instance->CR1, (USART_CR1_RXNEIE | USART_CR1_PEIE));
 8002efe:	f423 7390 	bic.w	r3, r3, #288	@ 0x120
   __ASM volatile ("strex %0, %2, %1" : "=&r" (result), "=Q" (*addr) : "r" (value) );
 8002f02:	f102 050c 	add.w	r5, r2, #12
 8002f06:	e845 3000 	strex	r0, r3, [r5]
 8002f0a:	2800      	cmp	r0, #0
 8002f0c:	d1f3      	bne.n	8002ef6 <HAL_UART_IRQHandler+0x28a>
   __ASM volatile ("ldrex %0, %1" : "=r" (result) : "Q" (*addr) );
 8002f0e:	f102 0314 	add.w	r3, r2, #20
 8002f12:	e853 3f00 	ldrex	r3, [r3]
        ATOMIC_CLEAR_BIT(huart->Instance->CR3, USART_CR3_EIE);
 8002f16:	f023 0301 	bic.w	r3, r3, #1
   __ASM volatile ("strex %0, %2, %1" : "=&r" (result), "=Q" (*addr) : "r" (value) );
 8002f1a:	f102 0514 	add.w	r5, r2, #20
 8002f1e:	e845 3000 	strex	r0, r3, [r5]
 8002f22:	2800      	cmp	r0, #0
 8002f24:	d1f3      	bne.n	8002f0e <HAL_UART_IRQHandler+0x2a2>
        huart->RxState = HAL_UART_STATE_READY;
 8002f26:	2320      	movs	r3, #32
 8002f28:	f884 3042 	strb.w	r3, [r4, #66]	@ 0x42
        huart->ReceptionType = HAL_UART_RECEPTION_STANDARD;
 8002f2c:	6320      	str	r0, [r4, #48]	@ 0x30
   __ASM volatile ("ldrex %0, %1" : "=r" (result) : "Q" (*addr) );
 8002f2e:	f102 030c 	add.w	r3, r2, #12
 8002f32:	e853 3f00 	ldrex	r3, [r3]
        ATOMIC_CLEAR_BIT(huart->Instance->CR1, USART_CR1_IDLEIE);
 8002f36:	f023 0310 	bic.w	r3, r3, #16
   __ASM volatile ("strex %0, %2, %1" : "=&r" (result), "=Q" (*addr) : "r" (value) );
 8002f3a:	f102 050c 	add.w	r5, r2, #12
 8002f3e:	e845 3000 	strex	r0, r3, [r5]
 8002f42:	2800      	cmp	r0, #0
 8002f44:	d1f3      	bne.n	8002f2e <HAL_UART_IRQHandler+0x2c2>
        huart->RxEventType = HAL_UART_RXEVENT_IDLE;
 8002f46:	2302      	movs	r3, #2
        HAL_UARTEx_RxEventCallback(huart, nb_rx_data);
 8002f48:	4620      	mov	r0, r4
        huart->RxEventType = HAL_UART_RXEVENT_IDLE;
 8002f4a:	6363      	str	r3, [r4, #52]	@ 0x34
        HAL_UARTEx_RxEventCallback(huart, nb_rx_data);
 8002f4c:	f7ff fe2a 	bl	8002ba4 <HAL_UARTEx_RxEventCallback>
 8002f50:	e6a9      	b.n	8002ca6 <HAL_UART_IRQHandler+0x3a>
    if (((isrflags & USART_SR_NE) != RESET) && ((cr3its & USART_CR3_EIE) != RESET))
 8002f52:	075a      	lsls	r2, r3, #29
 8002f54:	f53f af18 	bmi.w	8002d88 <HAL_UART_IRQHandler+0x11c>
 8002f58:	e764      	b.n	8002e24 <HAL_UART_IRQHandler+0x1b8>
        UART_Receive_IT(huart);
 8002f5a:	4620      	mov	r0, r4
 8002f5c:	f7ff fe24 	bl	8002ba8 <UART_Receive_IT.isra.0>
      dmarequest = HAL_IS_BIT_SET(huart->Instance->CR3, USART_CR3_DMAR);
 8002f60:	6825      	ldr	r5, [r4, #0]
 8002f62:	e71e      	b.n	8002da2 <HAL_UART_IRQHandler+0x136>
    if ((huart->Init.WordLength == UART_WORDLENGTH_9B) && (huart->Init.Parity == UART_PARITY_NONE))
 8002f64:	6921      	ldr	r1, [r4, #16]
 8002f66:	2900      	cmp	r1, #0
 8002f68:	f47f af34 	bne.w	8002dd4 <HAL_UART_IRQHandler+0x168>
      huart->Instance->DR = (uint16_t)(*tmp & (uint16_t)0x01FF);
 8002f6c:	f833 1b02 	ldrh.w	r1, [r3], #2
 8002f70:	f3c1 0108 	ubfx	r1, r1, #0, #9
 8002f74:	6051      	str	r1, [r2, #4]
      huart->pTxBuffPtr += 2U;
 8002f76:	6223      	str	r3, [r4, #32]
 8002f78:	e730      	b.n	8002ddc <HAL_UART_IRQHandler+0x170>
 8002f7a:	bf00      	nop
 8002f7c:	08002b95 	.word	0x08002b95

08002f80 <app_init>:

task_dta_t task_dta_list[TASK_QTY];

/********************** external functions definition ************************/
void app_init(void)
{
 8002f80:	e92d 4ff0 	stmdb	sp!, {r4, r5, r6, r7, r8, r9, sl, fp, lr}
 8002f84:	b083      	sub	sp, #12
	uint32_t index;

	/* Print out: Application Initialized */
	LOGGER_INFO(" ");
 8002f86:	b672      	cpsid	i
 8002f88:	f04f 0a07 	mov.w	sl, #7
 8002f8c:	4b6e      	ldr	r3, [pc, #440]	@ (8003148 <app_init+0x1c8>)
 8002f8e:	4f6f      	ldr	r7, [pc, #444]	@ (800314c <app_init+0x1cc>)
 8002f90:	681c      	ldr	r4, [r3, #0]
 8002f92:	4d6f      	ldr	r5, [pc, #444]	@ (8003150 <app_init+0x1d0>)
 8002f94:	cf03      	ldmia	r7!, {r0, r1}
 8002f96:	6020      	str	r0, [r4, #0]
 8002f98:	6061      	str	r1, [r4, #4]
 8002f9a:	4620      	mov	r0, r4
 8002f9c:	f8c5 a000 	str.w	sl, [r5]
 8002fa0:	f000 f982 	bl	80032a8 <logger_log_print_>
 8002fa4:	b662      	cpsie	i
 8002fa6:	b672      	cpsid	i
 8002fa8:	f04f 0801 	mov.w	r8, #1
 8002fac:	4b69      	ldr	r3, [pc, #420]	@ (8003154 <app_init+0x1d4>)
 8002fae:	4620      	mov	r0, r4
 8002fb0:	881b      	ldrh	r3, [r3, #0]
 8002fb2:	8023      	strh	r3, [r4, #0]
 8002fb4:	f8c5 8000 	str.w	r8, [r5]
 8002fb8:	f000 f976 	bl	80032a8 <logger_log_print_>
 8002fbc:	b662      	cpsie	i
 8002fbe:	b672      	cpsid	i
 8002fc0:	4b65      	ldr	r3, [pc, #404]	@ (8003158 <app_init+0x1d8>)
 8002fc2:	4620      	mov	r0, r4
 8002fc4:	f8b3 9000 	ldrh.w	r9, [r3]
 8002fc8:	f8a4 9000 	strh.w	r9, [r4]
 8002fcc:	f8c5 8000 	str.w	r8, [r5]
 8002fd0:	f000 f96a 	bl	80032a8 <logger_log_print_>
 8002fd4:	b662      	cpsie	i
	LOGGER_INFO("%s is running - Tick [mS] = %lu", GET_NAME(app_init), HAL_GetTick());
 8002fd6:	b672      	cpsid	i
 8002fd8:	f1a7 0308 	sub.w	r3, r7, #8
 8002fdc:	cb03      	ldmia	r3!, {r0, r1}
 8002fde:	6020      	str	r0, [r4, #0]
 8002fe0:	6061      	str	r1, [r4, #4]
 8002fe2:	4620      	mov	r0, r4
 8002fe4:	f8c5 a000 	str.w	sl, [r5]
 8002fe8:	f000 f95e 	bl	80032a8 <logger_log_print_>
 8002fec:	b662      	cpsie	i
 8002fee:	b672      	cpsid	i
 8002ff0:	f7fd fcb2 	bl	8000958 <HAL_GetTick>
 8002ff4:	213f      	movs	r1, #63	@ 0x3f
 8002ff6:	4b59      	ldr	r3, [pc, #356]	@ (800315c <app_init+0x1dc>)
 8002ff8:	4a59      	ldr	r2, [pc, #356]	@ (8003160 <app_init+0x1e0>)
 8002ffa:	9000      	str	r0, [sp, #0]
 8002ffc:	4620      	mov	r0, r4
 8002ffe:	f002 f8e3 	bl	80051c8 <sniprintf>
 8003002:	6028      	str	r0, [r5, #0]
 8003004:	4620      	mov	r0, r4
 8003006:	f000 f94f 	bl	80032a8 <logger_log_print_>
 800300a:	b662      	cpsie	i
 800300c:	b672      	cpsid	i
 800300e:	f8a4 9000 	strh.w	r9, [r4]
 8003012:	4620      	mov	r0, r4
 8003014:	f8c5 8000 	str.w	r8, [r5]
 8003018:	f000 f946 	bl	80032a8 <logger_log_print_>
 800301c:	b662      	cpsie	i

	LOGGER_INFO(p_sys);
 800301e:	b672      	cpsid	i
 8003020:	f1a7 0308 	sub.w	r3, r7, #8
 8003024:	cb03      	ldmia	r3!, {r0, r1}
 8003026:	6020      	str	r0, [r4, #0]
 8003028:	6061      	str	r1, [r4, #4]
 800302a:	4620      	mov	r0, r4
 800302c:	f8c5 a000 	str.w	sl, [r5]
 8003030:	f000 f93a 	bl	80032a8 <logger_log_print_>
 8003034:	b662      	cpsie	i
 8003036:	b672      	cpsid	i
 8003038:	4b4a      	ldr	r3, [pc, #296]	@ (8003164 <app_init+0x1e4>)
 800303a:	213f      	movs	r1, #63	@ 0x3f
 800303c:	681a      	ldr	r2, [r3, #0]
 800303e:	4620      	mov	r0, r4
 8003040:	f002 f8c2 	bl	80051c8 <sniprintf>
 8003044:	6028      	str	r0, [r5, #0]
 8003046:	4620      	mov	r0, r4
 8003048:	f000 f92e 	bl	80032a8 <logger_log_print_>
 800304c:	b662      	cpsie	i
 800304e:	b672      	cpsid	i
 8003050:	f8a4 9000 	strh.w	r9, [r4]
 8003054:	4620      	mov	r0, r4
 8003056:	f8c5 8000 	str.w	r8, [r5]
 800305a:	f000 f925 	bl	80032a8 <logger_log_print_>
 800305e:	b662      	cpsie	i
	LOGGER_INFO(p_app);
 8003060:	b672      	cpsid	i
 8003062:	f1a7 0308 	sub.w	r3, r7, #8
 8003066:	cb03      	ldmia	r3!, {r0, r1}
 8003068:	6020      	str	r0, [r4, #0]
 800306a:	6061      	str	r1, [r4, #4]
 800306c:	4620      	mov	r0, r4
 800306e:	f8c5 a000 	str.w	sl, [r5]
 8003072:	f000 f919 	bl	80032a8 <logger_log_print_>
 8003076:	b662      	cpsie	i
 8003078:	b672      	cpsid	i
 800307a:	4b3b      	ldr	r3, [pc, #236]	@ (8003168 <app_init+0x1e8>)
 800307c:	213f      	movs	r1, #63	@ 0x3f
 800307e:	681a      	ldr	r2, [r3, #0]
 8003080:	4620      	mov	r0, r4
 8003082:	f002 f8a1 	bl	80051c8 <sniprintf>
 8003086:	6028      	str	r0, [r5, #0]
 8003088:	4620      	mov	r0, r4
 800308a:	f000 f90d 	bl	80032a8 <logger_log_print_>
 800308e:	b662      	cpsie	i
 8003090:	b672      	cpsid	i
 8003092:	f8a4 9000 	strh.w	r9, [r4]
 8003096:	4620      	mov	r0, r4
 8003098:	f8c5 8000 	str.w	r8, [r5]
 800309c:	f000 f904 	bl	80032a8 <logger_log_print_>
 80030a0:	b662      	cpsie	i

	/* Init & Print out: Application execution counter */
	g_app_cnt = G_APP_CNT_INI;
 80030a2:	2600      	movs	r6, #0
 80030a4:	f8df b0c4 	ldr.w	fp, [pc, #196]	@ 800316c <app_init+0x1ec>
 80030a8:	f8cb 6000 	str.w	r6, [fp]
	LOGGER_INFO(" %s = %lu", GET_NAME(g_app_cnt), g_app_cnt);
 80030ac:	b672      	cpsid	i
 80030ae:	3f08      	subs	r7, #8
 80030b0:	cf03      	ldmia	r7!, {r0, r1}
 80030b2:	6020      	str	r0, [r4, #0]
 80030b4:	6061      	str	r1, [r4, #4]
 80030b6:	4620      	mov	r0, r4
 80030b8:	f8c5 a000 	str.w	sl, [r5]
 80030bc:	f000 f8f4 	bl	80032a8 <logger_log_print_>
 80030c0:	b662      	cpsie	i
 80030c2:	b672      	cpsid	i
 80030c4:	f8db 3000 	ldr.w	r3, [fp]
 80030c8:	213f      	movs	r1, #63	@ 0x3f
 80030ca:	4a29      	ldr	r2, [pc, #164]	@ (8003170 <app_init+0x1f0>)
 80030cc:	9300      	str	r3, [sp, #0]
 80030ce:	4620      	mov	r0, r4
 80030d0:	4b28      	ldr	r3, [pc, #160]	@ (8003174 <app_init+0x1f4>)
 80030d2:	f002 f879 	bl	80051c8 <sniprintf>
 80030d6:	6028      	str	r0, [r5, #0]
 80030d8:	4620      	mov	r0, r4
 80030da:	f000 f8e5 	bl	80032a8 <logger_log_print_>
 80030de:	b662      	cpsie	i
 80030e0:	b672      	cpsid	i
 80030e2:	f8a4 9000 	strh.w	r9, [r4]
 80030e6:	4620      	mov	r0, r4
 80030e8:	f8c5 8000 	str.w	r8, [r5]
 80030ec:	f000 f8dc 	bl	80032a8 <logger_log_print_>
 80030f0:	b662      	cpsie	i
/*!< DWT Cycle Counter register */
/*!< CYCCNTENA bit in DWT_CONTROL register */
static inline void cycle_counter_init(void) __attribute__((always_inline));
static inline void cycle_counter_init(void)
{
	 CoreDebug->DEMCR |= CoreDebug_DEMCR_TRCENA_Msk;/* enable DWT hardware */
 80030f2:	4921      	ldr	r1, [pc, #132]	@ (8003178 <app_init+0x1f8>)
	 DWT->CYCCNT = 0;								/* reset cycle counter */
 80030f4:	4b21      	ldr	r3, [pc, #132]	@ (800317c <app_init+0x1fc>)
	 CoreDebug->DEMCR |= CoreDebug_DEMCR_TRCENA_Msk;/* enable DWT hardware */
 80030f6:	f8d1 20fc 	ldr.w	r2, [r1, #252]	@ 0xfc
 80030fa:	4c21      	ldr	r4, [pc, #132]	@ (8003180 <app_init+0x200>)
 80030fc:	f042 7280 	orr.w	r2, r2, #16777216	@ 0x1000000
 8003100:	f8c1 20fc 	str.w	r2, [r1, #252]	@ 0xfc
	 DWT->CYCCNT = 0;								/* reset cycle counter */
 8003104:	605e      	str	r6, [r3, #4]
	 DWT->CTRL |= DWT_CTRL_CYCCNTENA_Msk;			/* start counting */
 8003106:	681a      	ldr	r2, [r3, #0]
 8003108:	4d1e      	ldr	r5, [pc, #120]	@ (8003184 <app_init+0x204>)
 800310a:	ea42 0208 	orr.w	r2, r2, r8
 800310e:	601a      	str	r2, [r3, #0]

	/* Init Cycle Counter */
	cycle_counter_init();

    /* Go through the task arrays */
	for (index = 0; TASK_QTY > index; index++)
 8003110:	f104 073c 	add.w	r7, r4, #60	@ 0x3c
	{
		/* Run task_x_init */
		(*task_cfg_list[index].task_init)(task_cfg_list[index].parameters);
 8003114:	68a0      	ldr	r0, [r4, #8]
 8003116:	f854 3b0c 	ldr.w	r3, [r4], #12
 800311a:	4798      	blx	r3
	for (index = 0; TASK_QTY > index; index++)
 800311c:	42bc      	cmp	r4, r7

		/* Init variables */
		task_dta_list[index].WCET = TASK_X_WCET_INI;
 800311e:	f845 6b04 	str.w	r6, [r5], #4
	for (index = 0; TASK_QTY > index; index++)
 8003122:	d1f7      	bne.n	8003114 <app_init+0x194>
	}

	/* Protect shared resource */
	__asm("CPSID i");	/* disable interrupts */
 8003124:	b672      	cpsid	i
	/* Init Tick Counter */
	g_app_tick_cnt = G_APP_TICK_CNT_INI;
 8003126:	4a18      	ldr	r2, [pc, #96]	@ (8003188 <app_init+0x208>)

	g_task_sensor_tick_cnt = G_APP_TICK_CNT_INI;
 8003128:	4b18      	ldr	r3, [pc, #96]	@ (800318c <app_init+0x20c>)
	g_app_tick_cnt = G_APP_TICK_CNT_INI;
 800312a:	6016      	str	r6, [r2, #0]

	g_task_hc05_tick_cnt = G_APP_TICK_CNT_INI;
 800312c:	4818      	ldr	r0, [pc, #96]	@ (8003190 <app_init+0x210>)
	g_task_sensor_tick_cnt = G_APP_TICK_CNT_INI;
 800312e:	601e      	str	r6, [r3, #0]

	g_task_mic_tick_cnt = G_APP_TICK_CNT_INI;
 8003130:	4918      	ldr	r1, [pc, #96]	@ (8003194 <app_init+0x214>)

	g_task_system_tick_cnt = G_APP_TICK_CNT_INI;
 8003132:	4a19      	ldr	r2, [pc, #100]	@ (8003198 <app_init+0x218>)

	g_task_GPIO_output_tick_cnt = G_APP_TICK_CNT_INI;
 8003134:	4b19      	ldr	r3, [pc, #100]	@ (800319c <app_init+0x21c>)
	g_task_hc05_tick_cnt = G_APP_TICK_CNT_INI;
 8003136:	6006      	str	r6, [r0, #0]
	g_task_mic_tick_cnt = G_APP_TICK_CNT_INI;
 8003138:	600e      	str	r6, [r1, #0]
	g_task_system_tick_cnt = G_APP_TICK_CNT_INI;
 800313a:	6016      	str	r6, [r2, #0]
	g_task_GPIO_output_tick_cnt = G_APP_TICK_CNT_INI;
 800313c:	601e      	str	r6, [r3, #0]
    __asm("CPSIE i");	/* enable interrupts */
 800313e:	b662      	cpsie	i
}
 8003140:	b003      	add	sp, #12
 8003142:	e8bd 8ff0 	ldmia.w	sp!, {r4, r5, r6, r7, r8, r9, sl, fp, pc}
 8003146:	bf00      	nop
 8003148:	080064d0 	.word	0x080064d0
 800314c:	0800615c 	.word	0x0800615c
 8003150:	20000324 	.word	0x20000324
 8003154:	08006164 	.word	0x08006164
 8003158:	08006168 	.word	0x08006168
 800315c:	0800616c 	.word	0x0800616c
 8003160:	08006178 	.word	0x08006178
 8003164:	20000010 	.word	0x20000010
 8003168:	2000000c 	.word	0x2000000c
 800316c:	20000320 	.word	0x20000320
 8003170:	080061a4 	.word	0x080061a4
 8003174:	08006198 	.word	0x08006198
 8003178:	e000ed00 	.word	0xe000ed00
 800317c:	e0001000 	.word	0xe0001000
 8003180:	08006494 	.word	0x08006494
 8003184:	20000304 	.word	0x20000304
 8003188:	20000318 	.word	0x20000318
 800318c:	20000494 	.word	0x20000494
 8003190:	20000370 	.word	0x20000370
 8003194:	200003b4 	.word	0x200003b4
 8003198:	200004bc 	.word	0x200004bc
 800319c:	20000368 	.word	0x20000368

080031a0 <app_update>:

void app_update(void)
{
 80031a0:	e92d 4ff8 	stmdb	sp!, {r3, r4, r5, r6, r7, r8, r9, sl, fp, lr}
	uint32_t index;
	bool b_time_update_required = false;
	uint32_t cycle_counter_time_us;

	/* Protect shared resource */
	__asm("CPSID i");	/* disable interrupts */
 80031a4:	b672      	cpsid	i
    if (G_APP_TICK_CNT_INI < g_app_tick_cnt)
 80031a6:	4b24      	ldr	r3, [pc, #144]	@ (8003238 <app_update+0x98>)
 80031a8:	681b      	ldr	r3, [r3, #0]
 80031aa:	2b00      	cmp	r3, #0
 80031ac:	d03d      	beq.n	800322a <app_update+0x8a>
    {
		/* Update Tick Counter */
    	g_app_tick_cnt--;
 80031ae:	4a22      	ldr	r2, [pc, #136]	@ (8003238 <app_update+0x98>)
 80031b0:	6813      	ldr	r3, [r2, #0]
 80031b2:	3b01      	subs	r3, #1
 80031b4:	6013      	str	r3, [r2, #0]
    	b_time_update_required = true;
    }
    __asm("CPSIE i");	/* enable interrupts */
 80031b6:	b662      	cpsie	i
	/* Check if it's time to run tasks */
    while (b_time_update_required)
    {
    	/* Update App Counter */
    	g_app_cnt++;
    	g_app_runtime_us = 0;
 80031b8:	2600      	movs	r6, #0
 80031ba:	f8df b080 	ldr.w	fp, [pc, #128]	@ 800323c <app_update+0x9c>
 80031be:	f8df 8080 	ldr.w	r8, [pc, #128]	@ 8003240 <app_update+0xa0>
 80031c2:	f8df a080 	ldr.w	sl, [pc, #128]	@ 8003244 <app_update+0xa4>
/* reset cycle counter */
/*!< DWT Cycle Counter register */
static inline void cycle_counter_reset(void) __attribute__((always_inline));
static inline void cycle_counter_reset(void)
{
	DWT->CYCCNT = 0;
 80031c6:	f8df 9080 	ldr.w	r9, [pc, #128]	@ 8003248 <app_update+0xa8>
}

static inline uint32_t cycle_counter_get_time_us(void) __attribute__((always_inline));
static inline uint32_t cycle_counter_get_time_us(void)
{
	return (DWT->CYCCNT / (SystemCoreClock / 1000000));
 80031ca:	4f20      	ldr	r7, [pc, #128]	@ (800324c <app_update+0xac>)
    	g_app_cnt++;
 80031cc:	4a20      	ldr	r2, [pc, #128]	@ (8003250 <app_update+0xb0>)
 80031ce:	4c21      	ldr	r4, [pc, #132]	@ (8003254 <app_update+0xb4>)
 80031d0:	6813      	ldr	r3, [r2, #0]
 80031d2:	4d21      	ldr	r5, [pc, #132]	@ (8003258 <app_update+0xb8>)
 80031d4:	3301      	adds	r3, #1
 80031d6:	6013      	str	r3, [r2, #0]
    	g_app_runtime_us = 0;
 80031d8:	f8cb 6000 	str.w	r6, [fp]
		for (index = 0; TASK_QTY > index; index++)
		{
			cycle_counter_reset();

    		/* Run task_x_update */
			(*task_cfg_list[index].task_update)(task_cfg_list[index].parameters);
 80031dc:	e9d4 3001 	ldrd	r3, r0, [r4, #4]
	DWT->CYCCNT = 0;
 80031e0:	f8c9 6004 	str.w	r6, [r9, #4]
 80031e4:	4798      	blx	r3
	return (DWT->CYCCNT / (SystemCoreClock / 1000000));
 80031e6:	f8da 3000 	ldr.w	r3, [sl]
 80031ea:	f8d9 1004 	ldr.w	r1, [r9, #4]
 80031ee:	fba7 0303 	umull	r0, r3, r7, r3
 80031f2:	0c9b      	lsrs	r3, r3, #18
 80031f4:	fbb1 f3f3 	udiv	r3, r1, r3
			cycle_counter_time_us = cycle_counter_get_time_us();

			/* Update variables */
			g_app_runtime_us += cycle_counter_time_us;

			if (task_dta_list[index].WCET < cycle_counter_time_us)
 80031f8:	f855 2b04 	ldr.w	r2, [r5], #4
			g_app_runtime_us += cycle_counter_time_us;
 80031fc:	f8db 0000 	ldr.w	r0, [fp]
			if (task_dta_list[index].WCET < cycle_counter_time_us)
 8003200:	429a      	cmp	r2, r3
			g_app_runtime_us += cycle_counter_time_us;
 8003202:	4418      	add	r0, r3
			{
				task_dta_list[index].WCET = cycle_counter_time_us;
 8003204:	bf38      	it	cc
 8003206:	f845 3c04 	strcc.w	r3, [r5, #-4]
		for (index = 0; TASK_QTY > index; index++)
 800320a:	4545      	cmp	r5, r8
 800320c:	f104 040c 	add.w	r4, r4, #12
			g_app_runtime_us += cycle_counter_time_us;
 8003210:	f8cb 0000 	str.w	r0, [fp]
		for (index = 0; TASK_QTY > index; index++)
 8003214:	d1e2      	bne.n	80031dc <app_update+0x3c>
			}
		}

		/* Protect shared resource */
		__asm("CPSID i");	/* disable interrupts */
 8003216:	b672      	cpsid	i
		if (G_APP_TICK_CNT_INI < g_app_tick_cnt)
 8003218:	4b07      	ldr	r3, [pc, #28]	@ (8003238 <app_update+0x98>)
 800321a:	681b      	ldr	r3, [r3, #0]
 800321c:	b12b      	cbz	r3, 800322a <app_update+0x8a>
		{
			/* Update Tick Counter */
			g_app_tick_cnt--;
 800321e:	4a06      	ldr	r2, [pc, #24]	@ (8003238 <app_update+0x98>)
 8003220:	6813      	ldr	r3, [r2, #0]
 8003222:	3b01      	subs	r3, #1
 8003224:	6013      	str	r3, [r2, #0]
		}
		else
		{
			b_time_update_required = false;
		}
		__asm("CPSIE i");	/* enable interrupts */
 8003226:	b662      	cpsie	i
    while (b_time_update_required)
 8003228:	e7d0      	b.n	80031cc <app_update+0x2c>
		__asm("CPSIE i");	/* enable interrupts */
 800322a:	b662      	cpsie	i
	}

    HAL_PWR_EnterSLEEPMode(PWR_MAINREGULATOR_ON, PWR_SLEEPENTRY_WFI);
 800322c:	2101      	movs	r1, #1
}
 800322e:	e8bd 4ff8 	ldmia.w	sp!, {r3, r4, r5, r6, r7, r8, r9, sl, fp, lr}
    HAL_PWR_EnterSLEEPMode(PWR_MAINREGULATOR_ON, PWR_SLEEPENTRY_WFI);
 8003232:	2000      	movs	r0, #0
 8003234:	f7fe bd04 	b.w	8001c40 <HAL_PWR_EnterSLEEPMode>
 8003238:	20000318 	.word	0x20000318
 800323c:	2000031c 	.word	0x2000031c
 8003240:	20000318 	.word	0x20000318
 8003244:	20000000 	.word	0x20000000
 8003248:	e0001000 	.word	0xe0001000
 800324c:	431bde83 	.word	0x431bde83
 8003250:	20000320 	.word	0x20000320
 8003254:	08006494 	.word	0x08006494
 8003258:	20000304 	.word	0x20000304

0800325c <HAL_SYSTICK_Callback>:

void HAL_SYSTICK_Callback(void)
{
	/* Update Tick Counter */
	g_app_tick_cnt++;
 800325c:	480c      	ldr	r0, [pc, #48]	@ (8003290 <HAL_SYSTICK_Callback+0x34>)

	g_task_sensor_tick_cnt++;
 800325e:	4a0d      	ldr	r2, [pc, #52]	@ (8003294 <HAL_SYSTICK_Callback+0x38>)
	g_app_tick_cnt++;
 8003260:	6803      	ldr	r3, [r0, #0]

	g_task_hc05_tick_cnt++;
 8003262:	490d      	ldr	r1, [pc, #52]	@ (8003298 <HAL_SYSTICK_Callback+0x3c>)
	g_app_tick_cnt++;
 8003264:	3301      	adds	r3, #1
 8003266:	6003      	str	r3, [r0, #0]
	g_task_sensor_tick_cnt++;
 8003268:	6813      	ldr	r3, [r2, #0]
 800326a:	3301      	adds	r3, #1
 800326c:	6013      	str	r3, [r2, #0]
	g_task_hc05_tick_cnt++;
 800326e:	680b      	ldr	r3, [r1, #0]

	g_task_mic_tick_cnt++;
 8003270:	4a0a      	ldr	r2, [pc, #40]	@ (800329c <HAL_SYSTICK_Callback+0x40>)
	g_task_hc05_tick_cnt++;
 8003272:	3301      	adds	r3, #1
 8003274:	600b      	str	r3, [r1, #0]
	g_task_mic_tick_cnt++;
 8003276:	6813      	ldr	r3, [r2, #0]

	g_task_system_tick_cnt++;
 8003278:	4909      	ldr	r1, [pc, #36]	@ (80032a0 <HAL_SYSTICK_Callback+0x44>)
	g_task_mic_tick_cnt++;
 800327a:	3301      	adds	r3, #1
 800327c:	6013      	str	r3, [r2, #0]
	g_task_system_tick_cnt++;
 800327e:	680b      	ldr	r3, [r1, #0]

	g_task_GPIO_output_tick_cnt++;
 8003280:	4a08      	ldr	r2, [pc, #32]	@ (80032a4 <HAL_SYSTICK_Callback+0x48>)
	g_task_system_tick_cnt++;
 8003282:	3301      	adds	r3, #1
 8003284:	600b      	str	r3, [r1, #0]
	g_task_GPIO_output_tick_cnt++;
 8003286:	6813      	ldr	r3, [r2, #0]
 8003288:	3301      	adds	r3, #1
 800328a:	6013      	str	r3, [r2, #0]
}
 800328c:	4770      	bx	lr
 800328e:	bf00      	nop
 8003290:	20000318 	.word	0x20000318
 8003294:	20000494 	.word	0x20000494
 8003298:	20000370 	.word	0x20000370
 800329c:	200003b4 	.word	0x200003b4
 80032a0:	200004bc 	.word	0x200004bc
 80032a4:	20000368 	.word	0x20000368

080032a8 <logger_log_print_>:

/********************** external functions definition ************************/

#if 1 == LOGGER_CONFIG_USE_SEMIHOSTING
void logger_log_print_(char* const msg)
{
 80032a8:	b508      	push	{r3, lr}
	printf(msg);
 80032aa:	f001 ff7b 	bl	80051a4 <iprintf>
	fflush(stdout);
 80032ae:	4b03      	ldr	r3, [pc, #12]	@ (80032bc <logger_log_print_+0x14>)
 80032b0:	681b      	ldr	r3, [r3, #0]
 80032b2:	6898      	ldr	r0, [r3, #8]
}
 80032b4:	e8bd 4008 	ldmia.w	sp!, {r3, lr}
	fflush(stdout);
 80032b8:	f001 be9e 	b.w	8004ff8 <fflush>
 80032bc:	2000009c 	.word	0x2000009c

080032c0 <EEPROM_ReadSymbol>:

    // EEPROM devuelve MSB primero (generalmente)
    return (buffer[0] << 8) | buffer[1];
}

void EEPROM_ReadSymbol(morse_entry_t* Symbol , uint16_t index){
 80032c0:	b5f0      	push	{r4, r5, r6, r7, lr}
    HAL_I2C_Mem_Read(
 80032c2:	2202      	movs	r2, #2
void EEPROM_ReadSymbol(morse_entry_t* Symbol , uint16_t index){
 80032c4:	460e      	mov	r6, r1
    HAL_I2C_Mem_Read(
 80032c6:	f04f 37ff 	mov.w	r7, #4294967295
    uint8_t buffer[2] = {0};
 80032ca:	2400      	movs	r4, #0
void EEPROM_ReadSymbol(morse_entry_t* Symbol , uint16_t index){
 80032cc:	4605      	mov	r5, r0
 80032ce:	b087      	sub	sp, #28
    HAL_I2C_Mem_Read(
 80032d0:	ab05      	add	r3, sp, #20
 80032d2:	21a0      	movs	r1, #160	@ 0xa0
 80032d4:	e9cd 2701 	strd	r2, r7, [sp, #4]
 80032d8:	9300      	str	r3, [sp, #0]
 80032da:	4632      	mov	r2, r6
 80032dc:	2301      	movs	r3, #1
 80032de:	4810      	ldr	r0, [pc, #64]	@ (8003320 <EEPROM_ReadSymbol+0x60>)
    uint8_t buffer[2] = {0};
 80032e0:	f8ad 4014 	strh.w	r4, [sp, #20]
    HAL_I2C_Mem_Read(
 80032e4:	f7fe fb46 	bl	8001974 <HAL_I2C_Mem_Read>
    return (buffer[0] << 8) | buffer[1];
 80032e8:	f8bd 1014 	ldrh.w	r1, [sp, #20]
	uint16_t reading = EEPROM_Read2Bytes(index);
	Symbol->index = index;
 80032ec:	702e      	strb	r6, [r5, #0]
 80032ee:	ba49      	rev16	r1, r1
	uint8_t sequence = reading >> 8;
	Symbol->len = (sequence & 0b11100000) >> 5;
 80032f0:	f3c1 3642 	ubfx	r6, r1, #13, #3
 80032f4:	fa1f fc81 	uxth.w	ip, r1
 80032f8:	706e      	strb	r6, [r5, #1]
	uint8_t sequence = reading >> 8;
 80032fa:	f3c1 2107 	ubfx	r1, r1, #8, #8

	for(uint8_t i = 0 ; i < Symbol->len ; i++){
 80032fe:	b156      	cbz	r6, 8003316 <EEPROM_ReadSymbol+0x56>
		if(sequence & (1 << i))
 8003300:	4623      	mov	r3, r4
 8003302:	1c68      	adds	r0, r5, #1
 8003304:	fa41 f203 	asr.w	r2, r1, r3
	for(uint8_t i = 0 ; i < Symbol->len ; i++){
 8003308:	3301      	adds	r3, #1
		if(sequence & (1 << i))
 800330a:	f002 0201 	and.w	r2, r2, #1
	for(uint8_t i = 0 ; i < Symbol->len ; i++){
 800330e:	429e      	cmp	r6, r3
 8003310:	f800 2f01 	strb.w	r2, [r0, #1]!
 8003314:	d1f6      	bne.n	8003304 <EEPROM_ReadSymbol+0x44>
			Symbol->morse_sequence[i] = LINE;
		else
			Symbol->morse_sequence[i] = DOT;
	}
	Symbol->ascii_symbol = reading & 0xFF;
 8003316:	f885 c007 	strb.w	ip, [r5, #7]
}
 800331a:	b007      	add	sp, #28
 800331c:	bdf0      	pop	{r4, r5, r6, r7, pc}
 800331e:	bf00      	nop
 8003320:	20000188 	.word	0x20000188

08003324 <EEPROM_SymbolToMorse>:
		break;
	}
}

void EEPROM_SymbolToMorse( morse_entry_t* currentSymbol , char symbol){
if(symbol != ' '){
 8003324:	2920      	cmp	r1, #32
void EEPROM_SymbolToMorse( morse_entry_t* currentSymbol , char symbol){
 8003326:	4603      	mov	r3, r0
if(symbol != ' '){
 8003328:	d015      	beq.n	8003356 <EEPROM_SymbolToMorse+0x32>
		uint8_t symbol_index;
		if(symbol >= '0' && symbol <= '9' ){
 800332a:	f1a1 0230 	sub.w	r2, r1, #48	@ 0x30
 800332e:	2a09      	cmp	r2, #9
 8003330:	d90b      	bls.n	800334a <EEPROM_SymbolToMorse+0x26>
			symbol_index = symbol - '0' + ('Z' - 'A') + 1; //Maps 48-57 to 27-36
			EEPROM_ReadSymbol(currentSymbol , symbol_index*2 + MORSE_TOTAL_SPACE_BYTES + 1);
		}
		else if(symbol >= 'A' && symbol <= 'Z' ){
 8003332:	3941      	subs	r1, #65	@ 0x41
 8003334:	b2c9      	uxtb	r1, r1
 8003336:	2919      	cmp	r1, #25
 8003338:	d915      	bls.n	8003366 <EEPROM_SymbolToMorse+0x42>
			symbol_index = symbol - 'A'; //Maps 65-90 to 0-25
			EEPROM_ReadSymbol(currentSymbol , symbol_index*2 + MORSE_TOTAL_SPACE_BYTES + 1);
		}
		else{
			*currentSymbol = morse_error;
 800333a:	2200      	movs	r2, #0
 800333c:	2002      	movs	r0, #2
 800333e:	213f      	movs	r1, #63	@ 0x3f
 8003340:	601a      	str	r2, [r3, #0]
 8003342:	605a      	str	r2, [r3, #4]
 8003344:	7098      	strb	r0, [r3, #2]
 8003346:	71d9      	strb	r1, [r3, #7]
 8003348:	4770      	bx	lr
			EEPROM_ReadSymbol(currentSymbol , symbol_index*2 + MORSE_TOTAL_SPACE_BYTES + 1);
 800334a:	312a      	adds	r1, #42	@ 0x2a
 800334c:	b2c9      	uxtb	r1, r1
 800334e:	0049      	lsls	r1, r1, #1
 8003350:	3101      	adds	r1, #1
 8003352:	f7ff bfb5 	b.w	80032c0 <EEPROM_ReadSymbol>
		}
	} else {
		*currentSymbol = morse_space;
 8003356:	2200      	movs	r2, #0
 8003358:	4805      	ldr	r0, [pc, #20]	@ (8003370 <EEPROM_SymbolToMorse+0x4c>)
 800335a:	605a      	str	r2, [r3, #4]
 800335c:	601a      	str	r2, [r3, #0]
 800335e:	71d9      	strb	r1, [r3, #7]
 8003360:	f8c3 0001 	str.w	r0, [r3, #1]
	}
}
 8003364:	4770      	bx	lr
			EEPROM_ReadSymbol(currentSymbol , symbol_index*2 + MORSE_TOTAL_SPACE_BYTES + 1);
 8003366:	0049      	lsls	r1, r1, #1
 8003368:	3181      	adds	r1, #129	@ 0x81
 800336a:	f7ff bfa9 	b.w	80032c0 <EEPROM_ReadSymbol>
 800336e:	bf00      	nop
 8003370:	02020201 	.word	0x02020201

08003374 <task_GPIO_output_init>:
uint32_t g_task_GPIO_output_cnt;
volatile uint32_t g_task_GPIO_output_tick_cnt;

/********************** external functions definition ************************/
void task_GPIO_output_init(void *parameters)
{
 8003374:	e92d 4ff0 	stmdb	sp!, {r4, r5, r6, r7, r8, r9, sl, fp, lr}
 8003378:	b08b      	sub	sp, #44	@ 0x2c
	task_GPIO_output_st_t state;
	task_GPIO_output_ev_t event;
	bool b_event;

	/* Print out: Task Initialized */
	LOGGER_INFO(" ");
 800337a:	b672      	cpsid	i
 800337c:	f04f 0907 	mov.w	r9, #7
 8003380:	4b7e      	ldr	r3, [pc, #504]	@ (800357c <task_GPIO_output_init+0x208>)
 8003382:	4d7f      	ldr	r5, [pc, #508]	@ (8003580 <task_GPIO_output_init+0x20c>)
 8003384:	681c      	ldr	r4, [r3, #0]
 8003386:	4e7f      	ldr	r6, [pc, #508]	@ (8003584 <task_GPIO_output_init+0x210>)
 8003388:	cd03      	ldmia	r5!, {r0, r1}
 800338a:	6020      	str	r0, [r4, #0]
 800338c:	6061      	str	r1, [r4, #4]
 800338e:	4620      	mov	r0, r4
 8003390:	f8c6 9000 	str.w	r9, [r6]
 8003394:	f7ff ff88 	bl	80032a8 <logger_log_print_>
 8003398:	b662      	cpsie	i
 800339a:	b672      	cpsid	i
 800339c:	2701      	movs	r7, #1
 800339e:	4b7a      	ldr	r3, [pc, #488]	@ (8003588 <task_GPIO_output_init+0x214>)
 80033a0:	4620      	mov	r0, r4
 80033a2:	881b      	ldrh	r3, [r3, #0]
 80033a4:	8023      	strh	r3, [r4, #0]
 80033a6:	6037      	str	r7, [r6, #0]
 80033a8:	f7ff ff7e 	bl	80032a8 <logger_log_print_>
 80033ac:	b662      	cpsie	i
 80033ae:	b672      	cpsid	i
 80033b0:	4b76      	ldr	r3, [pc, #472]	@ (800358c <task_GPIO_output_init+0x218>)
 80033b2:	4620      	mov	r0, r4
 80033b4:	f8b3 8000 	ldrh.w	r8, [r3]
 80033b8:	f8a4 8000 	strh.w	r8, [r4]
 80033bc:	6037      	str	r7, [r6, #0]
 80033be:	f7ff ff73 	bl	80032a8 <logger_log_print_>
 80033c2:	b662      	cpsie	i
	LOGGER_INFO("  %s is running - %s", GET_NAME(task_GPIO_output_init), p_task_GPIO_output);
 80033c4:	b672      	cpsid	i
 80033c6:	f1a5 0308 	sub.w	r3, r5, #8
 80033ca:	cb03      	ldmia	r3!, {r0, r1}
 80033cc:	6020      	str	r0, [r4, #0]
 80033ce:	6061      	str	r1, [r4, #4]
 80033d0:	4620      	mov	r0, r4
 80033d2:	f8c6 9000 	str.w	r9, [r6]
 80033d6:	f7ff ff67 	bl	80032a8 <logger_log_print_>
 80033da:	b662      	cpsie	i
 80033dc:	b672      	cpsid	i
 80033de:	4b6c      	ldr	r3, [pc, #432]	@ (8003590 <task_GPIO_output_init+0x21c>)
 80033e0:	213f      	movs	r1, #63	@ 0x3f
 80033e2:	681b      	ldr	r3, [r3, #0]
 80033e4:	4a6b      	ldr	r2, [pc, #428]	@ (8003594 <task_GPIO_output_init+0x220>)
 80033e6:	9300      	str	r3, [sp, #0]
 80033e8:	4620      	mov	r0, r4
 80033ea:	4b6b      	ldr	r3, [pc, #428]	@ (8003598 <task_GPIO_output_init+0x224>)
 80033ec:	f001 feec 	bl	80051c8 <sniprintf>
 80033f0:	6030      	str	r0, [r6, #0]
 80033f2:	4620      	mov	r0, r4
 80033f4:	f7ff ff58 	bl	80032a8 <logger_log_print_>
 80033f8:	b662      	cpsie	i
 80033fa:	b672      	cpsid	i
 80033fc:	f8a4 8000 	strh.w	r8, [r4]
 8003400:	4620      	mov	r0, r4
 8003402:	6037      	str	r7, [r6, #0]
 8003404:	f7ff ff50 	bl	80032a8 <logger_log_print_>
 8003408:	b662      	cpsie	i
	LOGGER_INFO("  %s is a %s", GET_NAME(task_GPIO_output), p_task_GPIO_output_);
 800340a:	b672      	cpsid	i
 800340c:	f1a5 0308 	sub.w	r3, r5, #8
 8003410:	cb03      	ldmia	r3!, {r0, r1}
 8003412:	6020      	str	r0, [r4, #0]
 8003414:	6061      	str	r1, [r4, #4]
 8003416:	4620      	mov	r0, r4
 8003418:	f8c6 9000 	str.w	r9, [r6]
 800341c:	f7ff ff44 	bl	80032a8 <logger_log_print_>
 8003420:	b662      	cpsie	i
 8003422:	b672      	cpsid	i
 8003424:	4b5d      	ldr	r3, [pc, #372]	@ (800359c <task_GPIO_output_init+0x228>)
 8003426:	213f      	movs	r1, #63	@ 0x3f
 8003428:	681b      	ldr	r3, [r3, #0]
 800342a:	4a5d      	ldr	r2, [pc, #372]	@ (80035a0 <task_GPIO_output_init+0x22c>)
 800342c:	9300      	str	r3, [sp, #0]
 800342e:	4620      	mov	r0, r4
 8003430:	4b5c      	ldr	r3, [pc, #368]	@ (80035a4 <task_GPIO_output_init+0x230>)
 8003432:	f001 fec9 	bl	80051c8 <sniprintf>
 8003436:	6030      	str	r0, [r6, #0]
 8003438:	4620      	mov	r0, r4
 800343a:	f7ff ff35 	bl	80032a8 <logger_log_print_>
 800343e:	b662      	cpsie	i
 8003440:	b672      	cpsid	i
 8003442:	f8a4 8000 	strh.w	r8, [r4]
 8003446:	4620      	mov	r0, r4
 8003448:	6037      	str	r7, [r6, #0]
 800344a:	f7ff ff2d 	bl	80032a8 <logger_log_print_>
 800344e:	b662      	cpsie	i

	/* Init & Print out: Task execution counter */
	g_task_GPIO_output_cnt = G_TASK_ACT_CNT_INIT;
 8003450:	f04f 0a00 	mov.w	sl, #0
 8003454:	f8df b150 	ldr.w	fp, [pc, #336]	@ 80035a8 <task_GPIO_output_init+0x234>
 8003458:	f8cb a000 	str.w	sl, [fp]
	LOGGER_INFO("   %s = %lu", GET_NAME(g_task_GPIO_output_cnt), g_task_GPIO_output_cnt);
 800345c:	b672      	cpsid	i
 800345e:	3d08      	subs	r5, #8
 8003460:	cd03      	ldmia	r5!, {r0, r1}
 8003462:	6020      	str	r0, [r4, #0]
 8003464:	6061      	str	r1, [r4, #4]
 8003466:	4620      	mov	r0, r4
 8003468:	f8c6 9000 	str.w	r9, [r6]
 800346c:	f7ff ff1c 	bl	80032a8 <logger_log_print_>
 8003470:	b662      	cpsie	i
 8003472:	b672      	cpsid	i
 8003474:	f8db 3000 	ldr.w	r3, [fp]
 8003478:	213f      	movs	r1, #63	@ 0x3f
 800347a:	4a4c      	ldr	r2, [pc, #304]	@ (80035ac <task_GPIO_output_init+0x238>)
 800347c:	9300      	str	r3, [sp, #0]
 800347e:	4620      	mov	r0, r4
 8003480:	4b4b      	ldr	r3, [pc, #300]	@ (80035b0 <task_GPIO_output_init+0x23c>)
 8003482:	f001 fea1 	bl	80051c8 <sniprintf>
 8003486:	6030      	str	r0, [r6, #0]
 8003488:	4620      	mov	r0, r4
 800348a:	f7ff ff0d 	bl	80032a8 <logger_log_print_>
 800348e:	b662      	cpsie	i
 8003490:	b672      	cpsid	i
 8003492:	f8a4 8000 	strh.w	r8, [r4]
 8003496:	4620      	mov	r0, r4
 8003498:	6037      	str	r7, [r6, #0]
 800349a:	f7ff ff05 	bl	80032a8 <logger_log_print_>
 800349e:	b662      	cpsie	i

	for (index = 0; GPIO_OUTPUT_DTA_QTY > index; index++)
 80034a0:	46d3      	mov	fp, sl
 80034a2:	f8df 8110 	ldr.w	r8, [pc, #272]	@ 80035b4 <task_GPIO_output_init+0x240>
 80034a6:	4f44      	ldr	r7, [pc, #272]	@ (80035b8 <task_GPIO_output_init+0x244>)

		//event = EV_GPIO_XX_OFF;
		event = p_task_GPIO_output_dta->event;

		b_event = false;
		p_task_GPIO_output_dta->flag = b_event;
 80034a8:	2300      	movs	r3, #0
		event = p_task_GPIO_output_dta->event;
 80034aa:	f898 2005 	ldrb.w	r2, [r8, #5]
		p_task_GPIO_output_dta->flag = b_event;
 80034ae:	f888 3006 	strb.w	r3, [r8, #6]
		state = p_task_GPIO_output_dta->state;
 80034b2:	f898 3004 	ldrb.w	r3, [r8, #4]
		event = p_task_GPIO_output_dta->event;
 80034b6:	9209      	str	r2, [sp, #36]	@ 0x24
		state = p_task_GPIO_output_dta->state;
 80034b8:	9308      	str	r3, [sp, #32]

		LOGGER_INFO(" ");
 80034ba:	b672      	cpsid	i
 80034bc:	2307      	movs	r3, #7
 80034be:	4d30      	ldr	r5, [pc, #192]	@ (8003580 <task_GPIO_output_init+0x20c>)
 80034c0:	cd03      	ldmia	r5!, {r0, r1}
 80034c2:	6020      	str	r0, [r4, #0]
 80034c4:	6061      	str	r1, [r4, #4]
 80034c6:	4620      	mov	r0, r4
 80034c8:	6033      	str	r3, [r6, #0]
 80034ca:	f7ff feed 	bl	80032a8 <logger_log_print_>
 80034ce:	b662      	cpsie	i
 80034d0:	b672      	cpsid	i
 80034d2:	f04f 0901 	mov.w	r9, #1
 80034d6:	4a2c      	ldr	r2, [pc, #176]	@ (8003588 <task_GPIO_output_init+0x214>)
 80034d8:	4620      	mov	r0, r4
 80034da:	8811      	ldrh	r1, [r2, #0]
 80034dc:	8021      	strh	r1, [r4, #0]
 80034de:	f8c6 9000 	str.w	r9, [r6]
 80034e2:	f7ff fee1 	bl	80032a8 <logger_log_print_>
 80034e6:	b662      	cpsie	i
 80034e8:	b672      	cpsid	i
 80034ea:	4a28      	ldr	r2, [pc, #160]	@ (800358c <task_GPIO_output_init+0x218>)
 80034ec:	4620      	mov	r0, r4
 80034ee:	f8b2 a000 	ldrh.w	sl, [r2]
 80034f2:	f8a4 a000 	strh.w	sl, [r4]
 80034f6:	f8c6 9000 	str.w	r9, [r6]
 80034fa:	f7ff fed5 	bl	80032a8 <logger_log_print_>
 80034fe:	b662      	cpsie	i
		LOGGER_INFO("   %s = %lu   %s = %lu   %s = %lu   %s = %s",
 8003500:	b672      	cpsid	i
 8003502:	2307      	movs	r3, #7
 8003504:	3d08      	subs	r5, #8
 8003506:	cd03      	ldmia	r5!, {r0, r1}
 8003508:	6020      	str	r0, [r4, #0]
 800350a:	6061      	str	r1, [r4, #4]
 800350c:	4620      	mov	r0, r4
 800350e:	6033      	str	r3, [r6, #0]
 8003510:	f7ff feca 	bl	80032a8 <logger_log_print_>
 8003514:	b662      	cpsie	i
 8003516:	b672      	cpsid	i
 8003518:	9b08      	ldr	r3, [sp, #32]
 800351a:	9a09      	ldr	r2, [sp, #36]	@ 0x24
 800351c:	9302      	str	r3, [sp, #8]
 800351e:	4b27      	ldr	r3, [pc, #156]	@ (80035bc <task_GPIO_output_init+0x248>)
 8003520:	213f      	movs	r1, #63	@ 0x3f
 8003522:	9306      	str	r3, [sp, #24]
 8003524:	4b26      	ldr	r3, [pc, #152]	@ (80035c0 <task_GPIO_output_init+0x24c>)
 8003526:	9204      	str	r2, [sp, #16]
 8003528:	9305      	str	r3, [sp, #20]
 800352a:	4b26      	ldr	r3, [pc, #152]	@ (80035c4 <task_GPIO_output_init+0x250>)
 800352c:	4a26      	ldr	r2, [pc, #152]	@ (80035c8 <task_GPIO_output_init+0x254>)
 800352e:	9303      	str	r3, [sp, #12]
 8003530:	4b26      	ldr	r3, [pc, #152]	@ (80035cc <task_GPIO_output_init+0x258>)
 8003532:	4620      	mov	r0, r4
 8003534:	e9cd b300 	strd	fp, r3, [sp]
 8003538:	4b25      	ldr	r3, [pc, #148]	@ (80035d0 <task_GPIO_output_init+0x25c>)
 800353a:	f001 fe45 	bl	80051c8 <sniprintf>
 800353e:	6030      	str	r0, [r6, #0]
 8003540:	4620      	mov	r0, r4
 8003542:	f7ff feb1 	bl	80032a8 <logger_log_print_>
 8003546:	b662      	cpsie	i
 8003548:	b672      	cpsid	i
 800354a:	f8a4 a000 	strh.w	sl, [r4]
 800354e:	4620      	mov	r0, r4
 8003550:	f8c6 9000 	str.w	r9, [r6]
 8003554:	f7ff fea8 	bl	80032a8 <logger_log_print_>
 8003558:	b662      	cpsie	i
					 GET_NAME(index), index,
					 GET_NAME(state), (uint32_t)state,
					 GET_NAME(event), (uint32_t)event,
					 GET_NAME(b_event), (b_event ? "true" : "false"));

		HAL_GPIO_WritePin(p_task_GPIO_output_cfg->gpio_port, p_task_GPIO_output_cfg->pin, p_task_GPIO_output_cfg->GPIO_off);
 800355a:	7afa      	ldrb	r2, [r7, #11]
 800355c:	8939      	ldrh	r1, [r7, #8]
 800355e:	6878      	ldr	r0, [r7, #4]
	for (index = 0; GPIO_OUTPUT_DTA_QTY > index; index++)
 8003560:	44cb      	add	fp, r9
		HAL_GPIO_WritePin(p_task_GPIO_output_cfg->gpio_port, p_task_GPIO_output_cfg->pin, p_task_GPIO_output_cfg->GPIO_off);
 8003562:	f7fd ff71 	bl	8001448 <HAL_GPIO_WritePin>
	for (index = 0; GPIO_OUTPUT_DTA_QTY > index; index++)
 8003566:	f1bb 0f04 	cmp.w	fp, #4
 800356a:	f108 0808 	add.w	r8, r8, #8
 800356e:	f107 0714 	add.w	r7, r7, #20
 8003572:	d199      	bne.n	80034a8 <task_GPIO_output_init+0x134>
	}
}
 8003574:	b00b      	add	sp, #44	@ 0x2c
 8003576:	e8bd 8ff0 	ldmia.w	sp!, {r4, r5, r6, r7, r8, r9, sl, fp, pc}
 800357a:	bf00      	nop
 800357c:	080064d0 	.word	0x080064d0
 8003580:	0800615c 	.word	0x0800615c
 8003584:	20000324 	.word	0x20000324
 8003588:	08006164 	.word	0x08006164
 800358c:	08006168 	.word	0x08006168
 8003590:	20000018 	.word	0x20000018
 8003594:	0800620c 	.word	0x0800620c
 8003598:	080061f4 	.word	0x080061f4
 800359c:	20000014 	.word	0x20000014
 80035a0:	08006238 	.word	0x08006238
 80035a4:	08006224 	.word	0x08006224
 80035a8:	2000036c 	.word	0x2000036c
 80035ac:	08006260 	.word	0x08006260
 80035b0:	08006248 	.word	0x08006248
 80035b4:	2000001c 	.word	0x2000001c
 80035b8:	080064dc 	.word	0x080064dc
 80035bc:	080062a0 	.word	0x080062a0
 80035c0:	080062a8 	.word	0x080062a8
 80035c4:	080062b0 	.word	0x080062b0
 80035c8:	08006274 	.word	0x08006274
 80035cc:	080062b8 	.word	0x080062b8
 80035d0:	0800626c 	.word	0x0800626c

080035d4 <task_GPIO_output_statechart>:
		__asm("CPSIE i");	/* enable interrupts */
    }
}

void task_GPIO_output_statechart(void)
{
 80035d4:	e92d 47f0 	stmdb	sp!, {r4, r5, r6, r7, r8, r9, sl, lr}
 80035d8:	4f73      	ldr	r7, [pc, #460]	@ (80037a8 <task_GPIO_output_statechart+0x1d4>)
	uint32_t index;
	const task_GPIO_output_cfg_t *p_task_GPIO_output_cfg;
	task_GPIO_output_dta_t *p_task_GPIO_output_dta;

	for (index = 0; GPIO_OUTPUT_DTA_QTY > index; index++)
 80035da:	2500      	movs	r5, #0
 80035dc:	463c      	mov	r4, r7
 80035de:	4e73      	ldr	r6, [pc, #460]	@ (80037ac <task_GPIO_output_statechart+0x1d8>)
	{
		/* Update Task Actuator Configuration & Data Pointer */
		p_task_GPIO_output_cfg = &task_GPIO_output_cfg_list[index];
		p_task_GPIO_output_dta = &task_GPIO_output_dta_list[index];

		switch (p_task_GPIO_output_dta->state)
 80035e0:	7923      	ldrb	r3, [r4, #4]
 80035e2:	2b04      	cmp	r3, #4
 80035e4:	f200 80da 	bhi.w	800379c <task_GPIO_output_statechart+0x1c8>
 80035e8:	e8df f003 	tbb	[pc, r3]
 80035ec:	14354259 	.word	0x14354259
 80035f0:	03          	.byte	0x03
 80035f1:	00          	.byte	0x00

				break;

			case ST_GPIO_XX_PULSE:

				if(p_task_GPIO_output_dta->tick > DEL_GPIO_XX_MIN){
 80035f2:	f8d4 8000 	ldr.w	r8, [r4]
 80035f6:	f1b8 0f00 	cmp.w	r8, #0
 80035fa:	d079      	beq.n	80036f0 <task_GPIO_output_statechart+0x11c>
	for (index = 0; GPIO_OUTPUT_DTA_QTY > index; index++)
 80035fc:	3501      	adds	r5, #1
					p_task_GPIO_output_dta->tick --;
 80035fe:	f108 33ff 	add.w	r3, r8, #4294967295
	for (index = 0; GPIO_OUTPUT_DTA_QTY > index; index++)
 8003602:	2d04      	cmp	r5, #4
					p_task_GPIO_output_dta->tick --;
 8003604:	6023      	str	r3, [r4, #0]
	for (index = 0; GPIO_OUTPUT_DTA_QTY > index; index++)
 8003606:	f106 0614 	add.w	r6, r6, #20
 800360a:	f104 0408 	add.w	r4, r4, #8
 800360e:	d1e7      	bne.n	80035e0 <task_GPIO_output_statechart+0xc>
				p_task_GPIO_output_dta->flag = false;

				break;
		}
	}
}
 8003610:	e8bd 87f0 	ldmia.w	sp!, {r4, r5, r6, r7, r8, r9, sl, pc}
				if(p_task_GPIO_output_dta->tick > DEL_GPIO_XX_MIN){
 8003614:	6823      	ldr	r3, [r4, #0]
 8003616:	2b00      	cmp	r3, #0
 8003618:	d060      	beq.n	80036dc <task_GPIO_output_statechart+0x108>
					p_task_GPIO_output_dta->tick --;
 800361a:	3b01      	subs	r3, #1
 800361c:	6023      	str	r3, [r4, #0]
				if ((true == p_task_GPIO_output_dta->flag) && (EV_GPIO_XX_ON == p_task_GPIO_output_dta->event))
 800361e:	eb07 09c5 	add.w	r9, r7, r5, lsl #3
 8003622:	f8d9 3004 	ldr.w	r3, [r9, #4]
 8003626:	f8df 8188 	ldr.w	r8, [pc, #392]	@ 80037b0 <task_GPIO_output_statechart+0x1dc>
 800362a:	4a62      	ldr	r2, [pc, #392]	@ (80037b4 <task_GPIO_output_statechart+0x1e0>)
 800362c:	ea03 0308 	and.w	r3, r3, r8
 8003630:	4293      	cmp	r3, r2
 8003632:	d065      	beq.n	8003700 <task_GPIO_output_statechart+0x12c>
				if ((true == p_task_GPIO_output_dta->flag) && (EV_GPIO_XX_OFF == p_task_GPIO_output_dta->event))
 8003634:	f5b3 3f80 	cmp.w	r3, #65536	@ 0x10000
 8003638:	d128      	bne.n	800368c <task_GPIO_output_statechart+0xb8>
					p_task_GPIO_output_dta->flag = false;
 800363a:	f04f 0800 	mov.w	r8, #0
					HAL_GPIO_WritePin(p_task_GPIO_output_cfg->gpio_port, p_task_GPIO_output_cfg->pin, p_task_GPIO_output_cfg->GPIO_off);
 800363e:	7af2      	ldrb	r2, [r6, #11]
 8003640:	8931      	ldrh	r1, [r6, #8]
 8003642:	6870      	ldr	r0, [r6, #4]
					p_task_GPIO_output_dta->flag = false;
 8003644:	f884 8006 	strb.w	r8, [r4, #6]
					p_task_GPIO_output_dta->tick = DEL_GPIO_XX_MIN;
 8003648:	f8c4 8000 	str.w	r8, [r4]
					HAL_GPIO_WritePin(p_task_GPIO_output_cfg->gpio_port, p_task_GPIO_output_cfg->pin, p_task_GPIO_output_cfg->GPIO_off);
 800364c:	f7fd fefc 	bl	8001448 <HAL_GPIO_WritePin>
					p_task_GPIO_output_dta->state = ST_GPIO_XX_OFF;
 8003650:	f884 8004 	strb.w	r8, [r4, #4]
 8003654:	e01a      	b.n	800368c <task_GPIO_output_statechart+0xb8>
				if(p_task_GPIO_output_dta->tick > DEL_GPIO_XX_MIN){
 8003656:	6823      	ldr	r3, [r4, #0]
 8003658:	2b00      	cmp	r3, #0
 800365a:	d1de      	bne.n	800361a <task_GPIO_output_statechart+0x46>
					p_task_GPIO_output_dta->tick = p_task_GPIO_output_cfg->tick_blink;
 800365c:	68f3      	ldr	r3, [r6, #12]
					HAL_GPIO_WritePin(p_task_GPIO_output_cfg->gpio_port, p_task_GPIO_output_cfg->pin, p_task_GPIO_output_cfg->GPIO_off);
 800365e:	7af2      	ldrb	r2, [r6, #11]
					p_task_GPIO_output_dta->tick = p_task_GPIO_output_cfg->tick_blink;
 8003660:	6023      	str	r3, [r4, #0]
					HAL_GPIO_WritePin(p_task_GPIO_output_cfg->gpio_port, p_task_GPIO_output_cfg->pin, p_task_GPIO_output_cfg->GPIO_off);
 8003662:	8931      	ldrh	r1, [r6, #8]
 8003664:	6870      	ldr	r0, [r6, #4]
 8003666:	f7fd feef 	bl	8001448 <HAL_GPIO_WritePin>
					p_task_GPIO_output_dta->state = ST_GPIO_XX_BLINK_OFF;
 800366a:	2303      	movs	r3, #3
 800366c:	7123      	strb	r3, [r4, #4]
 800366e:	e7d6      	b.n	800361e <task_GPIO_output_statechart+0x4a>
				if ((true == p_task_GPIO_output_dta->flag) && (EV_GPIO_XX_OFF == p_task_GPIO_output_dta->event))
 8003670:	eb07 09c5 	add.w	r9, r7, r5, lsl #3
 8003674:	f8d9 3004 	ldr.w	r3, [r9, #4]
 8003678:	f8df 8134 	ldr.w	r8, [pc, #308]	@ 80037b0 <task_GPIO_output_statechart+0x1dc>
 800367c:	ea03 0308 	and.w	r3, r3, r8
 8003680:	f5b3 3f80 	cmp.w	r3, #65536	@ 0x10000
 8003684:	d07a      	beq.n	800377c <task_GPIO_output_statechart+0x1a8>
				if ((true == p_task_GPIO_output_dta->flag) && (EV_GPIO_XX_BLINK == p_task_GPIO_output_dta->event))
 8003686:	4a4c      	ldr	r2, [pc, #304]	@ (80037b8 <task_GPIO_output_statechart+0x1e4>)
 8003688:	4293      	cmp	r3, r2
 800368a:	d048      	beq.n	800371e <task_GPIO_output_statechart+0x14a>
	for (index = 0; GPIO_OUTPUT_DTA_QTY > index; index++)
 800368c:	3501      	adds	r5, #1
 800368e:	2d04      	cmp	r5, #4
 8003690:	f104 0408 	add.w	r4, r4, #8
 8003694:	f106 0614 	add.w	r6, r6, #20
 8003698:	d1a2      	bne.n	80035e0 <task_GPIO_output_statechart+0xc>
}
 800369a:	e8bd 87f0 	ldmia.w	sp!, {r4, r5, r6, r7, r8, r9, sl, pc}
				if ((true == p_task_GPIO_output_dta->flag) && (EV_GPIO_XX_ON == p_task_GPIO_output_dta->event))
 800369e:	eb07 0ac5 	add.w	sl, r7, r5, lsl #3
 80036a2:	f8da 3004 	ldr.w	r3, [sl, #4]
 80036a6:	f8df 8108 	ldr.w	r8, [pc, #264]	@ 80037b0 <task_GPIO_output_statechart+0x1dc>
 80036aa:	4a42      	ldr	r2, [pc, #264]	@ (80037b4 <task_GPIO_output_statechart+0x1e0>)
 80036ac:	ea03 0308 	and.w	r3, r3, r8
 80036b0:	4293      	cmp	r3, r2
 80036b2:	ea4f 09c5 	mov.w	r9, r5, lsl #3
 80036b6:	d03e      	beq.n	8003736 <task_GPIO_output_statechart+0x162>
				if ((true == p_task_GPIO_output_dta->flag) && (EV_GPIO_XX_BLINK == p_task_GPIO_output_dta->event))
 80036b8:	4a3f      	ldr	r2, [pc, #252]	@ (80037b8 <task_GPIO_output_statechart+0x1e4>)
 80036ba:	4293      	cmp	r3, r2
 80036bc:	d04b      	beq.n	8003756 <task_GPIO_output_statechart+0x182>
				if ((true == p_task_GPIO_output_dta->flag) && (EV_GPIO_XX_PULSE == p_task_GPIO_output_dta->event))
 80036be:	f5b3 3f82 	cmp.w	r3, #66560	@ 0x10400
 80036c2:	d1e3      	bne.n	800368c <task_GPIO_output_statechart+0xb8>
					p_task_GPIO_output_dta->flag = false;
 80036c4:	2300      	movs	r3, #0
					p_task_GPIO_output_dta->tick = p_task_GPIO_output_cfg->tick_pulse;
 80036c6:	6932      	ldr	r2, [r6, #16]
					p_task_GPIO_output_dta->flag = false;
 80036c8:	71a3      	strb	r3, [r4, #6]
					p_task_GPIO_output_dta->tick = p_task_GPIO_output_cfg->tick_pulse;
 80036ca:	6022      	str	r2, [r4, #0]
					HAL_GPIO_WritePin(p_task_GPIO_output_cfg->gpio_port, p_task_GPIO_output_cfg->pin, p_task_GPIO_output_cfg->GPIO_on);
 80036cc:	8931      	ldrh	r1, [r6, #8]
 80036ce:	7ab2      	ldrb	r2, [r6, #10]
 80036d0:	6870      	ldr	r0, [r6, #4]
 80036d2:	f7fd feb9 	bl	8001448 <HAL_GPIO_WritePin>
					p_task_GPIO_output_dta->state = ST_GPIO_XX_PULSE;
 80036d6:	2304      	movs	r3, #4
 80036d8:	7123      	strb	r3, [r4, #4]
 80036da:	e7d7      	b.n	800368c <task_GPIO_output_statechart+0xb8>
					p_task_GPIO_output_dta->tick = p_task_GPIO_output_cfg->tick_blink;
 80036dc:	68f3      	ldr	r3, [r6, #12]
					HAL_GPIO_WritePin(p_task_GPIO_output_cfg->gpio_port, p_task_GPIO_output_cfg->pin, p_task_GPIO_output_cfg->GPIO_on);
 80036de:	7ab2      	ldrb	r2, [r6, #10]
					p_task_GPIO_output_dta->tick = p_task_GPIO_output_cfg->tick_blink;
 80036e0:	6023      	str	r3, [r4, #0]
					HAL_GPIO_WritePin(p_task_GPIO_output_cfg->gpio_port, p_task_GPIO_output_cfg->pin, p_task_GPIO_output_cfg->GPIO_on);
 80036e2:	8931      	ldrh	r1, [r6, #8]
 80036e4:	6870      	ldr	r0, [r6, #4]
 80036e6:	f7fd feaf 	bl	8001448 <HAL_GPIO_WritePin>
					p_task_GPIO_output_dta->state = ST_GPIO_XX_BLINK_ON;
 80036ea:	2302      	movs	r3, #2
 80036ec:	7123      	strb	r3, [r4, #4]
 80036ee:	e796      	b.n	800361e <task_GPIO_output_statechart+0x4a>
					HAL_GPIO_WritePin(p_task_GPIO_output_cfg->gpio_port, p_task_GPIO_output_cfg->pin, p_task_GPIO_output_cfg->GPIO_off);
 80036f0:	7af2      	ldrb	r2, [r6, #11]
 80036f2:	8931      	ldrh	r1, [r6, #8]
 80036f4:	6870      	ldr	r0, [r6, #4]
 80036f6:	f7fd fea7 	bl	8001448 <HAL_GPIO_WritePin>
					p_task_GPIO_output_dta->state = ST_GPIO_XX_OFF;
 80036fa:	f884 8004 	strb.w	r8, [r4, #4]
 80036fe:	e7c5      	b.n	800368c <task_GPIO_output_statechart+0xb8>
					p_task_GPIO_output_dta->flag = false;
 8003700:	2300      	movs	r3, #0
					HAL_GPIO_WritePin(p_task_GPIO_output_cfg->gpio_port, p_task_GPIO_output_cfg->pin, p_task_GPIO_output_cfg->GPIO_on);
 8003702:	7ab2      	ldrb	r2, [r6, #10]
 8003704:	8931      	ldrh	r1, [r6, #8]
 8003706:	6870      	ldr	r0, [r6, #4]
					p_task_GPIO_output_dta->flag = false;
 8003708:	71a3      	strb	r3, [r4, #6]
					p_task_GPIO_output_dta->tick = DEL_GPIO_XX_MIN;
 800370a:	6023      	str	r3, [r4, #0]
					HAL_GPIO_WritePin(p_task_GPIO_output_cfg->gpio_port, p_task_GPIO_output_cfg->pin, p_task_GPIO_output_cfg->GPIO_on);
 800370c:	f7fd fe9c 	bl	8001448 <HAL_GPIO_WritePin>
					p_task_GPIO_output_dta->state = ST_GPIO_XX_ON;
 8003710:	2301      	movs	r3, #1
 8003712:	7123      	strb	r3, [r4, #4]
				if ((true == p_task_GPIO_output_dta->flag) && (EV_GPIO_XX_OFF == p_task_GPIO_output_dta->event))
 8003714:	f8d9 3004 	ldr.w	r3, [r9, #4]
 8003718:	ea03 0308 	and.w	r3, r3, r8
 800371c:	e78a      	b.n	8003634 <task_GPIO_output_statechart+0x60>
					p_task_GPIO_output_dta->flag = false;
 800371e:	2300      	movs	r3, #0
					p_task_GPIO_output_dta->tick = p_task_GPIO_output_cfg->tick_blink;
 8003720:	68f2      	ldr	r2, [r6, #12]
					p_task_GPIO_output_dta->flag = false;
 8003722:	71a3      	strb	r3, [r4, #6]
					p_task_GPIO_output_dta->tick = p_task_GPIO_output_cfg->tick_blink;
 8003724:	6022      	str	r2, [r4, #0]
					HAL_GPIO_WritePin(p_task_GPIO_output_cfg->gpio_port, p_task_GPIO_output_cfg->pin, p_task_GPIO_output_cfg->GPIO_on);
 8003726:	8931      	ldrh	r1, [r6, #8]
 8003728:	7ab2      	ldrb	r2, [r6, #10]
 800372a:	6870      	ldr	r0, [r6, #4]
 800372c:	f7fd fe8c 	bl	8001448 <HAL_GPIO_WritePin>
					p_task_GPIO_output_dta->state = ST_GPIO_XX_BLINK_ON;
 8003730:	2302      	movs	r3, #2
 8003732:	7123      	strb	r3, [r4, #4]
 8003734:	e7aa      	b.n	800368c <task_GPIO_output_statechart+0xb8>
					p_task_GPIO_output_dta->flag = false;
 8003736:	2300      	movs	r3, #0
					HAL_GPIO_WritePin(p_task_GPIO_output_cfg->gpio_port, p_task_GPIO_output_cfg->pin, p_task_GPIO_output_cfg->GPIO_on);
 8003738:	7ab2      	ldrb	r2, [r6, #10]
					p_task_GPIO_output_dta->flag = false;
 800373a:	71a3      	strb	r3, [r4, #6]
					HAL_GPIO_WritePin(p_task_GPIO_output_cfg->gpio_port, p_task_GPIO_output_cfg->pin, p_task_GPIO_output_cfg->GPIO_on);
 800373c:	8931      	ldrh	r1, [r6, #8]
 800373e:	6870      	ldr	r0, [r6, #4]
 8003740:	f7fd fe82 	bl	8001448 <HAL_GPIO_WritePin>
					p_task_GPIO_output_dta->state = ST_GPIO_XX_ON;
 8003744:	2301      	movs	r3, #1
 8003746:	7123      	strb	r3, [r4, #4]
				if ((true == p_task_GPIO_output_dta->flag) && (EV_GPIO_XX_BLINK == p_task_GPIO_output_dta->event))
 8003748:	f8da 3004 	ldr.w	r3, [sl, #4]
 800374c:	4a1a      	ldr	r2, [pc, #104]	@ (80037b8 <task_GPIO_output_statechart+0x1e4>)
 800374e:	ea03 0308 	and.w	r3, r3, r8
 8003752:	4293      	cmp	r3, r2
 8003754:	d1b3      	bne.n	80036be <task_GPIO_output_statechart+0xea>
					p_task_GPIO_output_dta->flag = false;
 8003756:	2300      	movs	r3, #0
 8003758:	71a3      	strb	r3, [r4, #6]
					p_task_GPIO_output_dta->tick = p_task_GPIO_output_cfg->tick_blink;
 800375a:	68f3      	ldr	r3, [r6, #12]
					HAL_GPIO_WritePin(p_task_GPIO_output_cfg->gpio_port, p_task_GPIO_output_cfg->pin, p_task_GPIO_output_cfg->GPIO_on);
 800375c:	7ab2      	ldrb	r2, [r6, #10]
					p_task_GPIO_output_dta->tick = p_task_GPIO_output_cfg->tick_blink;
 800375e:	6023      	str	r3, [r4, #0]
					HAL_GPIO_WritePin(p_task_GPIO_output_cfg->gpio_port, p_task_GPIO_output_cfg->pin, p_task_GPIO_output_cfg->GPIO_on);
 8003760:	8931      	ldrh	r1, [r6, #8]
 8003762:	6870      	ldr	r0, [r6, #4]
 8003764:	f7fd fe70 	bl	8001448 <HAL_GPIO_WritePin>
					p_task_GPIO_output_dta->state = ST_GPIO_XX_BLINK_ON;
 8003768:	2302      	movs	r3, #2
				if ((true == p_task_GPIO_output_dta->flag) && (EV_GPIO_XX_PULSE == p_task_GPIO_output_dta->event))
 800376a:	44b9      	add	r9, r7
					p_task_GPIO_output_dta->state = ST_GPIO_XX_BLINK_ON;
 800376c:	7123      	strb	r3, [r4, #4]
				if ((true == p_task_GPIO_output_dta->flag) && (EV_GPIO_XX_PULSE == p_task_GPIO_output_dta->event))
 800376e:	f8d9 3004 	ldr.w	r3, [r9, #4]
 8003772:	f023 437f 	bic.w	r3, r3, #4278190080	@ 0xff000000
 8003776:	f023 03ff 	bic.w	r3, r3, #255	@ 0xff
 800377a:	e7a0      	b.n	80036be <task_GPIO_output_statechart+0xea>
					p_task_GPIO_output_dta->flag = false;
 800377c:	f04f 0a00 	mov.w	sl, #0
					HAL_GPIO_WritePin(p_task_GPIO_output_cfg->gpio_port, p_task_GPIO_output_cfg->pin, p_task_GPIO_output_cfg->GPIO_off);
 8003780:	7af2      	ldrb	r2, [r6, #11]
 8003782:	8931      	ldrh	r1, [r6, #8]
 8003784:	6870      	ldr	r0, [r6, #4]
					p_task_GPIO_output_dta->flag = false;
 8003786:	f884 a006 	strb.w	sl, [r4, #6]
					HAL_GPIO_WritePin(p_task_GPIO_output_cfg->gpio_port, p_task_GPIO_output_cfg->pin, p_task_GPIO_output_cfg->GPIO_off);
 800378a:	f7fd fe5d 	bl	8001448 <HAL_GPIO_WritePin>
					p_task_GPIO_output_dta->state = ST_GPIO_XX_OFF;
 800378e:	f884 a004 	strb.w	sl, [r4, #4]
				if ((true == p_task_GPIO_output_dta->flag) && (EV_GPIO_XX_BLINK == p_task_GPIO_output_dta->event))
 8003792:	f8d9 3004 	ldr.w	r3, [r9, #4]
 8003796:	ea03 0308 	and.w	r3, r3, r8
 800379a:	e774      	b.n	8003686 <task_GPIO_output_statechart+0xb2>
				p_task_GPIO_output_dta->tick  = DEL_GPIO_XX_MIN;
 800379c:	2300      	movs	r3, #0
 800379e:	6023      	str	r3, [r4, #0]
				p_task_GPIO_output_dta->state = ST_GPIO_XX_OFF;
 80037a0:	80a3      	strh	r3, [r4, #4]
				p_task_GPIO_output_dta->flag = false;
 80037a2:	71a3      	strb	r3, [r4, #6]
				break;
 80037a4:	e772      	b.n	800368c <task_GPIO_output_statechart+0xb8>
 80037a6:	bf00      	nop
 80037a8:	2000001c 	.word	0x2000001c
 80037ac:	080064dc 	.word	0x080064dc
 80037b0:	00ffff00 	.word	0x00ffff00
 80037b4:	00010100 	.word	0x00010100
 80037b8:	00010300 	.word	0x00010300

080037bc <task_GPIO_output_update>:
{
 80037bc:	b538      	push	{r3, r4, r5, lr}
	__asm("CPSID i");	/* disable interrupts*/
 80037be:	b672      	cpsid	i
    if (G_TASK_ACT_TICK_CNT_INI < g_task_GPIO_output_tick_cnt)
 80037c0:	4c0b      	ldr	r4, [pc, #44]	@ (80037f0 <task_GPIO_output_update+0x34>)
 80037c2:	6823      	ldr	r3, [r4, #0]
 80037c4:	b18b      	cbz	r3, 80037ea <task_GPIO_output_update+0x2e>
    	g_task_GPIO_output_tick_cnt--;
 80037c6:	6823      	ldr	r3, [r4, #0]
 80037c8:	3b01      	subs	r3, #1
 80037ca:	6023      	str	r3, [r4, #0]
    __asm("CPSIE i");	/* enable interrupts */
 80037cc:	b662      	cpsie	i
    while (b_time_update_required)
 80037ce:	4d09      	ldr	r5, [pc, #36]	@ (80037f4 <task_GPIO_output_update+0x38>)
		g_task_GPIO_output_cnt++;
 80037d0:	682b      	ldr	r3, [r5, #0]
 80037d2:	3301      	adds	r3, #1
 80037d4:	602b      	str	r3, [r5, #0]
    	task_GPIO_output_statechart();
 80037d6:	f7ff fefd 	bl	80035d4 <task_GPIO_output_statechart>
		__asm("CPSID i");	/* disable interrupts */
 80037da:	b672      	cpsid	i
		if (G_TASK_ACT_TICK_CNT_INI < g_task_GPIO_output_tick_cnt)
 80037dc:	6823      	ldr	r3, [r4, #0]
 80037de:	b123      	cbz	r3, 80037ea <task_GPIO_output_update+0x2e>
			g_task_GPIO_output_tick_cnt--;
 80037e0:	6823      	ldr	r3, [r4, #0]
 80037e2:	3b01      	subs	r3, #1
 80037e4:	6023      	str	r3, [r4, #0]
		__asm("CPSIE i");	/* enable interrupts */
 80037e6:	b662      	cpsie	i
    while (b_time_update_required)
 80037e8:	e7f2      	b.n	80037d0 <task_GPIO_output_update+0x14>
		__asm("CPSIE i");	/* enable interrupts */
 80037ea:	b662      	cpsie	i
}
 80037ec:	bd38      	pop	{r3, r4, r5, pc}
 80037ee:	bf00      	nop
 80037f0:	20000368 	.word	0x20000368
 80037f4:	2000036c 	.word	0x2000036c

080037f8 <put_event_task_GPIO_output>:
	task_GPIO_output_dta_t *p_task_GPIO_output_dta;

	p_task_GPIO_output_dta = &task_GPIO_output_dta_list[identifier];

	p_task_GPIO_output_dta->event = event;
	p_task_GPIO_output_dta->flag = true;
 80037f8:	2201      	movs	r2, #1
	p_task_GPIO_output_dta->event = event;
 80037fa:	4b03      	ldr	r3, [pc, #12]	@ (8003808 <put_event_task_GPIO_output+0x10>)
 80037fc:	eb03 01c1 	add.w	r1, r3, r1, lsl #3
 8003800:	7148      	strb	r0, [r1, #5]
	p_task_GPIO_output_dta->flag = true;
 8003802:	718a      	strb	r2, [r1, #6]
}
 8003804:	4770      	bx	lr
 8003806:	bf00      	nop
 8003808:	2000001c 	.word	0x2000001c

0800380c <task_hc05_init>:
uint32_t g_task_hc05_cnt;
volatile uint32_t g_task_hc05_tick_cnt;

/********************** external functions definition ************************/
void task_hc05_init(void *parameters)
{
 800380c:	e92d 4ff0 	stmdb	sp!, {r4, r5, r6, r7, r8, r9, sl, fp, lr}
 8003810:	b087      	sub	sp, #28
	const task_hc05_cfg_t *p_task_hc05_cfg;
	task_hc05_st_t state;
	task_hc05_ev_t event;

	/* Print out: Task Initialized */
	LOGGER_INFO(" ");
 8003812:	b672      	cpsid	i
 8003814:	4e73      	ldr	r6, [pc, #460]	@ (80039e4 <task_hc05_init+0x1d8>)
 8003816:	f04f 0907 	mov.w	r9, #7
 800381a:	4633      	mov	r3, r6
 800381c:	4a72      	ldr	r2, [pc, #456]	@ (80039e8 <task_hc05_init+0x1dc>)
 800381e:	4d73      	ldr	r5, [pc, #460]	@ (80039ec <task_hc05_init+0x1e0>)
 8003820:	6814      	ldr	r4, [r2, #0]
 8003822:	cb03      	ldmia	r3!, {r0, r1}
 8003824:	6020      	str	r0, [r4, #0]
 8003826:	6061      	str	r1, [r4, #4]
 8003828:	4620      	mov	r0, r4
 800382a:	f8c5 9000 	str.w	r9, [r5]
 800382e:	f7ff fd3b 	bl	80032a8 <logger_log_print_>
 8003832:	b662      	cpsie	i
 8003834:	b672      	cpsid	i
 8003836:	2701      	movs	r7, #1
 8003838:	4b6d      	ldr	r3, [pc, #436]	@ (80039f0 <task_hc05_init+0x1e4>)
 800383a:	4620      	mov	r0, r4
 800383c:	f8b3 b000 	ldrh.w	fp, [r3]
 8003840:	f8a4 b000 	strh.w	fp, [r4]
 8003844:	602f      	str	r7, [r5, #0]
 8003846:	f7ff fd2f 	bl	80032a8 <logger_log_print_>
 800384a:	b662      	cpsie	i
 800384c:	b672      	cpsid	i
 800384e:	4b69      	ldr	r3, [pc, #420]	@ (80039f4 <task_hc05_init+0x1e8>)
 8003850:	4620      	mov	r0, r4
 8003852:	f8b3 8000 	ldrh.w	r8, [r3]
 8003856:	f8a4 8000 	strh.w	r8, [r4]
 800385a:	602f      	str	r7, [r5, #0]
 800385c:	f7ff fd24 	bl	80032a8 <logger_log_print_>
 8003860:	b662      	cpsie	i
	LOGGER_INFO("  %s is running - %s", GET_NAME(task_hc05_init), p_task_hc05);
 8003862:	b672      	cpsid	i
 8003864:	4633      	mov	r3, r6
 8003866:	cb03      	ldmia	r3!, {r0, r1}
 8003868:	6020      	str	r0, [r4, #0]
 800386a:	6061      	str	r1, [r4, #4]
 800386c:	4620      	mov	r0, r4
 800386e:	f8c5 9000 	str.w	r9, [r5]
 8003872:	f7ff fd19 	bl	80032a8 <logger_log_print_>
 8003876:	b662      	cpsie	i
 8003878:	b672      	cpsid	i
 800387a:	4b5f      	ldr	r3, [pc, #380]	@ (80039f8 <task_hc05_init+0x1ec>)
 800387c:	213f      	movs	r1, #63	@ 0x3f
 800387e:	681b      	ldr	r3, [r3, #0]
 8003880:	4a5e      	ldr	r2, [pc, #376]	@ (80039fc <task_hc05_init+0x1f0>)
 8003882:	9300      	str	r3, [sp, #0]
 8003884:	4620      	mov	r0, r4
 8003886:	4b5e      	ldr	r3, [pc, #376]	@ (8003a00 <task_hc05_init+0x1f4>)
 8003888:	f001 fc9e 	bl	80051c8 <sniprintf>
 800388c:	6028      	str	r0, [r5, #0]
 800388e:	4620      	mov	r0, r4
 8003890:	f7ff fd0a 	bl	80032a8 <logger_log_print_>
 8003894:	b662      	cpsie	i
 8003896:	b672      	cpsid	i
 8003898:	f8a4 8000 	strh.w	r8, [r4]
 800389c:	4620      	mov	r0, r4
 800389e:	602f      	str	r7, [r5, #0]
 80038a0:	f7ff fd02 	bl	80032a8 <logger_log_print_>
 80038a4:	b662      	cpsie	i
	LOGGER_INFO("  %s is a %s", GET_NAME(task_hc05), p_task_hc05_);
 80038a6:	b672      	cpsid	i
 80038a8:	4633      	mov	r3, r6
 80038aa:	cb03      	ldmia	r3!, {r0, r1}
 80038ac:	6020      	str	r0, [r4, #0]
 80038ae:	6061      	str	r1, [r4, #4]
 80038b0:	4620      	mov	r0, r4
 80038b2:	f8c5 9000 	str.w	r9, [r5]
 80038b6:	f7ff fcf7 	bl	80032a8 <logger_log_print_>
 80038ba:	b662      	cpsie	i
 80038bc:	b672      	cpsid	i
 80038be:	4b51      	ldr	r3, [pc, #324]	@ (8003a04 <task_hc05_init+0x1f8>)
 80038c0:	213f      	movs	r1, #63	@ 0x3f
 80038c2:	681b      	ldr	r3, [r3, #0]
 80038c4:	4a50      	ldr	r2, [pc, #320]	@ (8003a08 <task_hc05_init+0x1fc>)
 80038c6:	9300      	str	r3, [sp, #0]
 80038c8:	4620      	mov	r0, r4
 80038ca:	4b50      	ldr	r3, [pc, #320]	@ (8003a0c <task_hc05_init+0x200>)
 80038cc:	f001 fc7c 	bl	80051c8 <sniprintf>
 80038d0:	6028      	str	r0, [r5, #0]
 80038d2:	4620      	mov	r0, r4
 80038d4:	f7ff fce8 	bl	80032a8 <logger_log_print_>
 80038d8:	b662      	cpsie	i
 80038da:	b672      	cpsid	i
 80038dc:	f8a4 8000 	strh.w	r8, [r4]
 80038e0:	4620      	mov	r0, r4
 80038e2:	602f      	str	r7, [r5, #0]
 80038e4:	f7ff fce0 	bl	80032a8 <logger_log_print_>
 80038e8:	b662      	cpsie	i

	/* Init & Print out: Task execution counter */
	g_task_hc05_cnt = G_TASK_HC05_CNT_INIT;
 80038ea:	f04f 0a00 	mov.w	sl, #0
 80038ee:	4a48      	ldr	r2, [pc, #288]	@ (8003a10 <task_hc05_init+0x204>)
 80038f0:	f8c2 a000 	str.w	sl, [r2]
	LOGGER_INFO("   %s = %lu", GET_NAME(g_task_hc05_cnt), g_task_hc05_cnt);
 80038f4:	b672      	cpsid	i
 80038f6:	4633      	mov	r3, r6
 80038f8:	cb03      	ldmia	r3!, {r0, r1}
 80038fa:	6020      	str	r0, [r4, #0]
 80038fc:	6061      	str	r1, [r4, #4]
 80038fe:	4620      	mov	r0, r4
 8003900:	f8c5 9000 	str.w	r9, [r5]
 8003904:	f7ff fcd0 	bl	80032a8 <logger_log_print_>
 8003908:	b662      	cpsie	i
 800390a:	b672      	cpsid	i
 800390c:	4a40      	ldr	r2, [pc, #256]	@ (8003a10 <task_hc05_init+0x204>)
 800390e:	213f      	movs	r1, #63	@ 0x3f
 8003910:	6813      	ldr	r3, [r2, #0]
 8003912:	4620      	mov	r0, r4
 8003914:	4a3f      	ldr	r2, [pc, #252]	@ (8003a14 <task_hc05_init+0x208>)
 8003916:	9300      	str	r3, [sp, #0]
 8003918:	4b3f      	ldr	r3, [pc, #252]	@ (8003a18 <task_hc05_init+0x20c>)
 800391a:	f001 fc55 	bl	80051c8 <sniprintf>
 800391e:	6028      	str	r0, [r5, #0]
 8003920:	4620      	mov	r0, r4
 8003922:	f7ff fcc1 	bl	80032a8 <logger_log_print_>
 8003926:	b662      	cpsie	i
 8003928:	b672      	cpsid	i
 800392a:	f8a4 8000 	strh.w	r8, [r4]
 800392e:	4620      	mov	r0, r4
 8003930:	602f      	str	r7, [r5, #0]
 8003932:	f7ff fcb9 	bl	80032a8 <logger_log_print_>
 8003936:	b662      	cpsie	i

	init_queue_messages_task_HC05();
 8003938:	f000 f92a 	bl	8003b90 <init_queue_messages_task_HC05>
		p_task_hc05_dta = &task_hc05_dta_list[index];
		p_task_hc05_cfg = &task_hc05_cfg_list[index];

		/* Init & Print out: Index & Task execution FSM */
		state = ST_HC05_DISCONNECTED;
		p_task_hc05_dta->state = state;
 800393c:	f240 3302 	movw	r3, #770	@ 0x302
 8003940:	4936      	ldr	r1, [pc, #216]	@ (8003a1c <task_hc05_init+0x210>)
		p_task_hc05_dta->event = event;

		p_task_hc05_dta->rx_flag = 0;
		p_task_hc05_dta->tx_flag = 0;

		HAL_UART_Receive_IT(p_task_hc05_cfg->uart, &p_task_hc05_dta->rx_buffer, 1);
 8003942:	463a      	mov	r2, r7
		p_task_hc05_dta->rx_flag = 0;
 8003944:	f881 a007 	strb.w	sl, [r1, #7]
		p_task_hc05_dta->state = state;
 8003948:	808b      	strh	r3, [r1, #4]
		p_task_hc05_dta->tx_flag = 0;
 800394a:	f881 a006 	strb.w	sl, [r1, #6]
		HAL_UART_Receive_IT(p_task_hc05_cfg->uart, &p_task_hc05_dta->rx_buffer, 1);
 800394e:	4834      	ldr	r0, [pc, #208]	@ (8003a20 <task_hc05_init+0x214>)
 8003950:	3109      	adds	r1, #9
 8003952:	f7ff f855 	bl	8002a00 <HAL_UART_Receive_IT>

		LOGGER_INFO(" ");
 8003956:	b672      	cpsid	i
 8003958:	4633      	mov	r3, r6
 800395a:	cb03      	ldmia	r3!, {r0, r1}
 800395c:	6020      	str	r0, [r4, #0]
 800395e:	6061      	str	r1, [r4, #4]
 8003960:	4620      	mov	r0, r4
 8003962:	f8c5 9000 	str.w	r9, [r5]
 8003966:	f7ff fc9f 	bl	80032a8 <logger_log_print_>
 800396a:	b662      	cpsie	i
 800396c:	b672      	cpsid	i
 800396e:	f8a4 b000 	strh.w	fp, [r4]
 8003972:	4620      	mov	r0, r4
 8003974:	602f      	str	r7, [r5, #0]
 8003976:	f7ff fc97 	bl	80032a8 <logger_log_print_>
 800397a:	b662      	cpsie	i
 800397c:	b672      	cpsid	i
 800397e:	f8a4 8000 	strh.w	r8, [r4]
 8003982:	4620      	mov	r0, r4
 8003984:	602f      	str	r7, [r5, #0]
 8003986:	f7ff fc8f 	bl	80032a8 <logger_log_print_>
 800398a:	b662      	cpsie	i
		LOGGER_INFO("   %s = %lu   %s = %lu   %s = %lu",
 800398c:	b672      	cpsid	i
 800398e:	ce03      	ldmia	r6!, {r0, r1}
 8003990:	6020      	str	r0, [r4, #0]
 8003992:	6061      	str	r1, [r4, #4]
 8003994:	4620      	mov	r0, r4
 8003996:	f8c5 9000 	str.w	r9, [r5]
 800399a:	f7ff fc85 	bl	80032a8 <logger_log_print_>
 800399e:	b662      	cpsie	i
 80039a0:	b672      	cpsid	i
 80039a2:	2203      	movs	r2, #3
 80039a4:	9204      	str	r2, [sp, #16]
 80039a6:	2202      	movs	r2, #2
 80039a8:	9202      	str	r2, [sp, #8]
 80039aa:	4a1e      	ldr	r2, [pc, #120]	@ (8003a24 <task_hc05_init+0x218>)
 80039ac:	213f      	movs	r1, #63	@ 0x3f
 80039ae:	9203      	str	r2, [sp, #12]
 80039b0:	4a1d      	ldr	r2, [pc, #116]	@ (8003a28 <task_hc05_init+0x21c>)
 80039b2:	4620      	mov	r0, r4
 80039b4:	9201      	str	r2, [sp, #4]
 80039b6:	4b1d      	ldr	r3, [pc, #116]	@ (8003a2c <task_hc05_init+0x220>)
 80039b8:	4a1d      	ldr	r2, [pc, #116]	@ (8003a30 <task_hc05_init+0x224>)
 80039ba:	f8cd a000 	str.w	sl, [sp]
 80039be:	f001 fc03 	bl	80051c8 <sniprintf>
 80039c2:	2324      	movs	r3, #36	@ 0x24
 80039c4:	4620      	mov	r0, r4
 80039c6:	602b      	str	r3, [r5, #0]
 80039c8:	f7ff fc6e 	bl	80032a8 <logger_log_print_>
 80039cc:	b662      	cpsie	i
 80039ce:	b672      	cpsid	i
 80039d0:	f8a4 8000 	strh.w	r8, [r4]
 80039d4:	4620      	mov	r0, r4
 80039d6:	602f      	str	r7, [r5, #0]
 80039d8:	f7ff fc66 	bl	80032a8 <logger_log_print_>
 80039dc:	b662      	cpsie	i
				    GET_NAME(index), index,
					GET_NAME(state), (uint32_t)state,
					GET_NAME(event), (uint32_t)event);
	}
}
 80039de:	b007      	add	sp, #28
 80039e0:	e8bd 8ff0 	ldmia.w	sp!, {r4, r5, r6, r7, r8, r9, sl, fp, pc}
 80039e4:	0800615c 	.word	0x0800615c
 80039e8:	080064d0 	.word	0x080064d0
 80039ec:	20000324 	.word	0x20000324
 80039f0:	08006164 	.word	0x08006164
 80039f4:	08006168 	.word	0x08006168
 80039f8:	20000040 	.word	0x20000040
 80039fc:	0800620c 	.word	0x0800620c
 8003a00:	08006308 	.word	0x08006308
 8003a04:	2000003c 	.word	0x2000003c
 8003a08:	08006238 	.word	0x08006238
 8003a0c:	08006318 	.word	0x08006318
 8003a10:	20000374 	.word	0x20000374
 8003a14:	08006260 	.word	0x08006260
 8003a18:	08006324 	.word	0x08006324
 8003a1c:	20000044 	.word	0x20000044
 8003a20:	200002b8 	.word	0x200002b8
 8003a24:	080062b0 	.word	0x080062b0
 8003a28:	080062b8 	.word	0x080062b8
 8003a2c:	0800626c 	.word	0x0800626c
 8003a30:	08006334 	.word	0x08006334

08003a34 <task_hc05_statechart>:
    }
}

/********************** internal functions definition ************************/
void task_hc05_statechart(void)
{
 8003a34:	b510      	push	{r4, lr}
	{
		/* Update Task HC05 Configuration & Data Pointer */
		p_task_hc05_cfg = &task_hc05_cfg_list[index];
		p_task_hc05_dta = &task_hc05_dta_list[index];

		if(any_tx_message_task_HC05()){
 8003a36:	f000 f8ed 	bl	8003c14 <any_tx_message_task_HC05>
 8003a3a:	2800      	cmp	r0, #0
 8003a3c:	d142      	bne.n	8003ac4 <task_hc05_statechart+0x90>
			p_task_hc05_dta->tx_flag = 1;
		}


		if (p_task_hc05_cfg->connected == HAL_GPIO_ReadPin(p_task_hc05_cfg->pin_status_port, p_task_hc05_cfg->pin_status))
 8003a3e:	f44f 6180 	mov.w	r1, #1024	@ 0x400
 8003a42:	4836      	ldr	r0, [pc, #216]	@ (8003b1c <task_hc05_statechart+0xe8>)
 8003a44:	f7fd fcfa 	bl	800143c <HAL_GPIO_ReadPin>
 8003a48:	2801      	cmp	r0, #1
 8003a4a:	4c35      	ldr	r4, [pc, #212]	@ (8003b20 <task_hc05_statechart+0xec>)
 8003a4c:	d044      	beq.n	8003ad8 <task_hc05_statechart+0xa4>
 8003a4e:	2003      	movs	r0, #3
		{
			p_task_hc05_dta->event = EV_HC05_DISCONNECTED;
		}


		switch (p_task_hc05_dta->state)
 8003a50:	7923      	ldrb	r3, [r4, #4]
				p_task_hc05_dta->event = EV_HC05_RX_BUFFER;
 8003a52:	7160      	strb	r0, [r4, #5]
		switch (p_task_hc05_dta->state)
 8003a54:	2b04      	cmp	r3, #4
 8003a56:	d85a      	bhi.n	8003b0e <task_hc05_statechart+0xda>
 8003a58:	e8df f003 	tbb	[pc, r3]
 8003a5c:	03111421 	.word	0x03111421
 8003a60:	13          	.byte	0x13
 8003a61:	00          	.byte	0x00
				}
			break;

			case ST_HC05_CONNECTED:

				if(p_task_hc05_dta->event == EV_HC05_FULLDUPLEX){
 8003a62:	2802      	cmp	r0, #2
 8003a64:	d050      	beq.n	8003b08 <task_hc05_statechart+0xd4>
					if(HC05_ALLOW_FULLDUPLEX)
						p_task_hc05_dta->state = ST_HC05_RECEIVING;
					else
						p_task_hc05_dta->state = ST_HC05_ERROR;
				}
				else if (p_task_hc05_dta->event == EV_HC05_RX_BUFFER)
 8003a66:	b350      	cbz	r0, 8003abe <task_hc05_statechart+0x8a>
					p_task_hc05_dta->state = ST_HC05_RECEIVING;
				else if (p_task_hc05_dta->event == EV_HC05_TX_BUFFER)
 8003a68:	2801      	cmp	r0, #1
 8003a6a:	d044      	beq.n	8003af6 <task_hc05_statechart+0xc2>
					p_task_hc05_dta->state = ST_HC05_SENDING;

				if(p_task_hc05_dta->event == EV_HC05_DISCONNECTED){
 8003a6c:	2803      	cmp	r0, #3
 8003a6e:	d108      	bne.n	8003a82 <task_hc05_statechart+0x4e>
					p_task_hc05_dta->state = ST_HC05_DISCONNECTED;
 8003a70:	2302      	movs	r3, #2
					put_event_task_system(p_task_hc05_cfg->connection_lost);
 8003a72:	2001      	movs	r0, #1
					p_task_hc05_dta->state = ST_HC05_DISCONNECTED;
 8003a74:	7123      	strb	r3, [r4, #4]
				p_task_hc05_dta->event = EV_HC05_DISCONNECTED;

				break;
		}
	}
}
 8003a76:	e8bd 4010 	ldmia.w	sp!, {r4, lr}
					put_event_task_system(p_task_hc05_cfg->connection_lost);
 8003a7a:	f000 bf13 	b.w	80048a4 <put_event_task_system>
				if(p_task_hc05_dta->event == EV_HC05_CONNECTED){
 8003a7e:	2804      	cmp	r0, #4
 8003a80:	d03c      	beq.n	8003afc <task_hc05_statechart+0xc8>
}
 8003a82:	bd10      	pop	{r4, pc}
				p_task_hc05_dta->rx_flag = 0;
 8003a84:	2300      	movs	r3, #0
				put_message_rx_system(p_task_hc05_dta->rx_buffer);
 8003a86:	7a60      	ldrb	r0, [r4, #9]
				p_task_hc05_dta->rx_flag = 0;
 8003a88:	71e3      	strb	r3, [r4, #7]
				put_message_rx_system(p_task_hc05_dta->rx_buffer);
 8003a8a:	f000 ff1d 	bl	80048c8 <put_message_rx_system>
				p_task_hc05_dta->state = ST_HC05_CONNECTED;
 8003a8e:	2203      	movs	r2, #3
				if(p_task_hc05_dta->event == EV_HC05_TX_BUFFER)
 8003a90:	7963      	ldrb	r3, [r4, #5]
				p_task_hc05_dta->state = ST_HC05_CONNECTED;
 8003a92:	7122      	strb	r2, [r4, #4]
				if(p_task_hc05_dta->event == EV_HC05_TX_BUFFER)
 8003a94:	2b01      	cmp	r3, #1
 8003a96:	d02e      	beq.n	8003af6 <task_hc05_statechart+0xc2>
				if(p_task_hc05_dta->event == EV_HC05_DISCONNECTED){
 8003a98:	4293      	cmp	r3, r2
 8003a9a:	d0e9      	beq.n	8003a70 <task_hc05_statechart+0x3c>
}
 8003a9c:	bd10      	pop	{r4, pc}
				p_task_hc05_dta->tx_buffer = get_tx_message_task_HC05();
 8003a9e:	f000 f8a3 	bl	8003be8 <get_tx_message_task_HC05>
 8003aa2:	4603      	mov	r3, r0
				HAL_UART_Transmit_DMA(p_task_hc05_cfg->uart, &p_task_hc05_dta->tx_buffer, HC05_TIMEOUT);
 8003aa4:	220a      	movs	r2, #10
 8003aa6:	491f      	ldr	r1, [pc, #124]	@ (8003b24 <task_hc05_statechart+0xf0>)
 8003aa8:	481f      	ldr	r0, [pc, #124]	@ (8003b28 <task_hc05_statechart+0xf4>)
				p_task_hc05_dta->tx_buffer = get_tx_message_task_HC05();
 8003aaa:	7223      	strb	r3, [r4, #8]
				HAL_UART_Transmit_DMA(p_task_hc05_cfg->uart, &p_task_hc05_dta->tx_buffer, HC05_TIMEOUT);
 8003aac:	f7fe ffd0 	bl	8002a50 <HAL_UART_Transmit_DMA>
				p_task_hc05_dta->tx_flag = 0;
 8003ab0:	2100      	movs	r1, #0
				p_task_hc05_dta->state = ST_HC05_CONNECTED;
 8003ab2:	2203      	movs	r2, #3
				if(p_task_hc05_dta->event == EV_HC05_RX_BUFFER)
 8003ab4:	7963      	ldrb	r3, [r4, #5]
				p_task_hc05_dta->tx_flag = 0;
 8003ab6:	71a1      	strb	r1, [r4, #6]
				p_task_hc05_dta->state = ST_HC05_CONNECTED;
 8003ab8:	7122      	strb	r2, [r4, #4]
				if(p_task_hc05_dta->event == EV_HC05_RX_BUFFER)
 8003aba:	2b00      	cmp	r3, #0
 8003abc:	d1ec      	bne.n	8003a98 <task_hc05_statechart+0x64>
					p_task_hc05_dta->state = ST_HC05_RECEIVING;
 8003abe:	2301      	movs	r3, #1
 8003ac0:	7123      	strb	r3, [r4, #4]
}
 8003ac2:	bd10      	pop	{r4, pc}
			p_task_hc05_dta->tx_flag = 1;
 8003ac4:	2301      	movs	r3, #1
 8003ac6:	4c16      	ldr	r4, [pc, #88]	@ (8003b20 <task_hc05_statechart+0xec>)
		if (p_task_hc05_cfg->connected == HAL_GPIO_ReadPin(p_task_hc05_cfg->pin_status_port, p_task_hc05_cfg->pin_status))
 8003ac8:	f44f 6180 	mov.w	r1, #1024	@ 0x400
 8003acc:	4813      	ldr	r0, [pc, #76]	@ (8003b1c <task_hc05_statechart+0xe8>)
			p_task_hc05_dta->tx_flag = 1;
 8003ace:	71a3      	strb	r3, [r4, #6]
		if (p_task_hc05_cfg->connected == HAL_GPIO_ReadPin(p_task_hc05_cfg->pin_status_port, p_task_hc05_cfg->pin_status))
 8003ad0:	f7fd fcb4 	bl	800143c <HAL_GPIO_ReadPin>
 8003ad4:	2801      	cmp	r0, #1
 8003ad6:	d1ba      	bne.n	8003a4e <task_hc05_statechart+0x1a>
			if(p_task_hc05_dta->rx_flag != 0 && p_task_hc05_dta->tx_flag != 0)
 8003ad8:	79e3      	ldrb	r3, [r4, #7]
 8003ada:	b11b      	cbz	r3, 8003ae4 <task_hc05_statechart+0xb0>
 8003adc:	79a3      	ldrb	r3, [r4, #6]
 8003ade:	b10b      	cbz	r3, 8003ae4 <task_hc05_statechart+0xb0>
 8003ae0:	2002      	movs	r0, #2
 8003ae2:	e7b5      	b.n	8003a50 <task_hc05_statechart+0x1c>
			else if(p_task_hc05_dta->rx_flag != 0)
 8003ae4:	79e3      	ldrb	r3, [r4, #7]
 8003ae6:	b923      	cbnz	r3, 8003af2 <task_hc05_statechart+0xbe>
			else if(p_task_hc05_dta->tx_flag)
 8003ae8:	79a3      	ldrb	r3, [r4, #6]
 8003aea:	2b00      	cmp	r3, #0
 8003aec:	bf08      	it	eq
 8003aee:	2004      	moveq	r0, #4
 8003af0:	e7ae      	b.n	8003a50 <task_hc05_statechart+0x1c>
 8003af2:	2000      	movs	r0, #0
 8003af4:	e7ac      	b.n	8003a50 <task_hc05_statechart+0x1c>
					p_task_hc05_dta->state = ST_HC05_SENDING;
 8003af6:	2300      	movs	r3, #0
 8003af8:	7123      	strb	r3, [r4, #4]
}
 8003afa:	bd10      	pop	{r4, pc}
					put_event_task_system(p_task_hc05_cfg->connection_established);
 8003afc:	2000      	movs	r0, #0
 8003afe:	f000 fed1 	bl	80048a4 <put_event_task_system>
					p_task_hc05_dta->state = ST_HC05_CONNECTED;
 8003b02:	2303      	movs	r3, #3
 8003b04:	7123      	strb	r3, [r4, #4]
}
 8003b06:	bd10      	pop	{r4, pc}
						p_task_hc05_dta->state = ST_HC05_ERROR;
 8003b08:	2304      	movs	r3, #4
 8003b0a:	7123      	strb	r3, [r4, #4]
}
 8003b0c:	bd10      	pop	{r4, pc}
				p_task_hc05_dta->tick  = DEL_HC05_MIN;
 8003b0e:	2200      	movs	r2, #0
				p_task_hc05_dta->state = ST_HC05_ERROR;
 8003b10:	f44f 7341 	mov.w	r3, #772	@ 0x304
				p_task_hc05_dta->tick  = DEL_HC05_MIN;
 8003b14:	6022      	str	r2, [r4, #0]
				p_task_hc05_dta->state = ST_HC05_ERROR;
 8003b16:	80a3      	strh	r3, [r4, #4]
}
 8003b18:	bd10      	pop	{r4, pc}
 8003b1a:	bf00      	nop
 8003b1c:	40010c00 	.word	0x40010c00
 8003b20:	20000044 	.word	0x20000044
 8003b24:	2000004c 	.word	0x2000004c
 8003b28:	200002b8 	.word	0x200002b8

08003b2c <task_hc05_update>:
{
 8003b2c:	b538      	push	{r3, r4, r5, lr}
	__asm("CPSID i");	/* disable interrupts */
 8003b2e:	b672      	cpsid	i
    if (G_TASK_HC05_TICK_CNT_INI < g_task_hc05_tick_cnt)
 8003b30:	4c0b      	ldr	r4, [pc, #44]	@ (8003b60 <task_hc05_update+0x34>)
 8003b32:	6823      	ldr	r3, [r4, #0]
 8003b34:	b18b      	cbz	r3, 8003b5a <task_hc05_update+0x2e>
    	g_task_hc05_tick_cnt--;
 8003b36:	6823      	ldr	r3, [r4, #0]
 8003b38:	3b01      	subs	r3, #1
 8003b3a:	6023      	str	r3, [r4, #0]
    __asm("CPSIE i");	/* enable interrupts */
 8003b3c:	b662      	cpsie	i
    while (b_time_update_required)
 8003b3e:	4d09      	ldr	r5, [pc, #36]	@ (8003b64 <task_hc05_update+0x38>)
		g_task_hc05_cnt++;
 8003b40:	682b      	ldr	r3, [r5, #0]
 8003b42:	3301      	adds	r3, #1
 8003b44:	602b      	str	r3, [r5, #0]
    	task_hc05_statechart();
 8003b46:	f7ff ff75 	bl	8003a34 <task_hc05_statechart>
		__asm("CPSID i");	/* disable interrupts */
 8003b4a:	b672      	cpsid	i
		if (G_TASK_HC05_TICK_CNT_INI < g_task_hc05_tick_cnt)
 8003b4c:	6823      	ldr	r3, [r4, #0]
 8003b4e:	b123      	cbz	r3, 8003b5a <task_hc05_update+0x2e>
			g_task_hc05_tick_cnt--;
 8003b50:	6823      	ldr	r3, [r4, #0]
 8003b52:	3b01      	subs	r3, #1
 8003b54:	6023      	str	r3, [r4, #0]
		__asm("CPSIE i");	/* enable interrupts */
 8003b56:	b662      	cpsie	i
    while (b_time_update_required)
 8003b58:	e7f2      	b.n	8003b40 <task_hc05_update+0x14>
		__asm("CPSIE i");	/* enable interrupts */
 8003b5a:	b662      	cpsie	i
}
 8003b5c:	bd38      	pop	{r3, r4, r5, pc}
 8003b5e:	bf00      	nop
 8003b60:	20000370 	.word	0x20000370
 8003b64:	20000374 	.word	0x20000374

08003b68 <HAL_UART_RxCpltCallback>:

	for (index = 0; HC05_DTA_QTY > index; index++)
	{
		p_task_hc05_dta = &task_hc05_dta_list[index];
		p_task_hc05_cfg = &task_hc05_cfg_list[index];
		if(huart->Instance == p_task_hc05_cfg->uart->Instance){
 8003b68:	4b07      	ldr	r3, [pc, #28]	@ (8003b88 <HAL_UART_RxCpltCallback+0x20>)
 8003b6a:	6801      	ldr	r1, [r0, #0]
 8003b6c:	681a      	ldr	r2, [r3, #0]
 8003b6e:	4291      	cmp	r1, r2
 8003b70:	d109      	bne.n	8003b86 <HAL_UART_RxCpltCallback+0x1e>
			p_task_hc05_dta->rx_flag = 1;
 8003b72:	2201      	movs	r2, #1
void HAL_UART_RxCpltCallback(UART_HandleTypeDef *huart){
 8003b74:	b410      	push	{r4}
			p_task_hc05_dta->rx_flag = 1;
 8003b76:	4c05      	ldr	r4, [pc, #20]	@ (8003b8c <HAL_UART_RxCpltCallback+0x24>)
			HAL_UART_Receive_IT(p_task_hc05_cfg->uart, &p_task_hc05_dta->rx_buffer, 1);
 8003b78:	4618      	mov	r0, r3
 8003b7a:	f104 0109 	add.w	r1, r4, #9
			p_task_hc05_dta->rx_flag = 1;
 8003b7e:	71e2      	strb	r2, [r4, #7]
			break;
		}
	}
}
 8003b80:	bc10      	pop	{r4}
			HAL_UART_Receive_IT(p_task_hc05_cfg->uart, &p_task_hc05_dta->rx_buffer, 1);
 8003b82:	f7fe bf3d 	b.w	8002a00 <HAL_UART_Receive_IT>
 8003b86:	4770      	bx	lr
 8003b88:	200002b8 	.word	0x200002b8
 8003b8c:	20000044 	.word	0x20000044

08003b90 <init_queue_messages_task_HC05>:
{
	uint32_t i;

	tx_queue_task_hc05.head = 0;
	tx_queue_task_hc05.tail = 0;
	tx_queue_task_hc05.count = 0;
 8003b90:	2300      	movs	r3, #0
{
 8003b92:	b430      	push	{r4, r5}
	tx_queue_task_hc05.head = 0;
 8003b94:	2400      	movs	r4, #0
 8003b96:	2500      	movs	r5, #0
 8003b98:	4908      	ldr	r1, [pc, #32]	@ (8003bbc <init_queue_messages_task_HC05+0x2c>)

	for (i = 0; i < MAX_MESSAGES; i++)
		tx_queue_task_hc05.queue[i] = MESSAGE_UNDEFINED;

	rx_queue_task_hc05.head = 0;
 8003b9a:	4a09      	ldr	r2, [pc, #36]	@ (8003bc0 <init_queue_messages_task_HC05+0x30>)
		tx_queue_task_hc05.queue[i] = MESSAGE_UNDEFINED;
 8003b9c:	e9c1 3302 	strd	r3, r3, [r1, #8]
	rx_queue_task_hc05.tail = 0;
	rx_queue_task_hc05.count = 0;

	for (i = 0; i < MAX_MESSAGES; i++)
		rx_queue_task_hc05.queue[i] = MESSAGE_UNDEFINED;
 8003ba0:	e9c2 3302 	strd	r3, r3, [r2, #8]
		tx_queue_task_hc05.queue[i] = MESSAGE_UNDEFINED;
 8003ba4:	e9c1 3304 	strd	r3, r3, [r1, #16]
		rx_queue_task_hc05.queue[i] = MESSAGE_UNDEFINED;
 8003ba8:	e9c2 3304 	strd	r3, r3, [r2, #16]
		tx_queue_task_hc05.queue[i] = MESSAGE_UNDEFINED;
 8003bac:	618b      	str	r3, [r1, #24]
		rx_queue_task_hc05.queue[i] = MESSAGE_UNDEFINED;
 8003bae:	6193      	str	r3, [r2, #24]
	tx_queue_task_hc05.head = 0;
 8003bb0:	e9c1 4500 	strd	r4, r5, [r1]
	rx_queue_task_hc05.head = 0;
 8003bb4:	e9c2 4500 	strd	r4, r5, [r2]
}
 8003bb8:	bc30      	pop	{r4, r5}
 8003bba:	4770      	bx	lr
 8003bbc:	20000398 	.word	0x20000398
 8003bc0:	20000378 	.word	0x20000378

08003bc4 <put_tx_message_task_HC05>:

void put_tx_message_task_HC05(char message)
{
	tx_queue_task_hc05.count++;
 8003bc4:	4b07      	ldr	r3, [pc, #28]	@ (8003be4 <put_tx_message_task_HC05+0x20>)
{
 8003bc6:	b410      	push	{r4}
	tx_queue_task_hc05.queue[tx_queue_task_hc05.head++] = message;
 8003bc8:	681a      	ldr	r2, [r3, #0]
	tx_queue_task_hc05.count++;
 8003bca:	689c      	ldr	r4, [r3, #8]

	if (MAX_MESSAGES == tx_queue_task_hc05.head)
		tx_queue_task_hc05.head = 0;
 8003bcc:	2a0f      	cmp	r2, #15
	tx_queue_task_hc05.queue[tx_queue_task_hc05.head++] = message;
 8003bce:	f102 0101 	add.w	r1, r2, #1
		tx_queue_task_hc05.head = 0;
 8003bd2:	bf08      	it	eq
 8003bd4:	2100      	moveq	r1, #0
	tx_queue_task_hc05.queue[tx_queue_task_hc05.head++] = message;
 8003bd6:	441a      	add	r2, r3
	tx_queue_task_hc05.count++;
 8003bd8:	3401      	adds	r4, #1
	tx_queue_task_hc05.queue[tx_queue_task_hc05.head++] = message;
 8003bda:	7310      	strb	r0, [r2, #12]
 8003bdc:	6019      	str	r1, [r3, #0]
	tx_queue_task_hc05.count++;
 8003bde:	609c      	str	r4, [r3, #8]
}
 8003be0:	bc10      	pop	{r4}
 8003be2:	4770      	bx	lr
 8003be4:	20000398 	.word	0x20000398

08003be8 <get_tx_message_task_HC05>:
{
	char message;

	tx_queue_task_hc05.count--;
	message = tx_queue_task_hc05.queue[tx_queue_task_hc05.tail];
	tx_queue_task_hc05.queue[tx_queue_task_hc05.tail++] = MESSAGE_UNDEFINED;
 8003be8:	f04f 0c00 	mov.w	ip, #0
	tx_queue_task_hc05.count--;
 8003bec:	4a08      	ldr	r2, [pc, #32]	@ (8003c10 <get_tx_message_task_HC05+0x28>)
{
 8003bee:	b410      	push	{r4}
	tx_queue_task_hc05.count--;
 8003bf0:	e9d2 3401 	ldrd	r3, r4, [r2, #4]

	if (MAX_MESSAGES == tx_queue_task_hc05.tail)
		tx_queue_task_hc05.tail = 0;
 8003bf4:	2b0f      	cmp	r3, #15
	tx_queue_task_hc05.queue[tx_queue_task_hc05.tail++] = MESSAGE_UNDEFINED;
 8003bf6:	f103 0101 	add.w	r1, r3, #1
		tx_queue_task_hc05.tail = 0;
 8003bfa:	bf08      	it	eq
 8003bfc:	4661      	moveq	r1, ip
	message = tx_queue_task_hc05.queue[tx_queue_task_hc05.tail];
 8003bfe:	4413      	add	r3, r2
 8003c00:	7b18      	ldrb	r0, [r3, #12]
	tx_queue_task_hc05.count--;
 8003c02:	3c01      	subs	r4, #1
	tx_queue_task_hc05.queue[tx_queue_task_hc05.tail++] = MESSAGE_UNDEFINED;
 8003c04:	f883 c00c 	strb.w	ip, [r3, #12]
 8003c08:	6051      	str	r1, [r2, #4]
	tx_queue_task_hc05.count--;
 8003c0a:	6094      	str	r4, [r2, #8]

	return message;
}
 8003c0c:	bc10      	pop	{r4}
 8003c0e:	4770      	bx	lr
 8003c10:	20000398 	.word	0x20000398

08003c14 <any_tx_message_task_HC05>:
	return message;
}

bool any_tx_message_task_HC05(void)
{
  return (tx_queue_task_hc05.head != tx_queue_task_hc05.tail);
 8003c14:	4b03      	ldr	r3, [pc, #12]	@ (8003c24 <any_tx_message_task_HC05+0x10>)
 8003c16:	e9d3 0300 	ldrd	r0, r3, [r3]
}
 8003c1a:	1ac0      	subs	r0, r0, r3
 8003c1c:	bf18      	it	ne
 8003c1e:	2001      	movne	r0, #1
 8003c20:	4770      	bx	lr
 8003c22:	bf00      	nop
 8003c24:	20000398 	.word	0x20000398

08003c28 <task_mic_init>:
uint32_t g_task_mic_cnt;
volatile uint32_t g_task_mic_tick_cnt;

/********************** external functions definition ************************/
void task_mic_init(void *parameters)
{
 8003c28:	e92d 4ff0 	stmdb	sp!, {r4, r5, r6, r7, r8, r9, sl, fp, lr}
 8003c2c:	b087      	sub	sp, #28
	const task_mic_cfg_t *p_task_mic_cfg;
	task_mic_st_t state;
	task_mic_ev_t event;

	/* Print out: Task Initialized */
	LOGGER_INFO(" ");
 8003c2e:	b672      	cpsid	i
 8003c30:	4e78      	ldr	r6, [pc, #480]	@ (8003e14 <task_mic_init+0x1ec>)
 8003c32:	f04f 0907 	mov.w	r9, #7
 8003c36:	4633      	mov	r3, r6
 8003c38:	4a77      	ldr	r2, [pc, #476]	@ (8003e18 <task_mic_init+0x1f0>)
 8003c3a:	4d78      	ldr	r5, [pc, #480]	@ (8003e1c <task_mic_init+0x1f4>)
 8003c3c:	6814      	ldr	r4, [r2, #0]
 8003c3e:	cb03      	ldmia	r3!, {r0, r1}
 8003c40:	6020      	str	r0, [r4, #0]
 8003c42:	6061      	str	r1, [r4, #4]
 8003c44:	4620      	mov	r0, r4
 8003c46:	f8c5 9000 	str.w	r9, [r5]
 8003c4a:	f7ff fb2d 	bl	80032a8 <logger_log_print_>
 8003c4e:	b662      	cpsie	i
 8003c50:	b672      	cpsid	i
 8003c52:	2701      	movs	r7, #1
 8003c54:	4b72      	ldr	r3, [pc, #456]	@ (8003e20 <task_mic_init+0x1f8>)
 8003c56:	4620      	mov	r0, r4
 8003c58:	f8b3 b000 	ldrh.w	fp, [r3]
 8003c5c:	f8a4 b000 	strh.w	fp, [r4]
 8003c60:	602f      	str	r7, [r5, #0]
 8003c62:	f7ff fb21 	bl	80032a8 <logger_log_print_>
 8003c66:	b662      	cpsie	i
 8003c68:	b672      	cpsid	i
 8003c6a:	4b6e      	ldr	r3, [pc, #440]	@ (8003e24 <task_mic_init+0x1fc>)
 8003c6c:	4620      	mov	r0, r4
 8003c6e:	f8b3 8000 	ldrh.w	r8, [r3]
 8003c72:	f8a4 8000 	strh.w	r8, [r4]
 8003c76:	602f      	str	r7, [r5, #0]
 8003c78:	f7ff fb16 	bl	80032a8 <logger_log_print_>
 8003c7c:	b662      	cpsie	i
	LOGGER_INFO("  %s is running - %s", GET_NAME(task_mic_init), p_task_mic);
 8003c7e:	b672      	cpsid	i
 8003c80:	4633      	mov	r3, r6
 8003c82:	cb03      	ldmia	r3!, {r0, r1}
 8003c84:	6020      	str	r0, [r4, #0]
 8003c86:	6061      	str	r1, [r4, #4]
 8003c88:	4620      	mov	r0, r4
 8003c8a:	f8c5 9000 	str.w	r9, [r5]
 8003c8e:	f7ff fb0b 	bl	80032a8 <logger_log_print_>
 8003c92:	b662      	cpsie	i
 8003c94:	b672      	cpsid	i
 8003c96:	4b64      	ldr	r3, [pc, #400]	@ (8003e28 <task_mic_init+0x200>)
 8003c98:	213f      	movs	r1, #63	@ 0x3f
 8003c9a:	681b      	ldr	r3, [r3, #0]
 8003c9c:	4a63      	ldr	r2, [pc, #396]	@ (8003e2c <task_mic_init+0x204>)
 8003c9e:	9300      	str	r3, [sp, #0]
 8003ca0:	4620      	mov	r0, r4
 8003ca2:	4b63      	ldr	r3, [pc, #396]	@ (8003e30 <task_mic_init+0x208>)
 8003ca4:	f001 fa90 	bl	80051c8 <sniprintf>
 8003ca8:	6028      	str	r0, [r5, #0]
 8003caa:	4620      	mov	r0, r4
 8003cac:	f7ff fafc 	bl	80032a8 <logger_log_print_>
 8003cb0:	b662      	cpsie	i
 8003cb2:	b672      	cpsid	i
 8003cb4:	f8a4 8000 	strh.w	r8, [r4]
 8003cb8:	4620      	mov	r0, r4
 8003cba:	602f      	str	r7, [r5, #0]
 8003cbc:	f7ff faf4 	bl	80032a8 <logger_log_print_>
 8003cc0:	b662      	cpsie	i
	LOGGER_INFO("  %s is a %s", GET_NAME(task_mic), p_task_mic_);
 8003cc2:	b672      	cpsid	i
 8003cc4:	4633      	mov	r3, r6
 8003cc6:	cb03      	ldmia	r3!, {r0, r1}
 8003cc8:	6020      	str	r0, [r4, #0]
 8003cca:	6061      	str	r1, [r4, #4]
 8003ccc:	4620      	mov	r0, r4
 8003cce:	f8c5 9000 	str.w	r9, [r5]
 8003cd2:	f7ff fae9 	bl	80032a8 <logger_log_print_>
 8003cd6:	b662      	cpsie	i
 8003cd8:	b672      	cpsid	i
 8003cda:	4b56      	ldr	r3, [pc, #344]	@ (8003e34 <task_mic_init+0x20c>)
 8003cdc:	213f      	movs	r1, #63	@ 0x3f
 8003cde:	681b      	ldr	r3, [r3, #0]
 8003ce0:	4a55      	ldr	r2, [pc, #340]	@ (8003e38 <task_mic_init+0x210>)
 8003ce2:	9300      	str	r3, [sp, #0]
 8003ce4:	4620      	mov	r0, r4
 8003ce6:	4b55      	ldr	r3, [pc, #340]	@ (8003e3c <task_mic_init+0x214>)
 8003ce8:	f001 fa6e 	bl	80051c8 <sniprintf>
 8003cec:	6028      	str	r0, [r5, #0]
 8003cee:	4620      	mov	r0, r4
 8003cf0:	f7ff fada 	bl	80032a8 <logger_log_print_>
 8003cf4:	b662      	cpsie	i
 8003cf6:	b672      	cpsid	i
 8003cf8:	f8a4 8000 	strh.w	r8, [r4]
 8003cfc:	4620      	mov	r0, r4
 8003cfe:	602f      	str	r7, [r5, #0]
 8003d00:	f7ff fad2 	bl	80032a8 <logger_log_print_>
 8003d04:	b662      	cpsie	i

	/* Init & Print out: Task execution counter */
	g_task_mic_cnt = G_TASK_SEN_CNT_INIT;
 8003d06:	f04f 0a00 	mov.w	sl, #0
 8003d0a:	4a4d      	ldr	r2, [pc, #308]	@ (8003e40 <task_mic_init+0x218>)
 8003d0c:	f8c2 a000 	str.w	sl, [r2]
	LOGGER_INFO("   %s = %lu", GET_NAME(g_task_mic_cnt), g_task_mic_cnt);
 8003d10:	b672      	cpsid	i
 8003d12:	4633      	mov	r3, r6
 8003d14:	cb03      	ldmia	r3!, {r0, r1}
 8003d16:	6020      	str	r0, [r4, #0]
 8003d18:	6061      	str	r1, [r4, #4]
 8003d1a:	4620      	mov	r0, r4
 8003d1c:	f8c5 9000 	str.w	r9, [r5]
 8003d20:	f7ff fac2 	bl	80032a8 <logger_log_print_>
 8003d24:	b662      	cpsie	i
 8003d26:	b672      	cpsid	i
 8003d28:	4a45      	ldr	r2, [pc, #276]	@ (8003e40 <task_mic_init+0x218>)
 8003d2a:	213f      	movs	r1, #63	@ 0x3f
 8003d2c:	6813      	ldr	r3, [r2, #0]
 8003d2e:	4620      	mov	r0, r4
 8003d30:	4a44      	ldr	r2, [pc, #272]	@ (8003e44 <task_mic_init+0x21c>)
 8003d32:	9300      	str	r3, [sp, #0]
 8003d34:	4b44      	ldr	r3, [pc, #272]	@ (8003e48 <task_mic_init+0x220>)
 8003d36:	f001 fa47 	bl	80051c8 <sniprintf>
 8003d3a:	6028      	str	r0, [r5, #0]
 8003d3c:	4620      	mov	r0, r4
 8003d3e:	f7ff fab3 	bl	80032a8 <logger_log_print_>
 8003d42:	b662      	cpsie	i
 8003d44:	b672      	cpsid	i
 8003d46:	f8a4 8000 	strh.w	r8, [r4]
 8003d4a:	4620      	mov	r0, r4
 8003d4c:	602f      	str	r7, [r5, #0]
 8003d4e:	f7ff faab 	bl	80032a8 <logger_log_print_>
 8003d52:	b662      	cpsie	i
		p_task_mic_dta->state = state;

		event = EV_ADC_XX_BUSY;
		p_task_mic_dta->event = event;

		HAL_TIM_Base_Start_IT(p_task_mic_cfg->timer);
 8003d54:	4a3d      	ldr	r2, [pc, #244]	@ (8003e4c <task_mic_init+0x224>)
		p_task_mic_dta->state = state;
 8003d56:	4b3e      	ldr	r3, [pc, #248]	@ (8003e50 <task_mic_init+0x228>)
		HAL_TIM_Base_Start_IT(p_task_mic_cfg->timer);
 8003d58:	4610      	mov	r0, r2
		p_task_mic_dta->state = state;
 8003d5a:	f8a3 a004 	strh.w	sl, [r3, #4]
		HAL_TIM_Base_Start_IT(p_task_mic_cfg->timer);
 8003d5e:	f7fe fb51 	bl	8002404 <HAL_TIM_Base_Start_IT>
		HAL_TIM_OC_Start(p_task_mic_cfg->timer, TIM_CHANNEL_2);
 8003d62:	4a3a      	ldr	r2, [pc, #232]	@ (8003e4c <task_mic_init+0x224>)
 8003d64:	2104      	movs	r1, #4
 8003d66:	4610      	mov	r0, r2
 8003d68:	f7fe fb78 	bl	800245c <HAL_TIM_OC_Start>

		//HAL_ADC_Start_IT(p_task_mic_cfg->adc);
		HAL_ADC_Start_DMA(p_task_mic_cfg->adc,
 8003d6c:	4b38      	ldr	r3, [pc, #224]	@ (8003e50 <task_mic_init+0x228>)
 8003d6e:	2232      	movs	r2, #50	@ 0x32
 8003d70:	1d99      	adds	r1, r3, #6
 8003d72:	4838      	ldr	r0, [pc, #224]	@ (8003e54 <task_mic_init+0x22c>)
 8003d74:	f7fc ff10 	bl	8000b98 <HAL_ADC_Start_DMA>
		                  (uint32_t *)p_task_mic_dta->adc_batch,
						  ADC_BATCH_SIZE);

		LOGGER_INFO(" ");
 8003d78:	b672      	cpsid	i
 8003d7a:	4633      	mov	r3, r6
 8003d7c:	cb03      	ldmia	r3!, {r0, r1}
 8003d7e:	6020      	str	r0, [r4, #0]
 8003d80:	6061      	str	r1, [r4, #4]
 8003d82:	4620      	mov	r0, r4
 8003d84:	f8c5 9000 	str.w	r9, [r5]
 8003d88:	f7ff fa8e 	bl	80032a8 <logger_log_print_>
 8003d8c:	b662      	cpsie	i
 8003d8e:	b672      	cpsid	i
 8003d90:	f8a4 b000 	strh.w	fp, [r4]
 8003d94:	4620      	mov	r0, r4
 8003d96:	602f      	str	r7, [r5, #0]
 8003d98:	f7ff fa86 	bl	80032a8 <logger_log_print_>
 8003d9c:	b662      	cpsie	i
 8003d9e:	b672      	cpsid	i
 8003da0:	f8a4 8000 	strh.w	r8, [r4]
 8003da4:	4620      	mov	r0, r4
 8003da6:	602f      	str	r7, [r5, #0]
 8003da8:	f7ff fa7e 	bl	80032a8 <logger_log_print_>
 8003dac:	b662      	cpsie	i
		LOGGER_INFO("   %s = %lu   %s = %lu   %s = %lu",
 8003dae:	b672      	cpsid	i
 8003db0:	ce03      	ldmia	r6!, {r0, r1}
 8003db2:	6020      	str	r0, [r4, #0]
 8003db4:	6061      	str	r1, [r4, #4]
 8003db6:	4620      	mov	r0, r4
 8003db8:	f8c5 9000 	str.w	r9, [r5]
 8003dbc:	f7ff fa74 	bl	80032a8 <logger_log_print_>
 8003dc0:	b662      	cpsie	i
 8003dc2:	b672      	cpsid	i
 8003dc4:	4a24      	ldr	r2, [pc, #144]	@ (8003e58 <task_mic_init+0x230>)
 8003dc6:	213f      	movs	r1, #63	@ 0x3f
 8003dc8:	9203      	str	r2, [sp, #12]
 8003dca:	4a24      	ldr	r2, [pc, #144]	@ (8003e5c <task_mic_init+0x234>)
 8003dcc:	4620      	mov	r0, r4
 8003dce:	9201      	str	r2, [sp, #4]
 8003dd0:	4b23      	ldr	r3, [pc, #140]	@ (8003e60 <task_mic_init+0x238>)
 8003dd2:	4a24      	ldr	r2, [pc, #144]	@ (8003e64 <task_mic_init+0x23c>)
 8003dd4:	f8cd a010 	str.w	sl, [sp, #16]
 8003dd8:	f8cd a008 	str.w	sl, [sp, #8]
 8003ddc:	f8cd a000 	str.w	sl, [sp]
 8003de0:	f001 f9f2 	bl	80051c8 <sniprintf>
 8003de4:	2324      	movs	r3, #36	@ 0x24
 8003de6:	4620      	mov	r0, r4
 8003de8:	602b      	str	r3, [r5, #0]
 8003dea:	f7ff fa5d 	bl	80032a8 <logger_log_print_>
 8003dee:	b662      	cpsie	i
 8003df0:	b672      	cpsid	i
 8003df2:	f8a4 8000 	strh.w	r8, [r4]
 8003df6:	4620      	mov	r0, r4
 8003df8:	602f      	str	r7, [r5, #0]
 8003dfa:	f7ff fa55 	bl	80032a8 <logger_log_print_>
 8003dfe:	b662      	cpsie	i
		//Precomputing for optimization
		for(int i=0;i<NUM_TONES;i++)
		{
		    float k = (ADC_BATCH_SIZE * target_freqs[i]) / FS;
		    float w = 2.0f * M_PI * k / ADC_BATCH_SIZE;
		    coeffs[i] = (int16_t)(2.0f * cosf(w) * SCALE);
 8003e00:	f649 0273 	movw	r2, #39027	@ 0x9873
 8003e04:	4b18      	ldr	r3, [pc, #96]	@ (8003e68 <task_mic_init+0x240>)
 8003e06:	4919      	ldr	r1, [pc, #100]	@ (8003e6c <task_mic_init+0x244>)
 8003e08:	809a      	strh	r2, [r3, #4]
 8003e0a:	6019      	str	r1, [r3, #0]
		}
	}
}
 8003e0c:	b007      	add	sp, #28
 8003e0e:	e8bd 8ff0 	ldmia.w	sp!, {r4, r5, r6, r7, r8, r9, sl, fp, pc}
 8003e12:	bf00      	nop
 8003e14:	0800615c 	.word	0x0800615c
 8003e18:	080064d0 	.word	0x080064d0
 8003e1c:	20000324 	.word	0x20000324
 8003e20:	08006164 	.word	0x08006164
 8003e24:	08006168 	.word	0x08006168
 8003e28:	20000054 	.word	0x20000054
 8003e2c:	0800620c 	.word	0x0800620c
 8003e30:	08006378 	.word	0x08006378
 8003e34:	20000050 	.word	0x20000050
 8003e38:	08006238 	.word	0x08006238
 8003e3c:	08006388 	.word	0x08006388
 8003e40:	200003b8 	.word	0x200003b8
 8003e44:	08006260 	.word	0x08006260
 8003e48:	08006394 	.word	0x08006394
 8003e4c:	200001e0 	.word	0x200001e0
 8003e50:	200003c4 	.word	0x200003c4
 8003e54:	20000158 	.word	0x20000158
 8003e58:	080062b0 	.word	0x080062b0
 8003e5c:	080062b8 	.word	0x080062b8
 8003e60:	0800626c 	.word	0x0800626c
 8003e64:	08006334 	.word	0x08006334
 8003e68:	200003bc 	.word	0x200003bc
 8003e6c:	d873278d 	.word	0xd873278d

08003e70 <task_mic_statechart>:
		__asm("CPSIE i");	/* enable interrupts */
    }
}

void task_mic_statechart(void)
{
 8003e70:	e92d 47f0 	stmdb	sp!, {r4, r5, r6, r7, r8, r9, sl, lr}
	{
		/* Update Task Sensor Configuration & Data Pointer */
		p_task_mic_cfg = &task_mic_cfg_list[index];
		p_task_mic_dta = &task_mic_dta_list[index];

		if (p_task_mic_dta->adc_ready)
 8003e74:	4e3a      	ldr	r6, [pc, #232]	@ (8003f60 <task_mic_statechart+0xf0>)
 8003e76:	f896 30ce 	ldrb.w	r3, [r6, #206]	@ 0xce
		else
		{
			p_task_mic_dta->event =	EV_ADC_XX_BUSY;
		}

		switch (p_task_mic_dta->state)
 8003e7a:	7931      	ldrb	r1, [r6, #4]
		if (p_task_mic_dta->adc_ready)
 8003e7c:	b933      	cbnz	r3, 8003e8c <task_mic_statechart+0x1c>
 8003e7e:	f003 02ff 	and.w	r2, r3, #255	@ 0xff
		switch (p_task_mic_dta->state)
 8003e82:	2901      	cmp	r1, #1
 8003e84:	7172      	strb	r2, [r6, #5]
 8003e86:	d00a      	beq.n	8003e9e <task_mic_statechart+0x2e>
				    p_task_mic_dta->mic_flag = false;
				}
				break;
		}
	}
}
 8003e88:	e8bd 87f0 	ldmia.w	sp!, {r4, r5, r6, r7, r8, r9, sl, pc}
			p_task_mic_dta->adc_ready = 0;
 8003e8c:	2200      	movs	r2, #0
 8003e8e:	2301      	movs	r3, #1
 8003e90:	f886 20ce 	strb.w	r2, [r6, #206]	@ 0xce
 8003e94:	7173      	strb	r3, [r6, #5]
		switch (p_task_mic_dta->state)
 8003e96:	2900      	cmp	r1, #0
 8003e98:	d04d      	beq.n	8003f36 <task_mic_statechart+0xc6>
 8003e9a:	4299      	cmp	r1, r3
 8003e9c:	d1f4      	bne.n	8003e88 <task_mic_statechart+0x18>
 8003e9e:	f8df 80c4 	ldr.w	r8, [pc, #196]	@ 8003f64 <task_mic_statechart+0xf4>
}

uint32_t batch_energy(task_mic_dta_t *p_task_mic_dta)
{
    uint32_t energy = 0;
    int32_t mean = 0;
 8003ea2:	2200      	movs	r2, #0
{
 8003ea4:	4643      	mov	r3, r8
 8003ea6:	f108 0c64 	add.w	ip, r8, #100	@ 0x64

    for(int i=0;i<ADC_BATCH_SIZE;i++)
        mean += p_task_mic_dta->adc_batch[i];
 8003eaa:	f833 1f02 	ldrh.w	r1, [r3, #2]!
    for(int i=0;i<ADC_BATCH_SIZE;i++)
 8003eae:	459c      	cmp	ip, r3
        mean += p_task_mic_dta->adc_batch[i];
 8003eb0:	440a      	add	r2, r1
    for(int i=0;i<ADC_BATCH_SIZE;i++)
 8003eb2:	d1fa      	bne.n	8003eaa <task_mic_statechart+0x3a>
    uint32_t energy = 0;
 8003eb4:	2700      	movs	r7, #0

    mean /= ADC_BATCH_SIZE;
 8003eb6:	4b2c      	ldr	r3, [pc, #176]	@ (8003f68 <task_mic_statechart+0xf8>)
 8003eb8:	4d2c      	ldr	r5, [pc, #176]	@ (8003f6c <task_mic_statechart+0xfc>)
 8003eba:	fb83 1302 	smull	r1, r3, r3, r2
 8003ebe:	17d2      	asrs	r2, r2, #31
 8003ec0:	f105 0906 	add.w	r9, r5, #6
 8003ec4:	ebc2 1223 	rsb	r2, r2, r3, asr #4
    int32_t s0=0, s1=0, s2=0;
 8003ec8:	f04f 0e00 	mov.w	lr, #0
        s0 = sample + ((coeff * s1) >> Q) - s2;
 8003ecc:	4640      	mov	r0, r8
    int32_t s0=0, s1=0, s2=0;
 8003ece:	4671      	mov	r1, lr

    for(int i=0;i<NUM_TONES;i++)
    {
        energy += goertzel_energy(
 8003ed0:	f935 4b02 	ldrsh.w	r4, [r5], #2
    for(int i=0;i<N;i++)
 8003ed4:	e000      	b.n	8003ed8 <task_mic_statechart+0x68>
 8003ed6:	4619      	mov	r1, r3
        s0 = sample + ((coeff * s1) >> Q) - s2;
 8003ed8:	fb04 fa01 	mul.w	sl, r4, r1
        int32_t sample = adc[i] - mean;
 8003edc:	f830 3f02 	ldrh.w	r3, [r0, #2]!
 8003ee0:	1a9b      	subs	r3, r3, r2
        s0 = sample + ((coeff * s1) >> Q) - s2;
 8003ee2:	eb03 33aa 	add.w	r3, r3, sl, asr #14
    for(int i=0;i<N;i++)
 8003ee6:	4584      	cmp	ip, r0
        s0 = sample + ((coeff * s1) >> Q) - s2;
 8003ee8:	eba3 030e 	sub.w	r3, r3, lr
    for(int i=0;i<N;i++)
 8003eec:	468e      	mov	lr, r1
 8003eee:	d1f2      	bne.n	8003ed6 <task_mic_statechart+0x66>
        ((coeff * s1 * s2) >> Q)
 8003ef0:	fb03 f404 	mul.w	r4, r3, r4
        (s2*s2) -
 8003ef4:	fb01 f001 	mul.w	r0, r1, r1
        ((coeff * s1 * s2) >> Q)
 8003ef8:	fb01 f404 	mul.w	r4, r1, r4
        (s1*s1) +
 8003efc:	fb03 0303 	mla	r3, r3, r3, r0
    for(int i=0;i<NUM_TONES;i++)
 8003f00:	45a9      	cmp	r9, r5
        (s2*s2) -
 8003f02:	eba3 33a4 	sub.w	r3, r3, r4, asr #14
        energy += goertzel_energy(
 8003f06:	441f      	add	r7, r3
    for(int i=0;i<NUM_TONES;i++)
 8003f08:	d1de      	bne.n	8003ec8 <task_mic_statechart+0x58>
				if (energy > THRESHOLD)
 8003f0a:	4a19      	ldr	r2, [pc, #100]	@ (8003f70 <task_mic_statechart+0x100>)
				    if (p_task_mic_dta->tick < MIC_DEBOUNCE_TICKS)
 8003f0c:	6833      	ldr	r3, [r6, #0]
				if (energy > THRESHOLD)
 8003f0e:	4297      	cmp	r7, r2
 8003f10:	dd14      	ble.n	8003f3c <task_mic_statechart+0xcc>
				    if (p_task_mic_dta->tick < MIC_DEBOUNCE_TICKS)
 8003f12:	2b09      	cmp	r3, #9
 8003f14:	d803      	bhi.n	8003f1e <task_mic_statechart+0xae>
				        p_task_mic_dta->tick++;
 8003f16:	3301      	adds	r3, #1
				if (p_task_mic_dta->tick >= MIC_DEBOUNCE_TICKS &&
 8003f18:	2b0a      	cmp	r3, #10
				        p_task_mic_dta->tick++;
 8003f1a:	6033      	str	r3, [r6, #0]
				if (p_task_mic_dta->tick >= MIC_DEBOUNCE_TICKS &&
 8003f1c:	d1b4      	bne.n	8003e88 <task_mic_statechart+0x18>
 8003f1e:	f896 30cf 	ldrb.w	r3, [r6, #207]	@ 0xcf
 8003f22:	2b00      	cmp	r3, #0
 8003f24:	d1b0      	bne.n	8003e88 <task_mic_statechart+0x18>
				    put_event_task_system(p_task_mic_cfg->mic_detection);
 8003f26:	200a      	movs	r0, #10
 8003f28:	f000 fcbc 	bl	80048a4 <put_event_task_system>
				    p_task_mic_dta->mic_flag = true;
 8003f2c:	2301      	movs	r3, #1
 8003f2e:	f886 30cf 	strb.w	r3, [r6, #207]	@ 0xcf
}
 8003f32:	e8bd 87f0 	ldmia.w	sp!, {r4, r5, r6, r7, r8, r9, sl, pc}
					p_task_mic_dta->state = ST_ADC_XX_READY;
 8003f36:	7133      	strb	r3, [r6, #4]
}
 8003f38:	e8bd 87f0 	ldmia.w	sp!, {r4, r5, r6, r7, r8, r9, sl, pc}
				    if (p_task_mic_dta->tick > 0)
 8003f3c:	b12b      	cbz	r3, 8003f4a <task_mic_statechart+0xda>
				        p_task_mic_dta->tick--;
 8003f3e:	3b01      	subs	r3, #1
				if (p_task_mic_dta->tick >= MIC_DEBOUNCE_TICKS &&
 8003f40:	2b09      	cmp	r3, #9
				        p_task_mic_dta->tick--;
 8003f42:	6033      	str	r3, [r6, #0]
				if (p_task_mic_dta->tick >= MIC_DEBOUNCE_TICKS &&
 8003f44:	d8eb      	bhi.n	8003f1e <task_mic_statechart+0xae>
				else if (p_task_mic_dta->tick == 0 &&
 8003f46:	2b00      	cmp	r3, #0
 8003f48:	d19e      	bne.n	8003e88 <task_mic_statechart+0x18>
 8003f4a:	f896 30cf 	ldrb.w	r3, [r6, #207]	@ 0xcf
 8003f4e:	2b00      	cmp	r3, #0
 8003f50:	d09a      	beq.n	8003e88 <task_mic_statechart+0x18>
				    put_event_task_system(p_task_mic_cfg->mic_no_detection);
 8003f52:	200b      	movs	r0, #11
 8003f54:	f000 fca6 	bl	80048a4 <put_event_task_system>
				    p_task_mic_dta->mic_flag = false;
 8003f58:	2300      	movs	r3, #0
 8003f5a:	f886 30cf 	strb.w	r3, [r6, #207]	@ 0xcf
}
 8003f5e:	e793      	b.n	8003e88 <task_mic_statechart+0x18>
 8003f60:	200003c4 	.word	0x200003c4
 8003f64:	200003c8 	.word	0x200003c8
 8003f68:	51eb851f 	.word	0x51eb851f
 8003f6c:	200003bc 	.word	0x200003bc
 8003f70:	047868c0 	.word	0x047868c0

08003f74 <task_mic_update>:
{
 8003f74:	b538      	push	{r3, r4, r5, lr}
	__asm("CPSID i");	/* disable interrupts */
 8003f76:	b672      	cpsid	i
    if (G_TASK_SEN_TICK_CNT_INI < g_task_mic_tick_cnt)
 8003f78:	4c0b      	ldr	r4, [pc, #44]	@ (8003fa8 <task_mic_update+0x34>)
 8003f7a:	6823      	ldr	r3, [r4, #0]
 8003f7c:	b18b      	cbz	r3, 8003fa2 <task_mic_update+0x2e>
    	g_task_mic_tick_cnt--;
 8003f7e:	6823      	ldr	r3, [r4, #0]
 8003f80:	3b01      	subs	r3, #1
 8003f82:	6023      	str	r3, [r4, #0]
    __asm("CPSIE i");	/* enable interrupts */
 8003f84:	b662      	cpsie	i
    while (b_time_update_required)
 8003f86:	4d09      	ldr	r5, [pc, #36]	@ (8003fac <task_mic_update+0x38>)
		g_task_mic_cnt++;
 8003f88:	682b      	ldr	r3, [r5, #0]
 8003f8a:	3301      	adds	r3, #1
 8003f8c:	602b      	str	r3, [r5, #0]
		task_mic_statechart();
 8003f8e:	f7ff ff6f 	bl	8003e70 <task_mic_statechart>
		__asm("CPSID i");	/* disable interrupts */
 8003f92:	b672      	cpsid	i
		if (G_TASK_SEN_TICK_CNT_INI < g_task_mic_tick_cnt)
 8003f94:	6823      	ldr	r3, [r4, #0]
 8003f96:	b123      	cbz	r3, 8003fa2 <task_mic_update+0x2e>
			g_task_mic_tick_cnt--;
 8003f98:	6823      	ldr	r3, [r4, #0]
 8003f9a:	3b01      	subs	r3, #1
 8003f9c:	6023      	str	r3, [r4, #0]
		__asm("CPSIE i");	/* enable interrupts */
 8003f9e:	b662      	cpsie	i
    while (b_time_update_required)
 8003fa0:	e7f2      	b.n	8003f88 <task_mic_update+0x14>
		__asm("CPSIE i");	/* enable interrupts */
 8003fa2:	b662      	cpsie	i
}
 8003fa4:	bd38      	pop	{r3, r4, r5, pc}
 8003fa6:	bf00      	nop
 8003fa8:	200003b4 	.word	0x200003b4
 8003fac:	200003b8 	.word	0x200003b8

08003fb0 <HAL_ADC_ConvCpltCallback>:
		if(hadc->Instance == p_task_mic_cfg->adc->Instance){
 8003fb0:	4b08      	ldr	r3, [pc, #32]	@ (8003fd4 <HAL_ADC_ConvCpltCallback+0x24>)
 8003fb2:	6801      	ldr	r1, [r0, #0]
 8003fb4:	681a      	ldr	r2, [r3, #0]
 8003fb6:	4291      	cmp	r1, r2
 8003fb8:	d10b      	bne.n	8003fd2 <HAL_ADC_ConvCpltCallback+0x22>
			p_task_mic_dta->adc_ready = 1;
 8003fba:	f04f 0c01 	mov.w	ip, #1
{
 8003fbe:	b410      	push	{r4}
			p_task_mic_dta->adc_ready = 1;
 8003fc0:	4c05      	ldr	r4, [pc, #20]	@ (8003fd8 <HAL_ADC_ConvCpltCallback+0x28>)
			HAL_ADC_Start_DMA(p_task_mic_cfg->adc,
 8003fc2:	2232      	movs	r2, #50	@ 0x32
 8003fc4:	1da1      	adds	r1, r4, #6
			p_task_mic_dta->adc_ready = 1;
 8003fc6:	f884 c0ce 	strb.w	ip, [r4, #206]	@ 0xce
			HAL_ADC_Start_DMA(p_task_mic_cfg->adc,
 8003fca:	4618      	mov	r0, r3
}
 8003fcc:	bc10      	pop	{r4}
			HAL_ADC_Start_DMA(p_task_mic_cfg->adc,
 8003fce:	f7fc bde3 	b.w	8000b98 <HAL_ADC_Start_DMA>
 8003fd2:	4770      	bx	lr
 8003fd4:	20000158 	.word	0x20000158
 8003fd8:	200003c4 	.word	0x200003c4

08003fdc <task_sensor_init>:
uint32_t g_task_sensor_cnt;
volatile uint32_t g_task_sensor_tick_cnt;

/********************** external functions definition ************************/
void task_sensor_init(void *parameters)
{
 8003fdc:	e92d 4ff0 	stmdb	sp!, {r4, r5, r6, r7, r8, r9, sl, fp, lr}
 8003fe0:	b087      	sub	sp, #28
	task_sensor_dta_t *p_task_sensor_dta;
	task_sensor_st_t state;
	task_sensor_ev_t event;

	/* Print out: Task Initialized */
	LOGGER_INFO(" ");
 8003fe2:	b672      	cpsid	i
 8003fe4:	f04f 0b07 	mov.w	fp, #7
 8003fe8:	4b76      	ldr	r3, [pc, #472]	@ (80041c4 <task_sensor_init+0x1e8>)
 8003fea:	4f77      	ldr	r7, [pc, #476]	@ (80041c8 <task_sensor_init+0x1ec>)
 8003fec:	681c      	ldr	r4, [r3, #0]
 8003fee:	4d77      	ldr	r5, [pc, #476]	@ (80041cc <task_sensor_init+0x1f0>)
 8003ff0:	cf03      	ldmia	r7!, {r0, r1}
 8003ff2:	6020      	str	r0, [r4, #0]
 8003ff4:	6061      	str	r1, [r4, #4]
 8003ff6:	4620      	mov	r0, r4
 8003ff8:	f8c5 b000 	str.w	fp, [r5]
 8003ffc:	f7ff f954 	bl	80032a8 <logger_log_print_>
 8004000:	b662      	cpsie	i
 8004002:	b672      	cpsid	i
 8004004:	f04f 0801 	mov.w	r8, #1
 8004008:	4b71      	ldr	r3, [pc, #452]	@ (80041d0 <task_sensor_init+0x1f4>)
 800400a:	4620      	mov	r0, r4
 800400c:	881b      	ldrh	r3, [r3, #0]
 800400e:	8023      	strh	r3, [r4, #0]
 8004010:	f8c5 8000 	str.w	r8, [r5]
 8004014:	f7ff f948 	bl	80032a8 <logger_log_print_>
 8004018:	b662      	cpsie	i
 800401a:	b672      	cpsid	i
 800401c:	4b6d      	ldr	r3, [pc, #436]	@ (80041d4 <task_sensor_init+0x1f8>)
 800401e:	4620      	mov	r0, r4
 8004020:	f8b3 a000 	ldrh.w	sl, [r3]
 8004024:	f8a4 a000 	strh.w	sl, [r4]
 8004028:	f8c5 8000 	str.w	r8, [r5]
 800402c:	f7ff f93c 	bl	80032a8 <logger_log_print_>
 8004030:	b662      	cpsie	i
	LOGGER_INFO("  %s is running - %s", GET_NAME(task_sensor_init), p_task_sensor);
 8004032:	b672      	cpsid	i
 8004034:	f1a7 0308 	sub.w	r3, r7, #8
 8004038:	cb03      	ldmia	r3!, {r0, r1}
 800403a:	6020      	str	r0, [r4, #0]
 800403c:	6061      	str	r1, [r4, #4]
 800403e:	4620      	mov	r0, r4
 8004040:	f8c5 b000 	str.w	fp, [r5]
 8004044:	f7ff f930 	bl	80032a8 <logger_log_print_>
 8004048:	b662      	cpsie	i
 800404a:	b672      	cpsid	i
 800404c:	4b62      	ldr	r3, [pc, #392]	@ (80041d8 <task_sensor_init+0x1fc>)
 800404e:	213f      	movs	r1, #63	@ 0x3f
 8004050:	681b      	ldr	r3, [r3, #0]
 8004052:	4a62      	ldr	r2, [pc, #392]	@ (80041dc <task_sensor_init+0x200>)
 8004054:	9300      	str	r3, [sp, #0]
 8004056:	4620      	mov	r0, r4
 8004058:	4b61      	ldr	r3, [pc, #388]	@ (80041e0 <task_sensor_init+0x204>)
 800405a:	f001 f8b5 	bl	80051c8 <sniprintf>
 800405e:	6028      	str	r0, [r5, #0]
 8004060:	4620      	mov	r0, r4
 8004062:	f7ff f921 	bl	80032a8 <logger_log_print_>
 8004066:	b662      	cpsie	i
 8004068:	b672      	cpsid	i
 800406a:	f8a4 a000 	strh.w	sl, [r4]
 800406e:	4620      	mov	r0, r4
 8004070:	f8c5 8000 	str.w	r8, [r5]
 8004074:	f7ff f918 	bl	80032a8 <logger_log_print_>
 8004078:	b662      	cpsie	i
	LOGGER_INFO("  %s is a %s", GET_NAME(task_sensor), p_task_sensor_);
 800407a:	b672      	cpsid	i
 800407c:	f1a7 0308 	sub.w	r3, r7, #8
 8004080:	cb03      	ldmia	r3!, {r0, r1}
 8004082:	6020      	str	r0, [r4, #0]
 8004084:	6061      	str	r1, [r4, #4]
 8004086:	4620      	mov	r0, r4
 8004088:	f8c5 b000 	str.w	fp, [r5]
 800408c:	f7ff f90c 	bl	80032a8 <logger_log_print_>
 8004090:	b662      	cpsie	i
 8004092:	b672      	cpsid	i
 8004094:	4b53      	ldr	r3, [pc, #332]	@ (80041e4 <task_sensor_init+0x208>)
 8004096:	213f      	movs	r1, #63	@ 0x3f
 8004098:	681b      	ldr	r3, [r3, #0]
 800409a:	4a53      	ldr	r2, [pc, #332]	@ (80041e8 <task_sensor_init+0x20c>)
 800409c:	9300      	str	r3, [sp, #0]
 800409e:	4620      	mov	r0, r4
 80040a0:	4b52      	ldr	r3, [pc, #328]	@ (80041ec <task_sensor_init+0x210>)
 80040a2:	f001 f891 	bl	80051c8 <sniprintf>
 80040a6:	6028      	str	r0, [r5, #0]
 80040a8:	4620      	mov	r0, r4
 80040aa:	f7ff f8fd 	bl	80032a8 <logger_log_print_>
 80040ae:	b662      	cpsie	i
 80040b0:	b672      	cpsid	i
 80040b2:	f8a4 a000 	strh.w	sl, [r4]
 80040b6:	4620      	mov	r0, r4
 80040b8:	f8c5 8000 	str.w	r8, [r5]
 80040bc:	f7ff f8f4 	bl	80032a8 <logger_log_print_>
 80040c0:	b662      	cpsie	i

	/* Init & Print out: Task execution counter */
	g_task_sensor_cnt = G_TASK_SEN_CNT_INIT;
 80040c2:	2600      	movs	r6, #0
 80040c4:	4b4a      	ldr	r3, [pc, #296]	@ (80041f0 <task_sensor_init+0x214>)
 80040c6:	601e      	str	r6, [r3, #0]
	LOGGER_INFO("   %s = %lu", GET_NAME(g_task_sensor_cnt), g_task_sensor_cnt);
 80040c8:	b672      	cpsid	i
 80040ca:	3f08      	subs	r7, #8
 80040cc:	cf03      	ldmia	r7!, {r0, r1}
 80040ce:	6020      	str	r0, [r4, #0]
 80040d0:	6061      	str	r1, [r4, #4]
 80040d2:	4620      	mov	r0, r4
 80040d4:	f8c5 b000 	str.w	fp, [r5]
 80040d8:	f7ff f8e6 	bl	80032a8 <logger_log_print_>
 80040dc:	b662      	cpsie	i
 80040de:	b672      	cpsid	i
 80040e0:	4b43      	ldr	r3, [pc, #268]	@ (80041f0 <task_sensor_init+0x214>)
 80040e2:	213f      	movs	r1, #63	@ 0x3f
 80040e4:	681b      	ldr	r3, [r3, #0]
 80040e6:	4a43      	ldr	r2, [pc, #268]	@ (80041f4 <task_sensor_init+0x218>)
 80040e8:	9300      	str	r3, [sp, #0]
 80040ea:	4620      	mov	r0, r4
 80040ec:	4b42      	ldr	r3, [pc, #264]	@ (80041f8 <task_sensor_init+0x21c>)
 80040ee:	f001 f86b 	bl	80051c8 <sniprintf>
 80040f2:	6028      	str	r0, [r5, #0]
 80040f4:	4620      	mov	r0, r4
 80040f6:	f7ff f8d7 	bl	80032a8 <logger_log_print_>
 80040fa:	b662      	cpsie	i
 80040fc:	b672      	cpsid	i
 80040fe:	f8a4 a000 	strh.w	sl, [r4]
 8004102:	4620      	mov	r0, r4
 8004104:	f8c5 8000 	str.w	r8, [r5]
 8004108:	f7ff f8ce 	bl	80032a8 <logger_log_print_>
 800410c:	b662      	cpsie	i
		/* Update Task Sensor Data Pointer */
		p_task_sensor_dta = &task_sensor_dta_list[index];

		/* Init & Print out: Index & Task execution FSM */
		state = ST_BTN_XX_UP;
		p_task_sensor_dta->state = state;
 800410e:	f04f 0900 	mov.w	r9, #0
 8004112:	4b3a      	ldr	r3, [pc, #232]	@ (80041fc <task_sensor_init+0x220>)
 8004114:	f823 9036 	strh.w	r9, [r3, r6, lsl #3]

		event = EV_BTN_XX_UP;
		p_task_sensor_dta->event = event;

		LOGGER_INFO(" ");
 8004118:	b672      	cpsid	i
 800411a:	f04f 0b07 	mov.w	fp, #7
 800411e:	4f2a      	ldr	r7, [pc, #168]	@ (80041c8 <task_sensor_init+0x1ec>)
 8004120:	cf03      	ldmia	r7!, {r0, r1}
 8004122:	6020      	str	r0, [r4, #0]
 8004124:	6061      	str	r1, [r4, #4]
 8004126:	4620      	mov	r0, r4
 8004128:	f8c5 b000 	str.w	fp, [r5]
 800412c:	f7ff f8bc 	bl	80032a8 <logger_log_print_>
 8004130:	b662      	cpsie	i
 8004132:	b672      	cpsid	i
 8004134:	f04f 0801 	mov.w	r8, #1
 8004138:	4b25      	ldr	r3, [pc, #148]	@ (80041d0 <task_sensor_init+0x1f4>)
 800413a:	4620      	mov	r0, r4
 800413c:	881b      	ldrh	r3, [r3, #0]
 800413e:	8023      	strh	r3, [r4, #0]
 8004140:	f8c5 8000 	str.w	r8, [r5]
 8004144:	f7ff f8b0 	bl	80032a8 <logger_log_print_>
 8004148:	b662      	cpsie	i
 800414a:	b672      	cpsid	i
 800414c:	4b21      	ldr	r3, [pc, #132]	@ (80041d4 <task_sensor_init+0x1f8>)
 800414e:	4620      	mov	r0, r4
 8004150:	f8b3 a000 	ldrh.w	sl, [r3]
 8004154:	f8a4 a000 	strh.w	sl, [r4]
 8004158:	f8c5 8000 	str.w	r8, [r5]
 800415c:	f7ff f8a4 	bl	80032a8 <logger_log_print_>
 8004160:	b662      	cpsie	i
		LOGGER_INFO("   %s = %lu   %s = %lu   %s = %lu",
 8004162:	b672      	cpsid	i
 8004164:	3f08      	subs	r7, #8
 8004166:	cf03      	ldmia	r7!, {r0, r1}
 8004168:	6020      	str	r0, [r4, #0]
 800416a:	6061      	str	r1, [r4, #4]
 800416c:	4620      	mov	r0, r4
 800416e:	f8c5 b000 	str.w	fp, [r5]
 8004172:	f7ff f899 	bl	80032a8 <logger_log_print_>
 8004176:	b662      	cpsie	i
 8004178:	b672      	cpsid	i
 800417a:	4b21      	ldr	r3, [pc, #132]	@ (8004200 <task_sensor_init+0x224>)
 800417c:	213f      	movs	r1, #63	@ 0x3f
 800417e:	9303      	str	r3, [sp, #12]
 8004180:	4b20      	ldr	r3, [pc, #128]	@ (8004204 <task_sensor_init+0x228>)
 8004182:	4a21      	ldr	r2, [pc, #132]	@ (8004208 <task_sensor_init+0x22c>)
 8004184:	e9cd 6300 	strd	r6, r3, [sp]
 8004188:	4620      	mov	r0, r4
 800418a:	4b20      	ldr	r3, [pc, #128]	@ (800420c <task_sensor_init+0x230>)
 800418c:	f8cd 9010 	str.w	r9, [sp, #16]
 8004190:	f8cd 9008 	str.w	r9, [sp, #8]
 8004194:	f001 f818 	bl	80051c8 <sniprintf>
 8004198:	2324      	movs	r3, #36	@ 0x24
 800419a:	4620      	mov	r0, r4
 800419c:	602b      	str	r3, [r5, #0]
 800419e:	f7ff f883 	bl	80032a8 <logger_log_print_>
 80041a2:	b662      	cpsie	i
 80041a4:	b672      	cpsid	i
 80041a6:	f8a4 a000 	strh.w	sl, [r4]
 80041aa:	4620      	mov	r0, r4
 80041ac:	f8c5 8000 	str.w	r8, [r5]
 80041b0:	f7ff f87a 	bl	80032a8 <logger_log_print_>
 80041b4:	b662      	cpsie	i
	for (index = 0; SENSOR_DTA_QTY > index; index++)
 80041b6:	4446      	add	r6, r8
 80041b8:	2e04      	cmp	r6, #4
 80041ba:	d1a8      	bne.n	800410e <task_sensor_init+0x132>
				    GET_NAME(index), index,
					GET_NAME(state), (uint32_t)state,
					GET_NAME(event), (uint32_t)event);
	}
}
 80041bc:	b007      	add	sp, #28
 80041be:	e8bd 8ff0 	ldmia.w	sp!, {r4, r5, r6, r7, r8, r9, sl, fp, pc}
 80041c2:	bf00      	nop
 80041c4:	080064d0 	.word	0x080064d0
 80041c8:	0800615c 	.word	0x0800615c
 80041cc:	20000324 	.word	0x20000324
 80041d0:	08006164 	.word	0x08006164
 80041d4:	08006168 	.word	0x08006168
 80041d8:	2000005c 	.word	0x2000005c
 80041dc:	0800620c 	.word	0x0800620c
 80041e0:	080063c8 	.word	0x080063c8
 80041e4:	20000058 	.word	0x20000058
 80041e8:	08006238 	.word	0x08006238
 80041ec:	080063dc 	.word	0x080063dc
 80041f0:	20000498 	.word	0x20000498
 80041f4:	08006260 	.word	0x08006260
 80041f8:	080063e8 	.word	0x080063e8
 80041fc:	200004a0 	.word	0x200004a0
 8004200:	080062b0 	.word	0x080062b0
 8004204:	080062b8 	.word	0x080062b8
 8004208:	08006334 	.word	0x08006334
 800420c:	0800626c 	.word	0x0800626c

08004210 <task_sensor_statechart>:
		__asm("CPSIE i");	/* enable interrupts */
    }
}

void task_sensor_statechart(void)
{
 8004210:	b5f0      	push	{r4, r5, r6, r7, lr}
 8004212:	4c2d      	ldr	r4, [pc, #180]	@ (80042c8 <task_sensor_statechart+0xb8>)
 8004214:	4d2d      	ldr	r5, [pc, #180]	@ (80042cc <task_sensor_statechart+0xbc>)
 8004216:	b083      	sub	sp, #12
 8004218:	f104 0750 	add.w	r7, r4, #80	@ 0x50
	{
		/* Update Task Sensor Configuration & Data Pointer */
		p_task_sensor_cfg = &task_sensor_cfg_list[index];
		p_task_sensor_dta = &task_sensor_dta_list[index];

		if (p_task_sensor_cfg->pressed == HAL_GPIO_ReadPin(p_task_sensor_cfg->gpio_port, p_task_sensor_cfg->pin))
 800421c:	8921      	ldrh	r1, [r4, #8]
 800421e:	6860      	ldr	r0, [r4, #4]
 8004220:	7aa6      	ldrb	r6, [r4, #10]
 8004222:	f7fd f90b 	bl	800143c <HAL_GPIO_ReadPin>
 8004226:	1a32      	subs	r2, r6, r0
 8004228:	fab2 f282 	clz	r2, r2
		else
		{
			p_task_sensor_dta->event =	EV_BTN_XX_UP;
		}

		switch (p_task_sensor_dta->state)
 800422c:	792b      	ldrb	r3, [r5, #4]
		if (p_task_sensor_cfg->pressed == HAL_GPIO_ReadPin(p_task_sensor_cfg->gpio_port, p_task_sensor_cfg->pin))
 800422e:	0952      	lsrs	r2, r2, #5
 8004230:	716a      	strb	r2, [r5, #5]
		switch (p_task_sensor_dta->state)
 8004232:	2b03      	cmp	r3, #3
 8004234:	d843      	bhi.n	80042be <task_sensor_statechart+0xae>
 8004236:	e8df f003 	tbb	[pc, r3]
 800423a:	1d2a      	.short	0x1d2a
 800423c:	0211      	.short	0x0211

				break;

			case ST_BTN_XX_RISING:

				p_task_sensor_dta->tick--;
 800423e:	682b      	ldr	r3, [r5, #0]
 8004240:	3b01      	subs	r3, #1
 8004242:	602b      	str	r3, [r5, #0]
				if (DEL_BTN_XX_MIN == p_task_sensor_dta->tick)
 8004244:	b91b      	cbnz	r3, 800424e <task_sensor_statechart+0x3e>
				{
					if (EV_BTN_XX_UP == p_task_sensor_dta->event)
 8004246:	4286      	cmp	r6, r0
 8004248:	d12d      	bne.n	80042a6 <task_sensor_statechart+0x96>

						p_task_sensor_dta->state = ST_BTN_XX_UP;
					}
					else
					{
						p_task_sensor_dta->state = ST_BTN_XX_DOWN;
 800424a:	2302      	movs	r3, #2
 800424c:	712b      	strb	r3, [r5, #4]
	for (index = 0; SENSOR_DTA_QTY > index; index++)
 800424e:	3414      	adds	r4, #20
 8004250:	42bc      	cmp	r4, r7
 8004252:	f105 0508 	add.w	r5, r5, #8
 8004256:	d1e1      	bne.n	800421c <task_sensor_statechart+0xc>
				p_task_sensor_dta->event = EV_BTN_XX_UP;

				break;
		}
	}
}
 8004258:	b003      	add	sp, #12
 800425a:	bdf0      	pop	{r4, r5, r6, r7, pc}
				if (EV_BTN_XX_UP == p_task_sensor_dta->event)
 800425c:	4286      	cmp	r6, r0
 800425e:	d0f6      	beq.n	800424e <task_sensor_statechart+0x3e>
					p_task_sensor_dta->state = ST_BTN_XX_RISING;
 8004260:	2303      	movs	r3, #3
					p_task_sensor_dta->tick = p_task_sensor_cfg->tick_max;
 8004262:	68e2      	ldr	r2, [r4, #12]
 8004264:	602a      	str	r2, [r5, #0]
	for (index = 0; SENSOR_DTA_QTY > index; index++)
 8004266:	3414      	adds	r4, #20
 8004268:	42bc      	cmp	r4, r7
					p_task_sensor_dta->state = ST_BTN_XX_RISING;
 800426a:	712b      	strb	r3, [r5, #4]
	for (index = 0; SENSOR_DTA_QTY > index; index++)
 800426c:	f105 0508 	add.w	r5, r5, #8
 8004270:	d1d4      	bne.n	800421c <task_sensor_statechart+0xc>
 8004272:	e7f1      	b.n	8004258 <task_sensor_statechart+0x48>
				p_task_sensor_dta->tick--;
 8004274:	682b      	ldr	r3, [r5, #0]
 8004276:	3b01      	subs	r3, #1
 8004278:	602b      	str	r3, [r5, #0]
				if (DEL_BTN_XX_MIN == p_task_sensor_dta->tick)
 800427a:	2b00      	cmp	r3, #0
 800427c:	d1e7      	bne.n	800424e <task_sensor_statechart+0x3e>
					if (EV_BTN_XX_DOWN == p_task_sensor_dta->event)
 800427e:	4286      	cmp	r6, r0
 8004280:	d1f1      	bne.n	8004266 <task_sensor_statechart+0x56>
						put_event_task_system(p_task_sensor_cfg->signal_down);
 8004282:	7c60      	ldrb	r0, [r4, #17]
 8004284:	f000 fb0e 	bl	80048a4 <put_event_task_system>
						p_task_sensor_dta->state = ST_BTN_XX_DOWN;
 8004288:	2302      	movs	r3, #2
 800428a:	712b      	strb	r3, [r5, #4]
 800428c:	e7df      	b.n	800424e <task_sensor_statechart+0x3e>
				if (EV_BTN_XX_DOWN == p_task_sensor_dta->event)
 800428e:	4286      	cmp	r6, r0
 8004290:	d1dd      	bne.n	800424e <task_sensor_statechart+0x3e>
					p_task_sensor_dta->state = ST_BTN_XX_FALLING;
 8004292:	2301      	movs	r3, #1
					p_task_sensor_dta->tick = p_task_sensor_cfg->tick_max;
 8004294:	68e2      	ldr	r2, [r4, #12]
	for (index = 0; SENSOR_DTA_QTY > index; index++)
 8004296:	3414      	adds	r4, #20
 8004298:	42bc      	cmp	r4, r7
					p_task_sensor_dta->tick = p_task_sensor_cfg->tick_max;
 800429a:	602a      	str	r2, [r5, #0]
					p_task_sensor_dta->state = ST_BTN_XX_FALLING;
 800429c:	712b      	strb	r3, [r5, #4]
	for (index = 0; SENSOR_DTA_QTY > index; index++)
 800429e:	f105 0508 	add.w	r5, r5, #8
 80042a2:	d1bb      	bne.n	800421c <task_sensor_statechart+0xc>
 80042a4:	e7d8      	b.n	8004258 <task_sensor_statechart+0x48>
						put_event_task_system(p_task_sensor_cfg->signal_up);
 80042a6:	7c20      	ldrb	r0, [r4, #16]
 80042a8:	9301      	str	r3, [sp, #4]
	for (index = 0; SENSOR_DTA_QTY > index; index++)
 80042aa:	3414      	adds	r4, #20
						put_event_task_system(p_task_sensor_cfg->signal_up);
 80042ac:	f000 fafa 	bl	80048a4 <put_event_task_system>
						p_task_sensor_dta->state = ST_BTN_XX_UP;
 80042b0:	9b01      	ldr	r3, [sp, #4]
	for (index = 0; SENSOR_DTA_QTY > index; index++)
 80042b2:	42bc      	cmp	r4, r7
						p_task_sensor_dta->state = ST_BTN_XX_UP;
 80042b4:	712b      	strb	r3, [r5, #4]
	for (index = 0; SENSOR_DTA_QTY > index; index++)
 80042b6:	f105 0508 	add.w	r5, r5, #8
 80042ba:	d1af      	bne.n	800421c <task_sensor_statechart+0xc>
 80042bc:	e7cc      	b.n	8004258 <task_sensor_statechart+0x48>
				p_task_sensor_dta->tick  = DEL_BTN_XX_MIN;
 80042be:	2300      	movs	r3, #0
 80042c0:	602b      	str	r3, [r5, #0]
				p_task_sensor_dta->state = ST_BTN_XX_UP;
 80042c2:	80ab      	strh	r3, [r5, #4]
				break;
 80042c4:	e7c3      	b.n	800424e <task_sensor_statechart+0x3e>
 80042c6:	bf00      	nop
 80042c8:	0800652c 	.word	0x0800652c
 80042cc:	2000049c 	.word	0x2000049c

080042d0 <task_sensor_update>:
{
 80042d0:	b538      	push	{r3, r4, r5, lr}
	__asm("CPSID i");	/* disable interrupts */
 80042d2:	b672      	cpsid	i
    if (G_TASK_SEN_TICK_CNT_INI < g_task_sensor_tick_cnt)
 80042d4:	4c0b      	ldr	r4, [pc, #44]	@ (8004304 <task_sensor_update+0x34>)
 80042d6:	6823      	ldr	r3, [r4, #0]
 80042d8:	b18b      	cbz	r3, 80042fe <task_sensor_update+0x2e>
    	g_task_sensor_tick_cnt--;
 80042da:	6823      	ldr	r3, [r4, #0]
 80042dc:	3b01      	subs	r3, #1
 80042de:	6023      	str	r3, [r4, #0]
    __asm("CPSIE i");	/* enable interrupts */
 80042e0:	b662      	cpsie	i
    while (b_time_update_required)
 80042e2:	4d09      	ldr	r5, [pc, #36]	@ (8004308 <task_sensor_update+0x38>)
		g_task_sensor_cnt++;
 80042e4:	682b      	ldr	r3, [r5, #0]
 80042e6:	3301      	adds	r3, #1
 80042e8:	602b      	str	r3, [r5, #0]
    	task_sensor_statechart();
 80042ea:	f7ff ff91 	bl	8004210 <task_sensor_statechart>
		__asm("CPSID i");	/* disable interrupts */
 80042ee:	b672      	cpsid	i
		if (G_TASK_SEN_TICK_CNT_INI < g_task_sensor_tick_cnt)
 80042f0:	6823      	ldr	r3, [r4, #0]
 80042f2:	b123      	cbz	r3, 80042fe <task_sensor_update+0x2e>
			g_task_sensor_tick_cnt--;
 80042f4:	6823      	ldr	r3, [r4, #0]
 80042f6:	3b01      	subs	r3, #1
 80042f8:	6023      	str	r3, [r4, #0]
		__asm("CPSIE i");	/* enable interrupts */
 80042fa:	b662      	cpsie	i
    while (b_time_update_required)
 80042fc:	e7f2      	b.n	80042e4 <task_sensor_update+0x14>
		__asm("CPSIE i");	/* enable interrupts */
 80042fe:	b662      	cpsie	i
}
 8004300:	bd38      	pop	{r3, r4, r5, pc}
 8004302:	bf00      	nop
 8004304:	20000494 	.word	0x20000494
 8004308:	20000498 	.word	0x20000498

0800430c <task_system_init>:
uint32_t g_task_system_cnt;
volatile uint32_t g_task_system_tick_cnt;

/********************** external functions definition ************************/
void task_system_init(void *parameters)
{
 800430c:	e92d 4ff0 	stmdb	sp!, {r4, r5, r6, r7, r8, r9, sl, fp, lr}
 8004310:	b087      	sub	sp, #28
	task_system_st_t	state;
	task_system_ev_t	event;
	bool b_event;

	/* Print out: Task Initialized */
	LOGGER_INFO(" ");
 8004312:	b672      	cpsid	i
 8004314:	4e6f      	ldr	r6, [pc, #444]	@ (80044d4 <task_system_init+0x1c8>)
 8004316:	f04f 0907 	mov.w	r9, #7
 800431a:	4633      	mov	r3, r6
 800431c:	4a6e      	ldr	r2, [pc, #440]	@ (80044d8 <task_system_init+0x1cc>)
 800431e:	4d6f      	ldr	r5, [pc, #444]	@ (80044dc <task_system_init+0x1d0>)
 8004320:	6814      	ldr	r4, [r2, #0]
 8004322:	cb03      	ldmia	r3!, {r0, r1}
 8004324:	6020      	str	r0, [r4, #0]
 8004326:	6061      	str	r1, [r4, #4]
 8004328:	4620      	mov	r0, r4
 800432a:	f8c5 9000 	str.w	r9, [r5]
 800432e:	f7fe ffbb 	bl	80032a8 <logger_log_print_>
 8004332:	b662      	cpsie	i
 8004334:	b672      	cpsid	i
 8004336:	2701      	movs	r7, #1
 8004338:	4b69      	ldr	r3, [pc, #420]	@ (80044e0 <task_system_init+0x1d4>)
 800433a:	4620      	mov	r0, r4
 800433c:	f8b3 b000 	ldrh.w	fp, [r3]
 8004340:	f8a4 b000 	strh.w	fp, [r4]
 8004344:	602f      	str	r7, [r5, #0]
 8004346:	f7fe ffaf 	bl	80032a8 <logger_log_print_>
 800434a:	b662      	cpsie	i
 800434c:	b672      	cpsid	i
 800434e:	4b65      	ldr	r3, [pc, #404]	@ (80044e4 <task_system_init+0x1d8>)
 8004350:	4620      	mov	r0, r4
 8004352:	f8b3 8000 	ldrh.w	r8, [r3]
 8004356:	f8a4 8000 	strh.w	r8, [r4]
 800435a:	602f      	str	r7, [r5, #0]
 800435c:	f7fe ffa4 	bl	80032a8 <logger_log_print_>
 8004360:	b662      	cpsie	i
	LOGGER_INFO("  %s is running - %s", GET_NAME(task_system_init), p_task_system);
 8004362:	b672      	cpsid	i
 8004364:	4633      	mov	r3, r6
 8004366:	cb03      	ldmia	r3!, {r0, r1}
 8004368:	6020      	str	r0, [r4, #0]
 800436a:	6061      	str	r1, [r4, #4]
 800436c:	4620      	mov	r0, r4
 800436e:	f8c5 9000 	str.w	r9, [r5]
 8004372:	f7fe ff99 	bl	80032a8 <logger_log_print_>
 8004376:	b662      	cpsie	i
 8004378:	b672      	cpsid	i
 800437a:	4b5b      	ldr	r3, [pc, #364]	@ (80044e8 <task_system_init+0x1dc>)
 800437c:	213f      	movs	r1, #63	@ 0x3f
 800437e:	681b      	ldr	r3, [r3, #0]
 8004380:	4a5a      	ldr	r2, [pc, #360]	@ (80044ec <task_system_init+0x1e0>)
 8004382:	9300      	str	r3, [sp, #0]
 8004384:	4620      	mov	r0, r4
 8004386:	4b5a      	ldr	r3, [pc, #360]	@ (80044f0 <task_system_init+0x1e4>)
 8004388:	f000 ff1e 	bl	80051c8 <sniprintf>
 800438c:	6028      	str	r0, [r5, #0]
 800438e:	4620      	mov	r0, r4
 8004390:	f7fe ff8a 	bl	80032a8 <logger_log_print_>
 8004394:	b662      	cpsie	i
 8004396:	b672      	cpsid	i
 8004398:	f8a4 8000 	strh.w	r8, [r4]
 800439c:	4620      	mov	r0, r4
 800439e:	602f      	str	r7, [r5, #0]
 80043a0:	f7fe ff82 	bl	80032a8 <logger_log_print_>
 80043a4:	b662      	cpsie	i
	LOGGER_INFO("  %s is a %s", GET_NAME(task_system), p_task_system_);
 80043a6:	b672      	cpsid	i
 80043a8:	4633      	mov	r3, r6
 80043aa:	cb03      	ldmia	r3!, {r0, r1}
 80043ac:	6020      	str	r0, [r4, #0]
 80043ae:	6061      	str	r1, [r4, #4]
 80043b0:	4620      	mov	r0, r4
 80043b2:	f8c5 9000 	str.w	r9, [r5]
 80043b6:	f7fe ff77 	bl	80032a8 <logger_log_print_>
 80043ba:	b662      	cpsie	i
 80043bc:	b672      	cpsid	i
 80043be:	4b4d      	ldr	r3, [pc, #308]	@ (80044f4 <task_system_init+0x1e8>)
 80043c0:	213f      	movs	r1, #63	@ 0x3f
 80043c2:	681b      	ldr	r3, [r3, #0]
 80043c4:	4a4c      	ldr	r2, [pc, #304]	@ (80044f8 <task_system_init+0x1ec>)
 80043c6:	9300      	str	r3, [sp, #0]
 80043c8:	4620      	mov	r0, r4
 80043ca:	4b4c      	ldr	r3, [pc, #304]	@ (80044fc <task_system_init+0x1f0>)
 80043cc:	f000 fefc 	bl	80051c8 <sniprintf>
 80043d0:	6028      	str	r0, [r5, #0]
 80043d2:	4620      	mov	r0, r4
 80043d4:	f7fe ff68 	bl	80032a8 <logger_log_print_>
 80043d8:	b662      	cpsie	i
 80043da:	b672      	cpsid	i
 80043dc:	f8a4 8000 	strh.w	r8, [r4]
 80043e0:	4620      	mov	r0, r4
 80043e2:	602f      	str	r7, [r5, #0]
 80043e4:	f7fe ff60 	bl	80032a8 <logger_log_print_>
 80043e8:	b662      	cpsie	i

	/* Init & Print out: Task execution counter */
	g_task_system_cnt = G_TASK_SYS_CNT_INI;
 80043ea:	f04f 0a00 	mov.w	sl, #0
 80043ee:	4a44      	ldr	r2, [pc, #272]	@ (8004500 <task_system_init+0x1f4>)
 80043f0:	f8c2 a000 	str.w	sl, [r2]
	LOGGER_INFO("   %s = %lu", GET_NAME(g_task_system_cnt), g_task_system_cnt);
 80043f4:	b672      	cpsid	i
 80043f6:	4633      	mov	r3, r6
 80043f8:	cb03      	ldmia	r3!, {r0, r1}
 80043fa:	6020      	str	r0, [r4, #0]
 80043fc:	6061      	str	r1, [r4, #4]
 80043fe:	4620      	mov	r0, r4
 8004400:	f8c5 9000 	str.w	r9, [r5]
 8004404:	f7fe ff50 	bl	80032a8 <logger_log_print_>
 8004408:	b662      	cpsie	i
 800440a:	b672      	cpsid	i
 800440c:	4a3c      	ldr	r2, [pc, #240]	@ (8004500 <task_system_init+0x1f4>)
 800440e:	213f      	movs	r1, #63	@ 0x3f
 8004410:	6813      	ldr	r3, [r2, #0]
 8004412:	4620      	mov	r0, r4
 8004414:	4a3b      	ldr	r2, [pc, #236]	@ (8004504 <task_system_init+0x1f8>)
 8004416:	9300      	str	r3, [sp, #0]
 8004418:	4b3b      	ldr	r3, [pc, #236]	@ (8004508 <task_system_init+0x1fc>)
 800441a:	f000 fed5 	bl	80051c8 <sniprintf>
 800441e:	6028      	str	r0, [r5, #0]
 8004420:	4620      	mov	r0, r4
 8004422:	f7fe ff41 	bl	80032a8 <logger_log_print_>
 8004426:	b662      	cpsie	i
 8004428:	b672      	cpsid	i
 800442a:	f8a4 8000 	strh.w	r8, [r4]
 800442e:	4620      	mov	r0, r4
 8004430:	602f      	str	r7, [r5, #0]
 8004432:	f7fe ff39 	bl	80032a8 <logger_log_print_>
 8004436:	b662      	cpsie	i

	init_queue_event_task_system();
 8004438:	f000 fa22 	bl	8004880 <init_queue_event_task_system>
	/* Update Task Actuator Configuration & Data Pointer */
	p_task_system_dta = &task_system_dta;

	/* Init & Print out: Task execution FSM */
	state = ST_SYS_WAITING_CONNECTION;
	p_task_system_dta->state = state;
 800443c:	f44f 7280 	mov.w	r2, #256	@ 0x100
 8004440:	4b32      	ldr	r3, [pc, #200]	@ (800450c <task_system_init+0x200>)
 8004442:	809a      	strh	r2, [r3, #4]

	event = EV_SYS_CONNECTION_LOST;
	p_task_system_dta->event = event;

	b_event = false;
	p_task_system_dta->flag = b_event;
 8004444:	f883 a019 	strb.w	sl, [r3, #25]


	LOGGER_INFO(" ");
 8004448:	b672      	cpsid	i
 800444a:	4633      	mov	r3, r6
 800444c:	cb03      	ldmia	r3!, {r0, r1}
 800444e:	6020      	str	r0, [r4, #0]
 8004450:	6061      	str	r1, [r4, #4]
 8004452:	4620      	mov	r0, r4
 8004454:	f8c5 9000 	str.w	r9, [r5]
 8004458:	f7fe ff26 	bl	80032a8 <logger_log_print_>
 800445c:	b662      	cpsie	i
 800445e:	b672      	cpsid	i
 8004460:	f8a4 b000 	strh.w	fp, [r4]
 8004464:	4620      	mov	r0, r4
 8004466:	602f      	str	r7, [r5, #0]
 8004468:	f7fe ff1e 	bl	80032a8 <logger_log_print_>
 800446c:	b662      	cpsie	i
 800446e:	b672      	cpsid	i
 8004470:	f8a4 8000 	strh.w	r8, [r4]
 8004474:	4620      	mov	r0, r4
 8004476:	602f      	str	r7, [r5, #0]
 8004478:	f7fe ff16 	bl	80032a8 <logger_log_print_>
 800447c:	b662      	cpsie	i
	LOGGER_INFO("   %s = %lu   %s = %lu   %s = %s",
 800447e:	b672      	cpsid	i
 8004480:	ce03      	ldmia	r6!, {r0, r1}
 8004482:	6020      	str	r0, [r4, #0]
 8004484:	6061      	str	r1, [r4, #4]
 8004486:	4620      	mov	r0, r4
 8004488:	f8c5 9000 	str.w	r9, [r5]
 800448c:	f7fe ff0c 	bl	80032a8 <logger_log_print_>
 8004490:	b662      	cpsie	i
 8004492:	b672      	cpsid	i
 8004494:	4a1e      	ldr	r2, [pc, #120]	@ (8004510 <task_system_init+0x204>)
 8004496:	213f      	movs	r1, #63	@ 0x3f
 8004498:	9204      	str	r2, [sp, #16]
 800449a:	4a1e      	ldr	r2, [pc, #120]	@ (8004514 <task_system_init+0x208>)
 800449c:	4620      	mov	r0, r4
 800449e:	9203      	str	r2, [sp, #12]
 80044a0:	4a1d      	ldr	r2, [pc, #116]	@ (8004518 <task_system_init+0x20c>)
 80044a2:	4b1e      	ldr	r3, [pc, #120]	@ (800451c <task_system_init+0x210>)
 80044a4:	9201      	str	r2, [sp, #4]
 80044a6:	f8cd a000 	str.w	sl, [sp]
 80044aa:	4a1d      	ldr	r2, [pc, #116]	@ (8004520 <task_system_init+0x214>)
 80044ac:	9702      	str	r7, [sp, #8]
 80044ae:	f000 fe8b 	bl	80051c8 <sniprintf>
 80044b2:	232a      	movs	r3, #42	@ 0x2a
 80044b4:	4620      	mov	r0, r4
 80044b6:	602b      	str	r3, [r5, #0]
 80044b8:	f7fe fef6 	bl	80032a8 <logger_log_print_>
 80044bc:	b662      	cpsie	i
 80044be:	b672      	cpsid	i
 80044c0:	f8a4 8000 	strh.w	r8, [r4]
 80044c4:	4620      	mov	r0, r4
 80044c6:	602f      	str	r7, [r5, #0]
 80044c8:	f7fe feee 	bl	80032a8 <logger_log_print_>
 80044cc:	b662      	cpsie	i
				 GET_NAME(state), (uint32_t)state,
				 GET_NAME(event), (uint32_t)event,
				 GET_NAME(b_event), (b_event ? "true" : "false"));
}
 80044ce:	b007      	add	sp, #28
 80044d0:	e8bd 8ff0 	ldmia.w	sp!, {r4, r5, r6, r7, r8, r9, sl, fp, pc}
 80044d4:	0800615c 	.word	0x0800615c
 80044d8:	080064d0 	.word	0x080064d0
 80044dc:	20000324 	.word	0x20000324
 80044e0:	08006164 	.word	0x08006164
 80044e4:	08006168 	.word	0x08006168
 80044e8:	20000064 	.word	0x20000064
 80044ec:	0800620c 	.word	0x0800620c
 80044f0:	0800641c 	.word	0x0800641c
 80044f4:	20000060 	.word	0x20000060
 80044f8:	08006238 	.word	0x08006238
 80044fc:	08006430 	.word	0x08006430
 8004500:	200004c0 	.word	0x200004c0
 8004504:	08006260 	.word	0x08006260
 8004508:	0800643c 	.word	0x0800643c
 800450c:	20000068 	.word	0x20000068
 8004510:	080062a0 	.word	0x080062a0
 8004514:	080062a8 	.word	0x080062a8
 8004518:	080062b0 	.word	0x080062b0
 800451c:	080062b8 	.word	0x080062b8
 8004520:	08006450 	.word	0x08006450

08004524 <velocity_management>:
			break;
	}
}

void velocity_management(task_system_dta_t* p_task_system_dta){
	switch(p_task_system_dta->event){
 8004524:	7942      	ldrb	r2, [r0, #5]
 8004526:	2a07      	cmp	r2, #7
 8004528:	d80e      	bhi.n	8004548 <velocity_management+0x24>
 800452a:	2301      	movs	r3, #1
 800452c:	4093      	lsls	r3, r2
 800452e:	f013 0fa8 	tst.w	r3, #168	@ 0xa8
 8004532:	d106      	bne.n	8004542 <velocity_management+0x1e>
 8004534:	f013 0f54 	tst.w	r3, #84	@ 0x54
 8004538:	d006      	beq.n	8004548 <velocity_management+0x24>
		case EV_SYS_VELOCITY1_ON:
			p_task_system_dta->WPM_period += VELOCITY1;
 800453a:	6903      	ldr	r3, [r0, #16]
 800453c:	3346      	adds	r3, #70	@ 0x46
 800453e:	6103      	str	r3, [r0, #16]
			break;
 8004540:	4770      	bx	lr
		case EV_SYS_VELOCITY1_OFF:
			p_task_system_dta->WPM_period -= VELOCITY1;
 8004542:	6903      	ldr	r3, [r0, #16]
 8004544:	3b46      	subs	r3, #70	@ 0x46
 8004546:	6103      	str	r3, [r0, #16]
			p_task_system_dta->WPM_period -= VELOCITY3;
			break;
		default:
			break;
	}
}
 8004548:	4770      	bx	lr
 800454a:	bf00      	nop

0800454c <task_system_statechart>:
{
 800454c:	b570      	push	{r4, r5, r6, lr}
	if (true == any_event_task_system())
 800454e:	f000 f9fb 	bl	8004948 <any_event_task_system>
 8004552:	b9a0      	cbnz	r0, 800457e <task_system_statechart+0x32>
 8004554:	4cb8      	ldr	r4, [pc, #736]	@ (8004838 <task_system_statechart+0x2ec>)
	switch (p_task_system_dta->state)
 8004556:	7923      	ldrb	r3, [r4, #4]
 8004558:	2b04      	cmp	r3, #4
 800455a:	d80f      	bhi.n	800457c <task_system_statechart+0x30>
 800455c:	e8df f003 	tbb	[pc, r3]
 8004560:	554c2b03 	.word	0x554c2b03
 8004564:	16          	.byte	0x16
 8004565:	00          	.byte	0x00
			if(p_task_system_dta->flag == true && p_task_system_dta->event == EV_SYS_CONNECTION_ESTABLISHED){
 8004566:	7e63      	ldrb	r3, [r4, #25]
 8004568:	b133      	cbz	r3, 8004578 <task_system_statechart+0x2c>
 800456a:	7965      	ldrb	r5, [r4, #5]
 800456c:	2d00      	cmp	r5, #0
 800456e:	f000 8116 	beq.w	800479e <task_system_statechart+0x252>
			if(p_task_system_dta->flag) {velocity_management(p_task_system_dta);}
 8004572:	48b1      	ldr	r0, [pc, #708]	@ (8004838 <task_system_statechart+0x2ec>)
 8004574:	f7ff ffd6 	bl	8004524 <velocity_management>
			p_task_system_dta->flag = false;
 8004578:	2300      	movs	r3, #0
 800457a:	7663      	strb	r3, [r4, #25]
}
 800457c:	bd70      	pop	{r4, r5, r6, pc}
		p_task_system_dta->flag = true;
 800457e:	2301      	movs	r3, #1
 8004580:	4cad      	ldr	r4, [pc, #692]	@ (8004838 <task_system_statechart+0x2ec>)
 8004582:	7663      	strb	r3, [r4, #25]
		p_task_system_dta->event = get_event_task_system();
 8004584:	f000 f9b2 	bl	80048ec <get_event_task_system>
 8004588:	7160      	strb	r0, [r4, #5]
 800458a:	e7e4      	b.n	8004556 <task_system_statechart+0xa>
			if(p_task_system_dta->WPM_tick >= p_task_system_dta->WPM_period){
 800458c:	e9d4 2304 	ldrd	r2, r3, [r4, #16]
			p_task_system_dta->WPM_tick++;
 8004590:	3301      	adds	r3, #1
			if(p_task_system_dta->WPM_tick >= p_task_system_dta->WPM_period){
 8004592:	4293      	cmp	r3, r2
				p_task_system_dta->tick--;
 8004594:	6820      	ldr	r0, [r4, #0]
			p_task_system_dta->WPM_tick++;
 8004596:	6163      	str	r3, [r4, #20]
			if(p_task_system_dta->WPM_tick >= p_task_system_dta->WPM_period){
 8004598:	f0c0 8099 	bcc.w	80046ce <task_system_statechart+0x182>
				p_task_system_dta->WPM_tick = 0;
 800459c:	2300      	movs	r3, #0
 800459e:	6163      	str	r3, [r4, #20]
				p_task_system_dta->WPM_flag = false;
 80045a0:	2300      	movs	r3, #0
				p_task_system_dta->tick--;
 80045a2:	3801      	subs	r0, #1
 80045a4:	6020      	str	r0, [r4, #0]
				p_task_system_dta->WPM_flag = false;
 80045a6:	7623      	strb	r3, [r4, #24]
			if(p_task_system_dta->tick == 0){
 80045a8:	2800      	cmp	r0, #0
 80045aa:	f000 80b1 	beq.w	8004710 <task_system_statechart+0x1c4>
			if(p_task_system_dta->flag) {velocity_management(p_task_system_dta);}
 80045ae:	7e63      	ldrb	r3, [r4, #25]
 80045b0:	2b00      	cmp	r3, #0
 80045b2:	d0e1      	beq.n	8004578 <task_system_statechart+0x2c>
 80045b4:	e7dd      	b.n	8004572 <task_system_statechart+0x26>
		    if(any_message_task_system()){
 80045b6:	f000 f9d1 	bl	800495c <any_message_task_system>
 80045ba:	2800      	cmp	r0, #0
 80045bc:	f040 80a4 	bne.w	8004708 <task_system_statechart+0x1bc>
	char message = NULL_MESSAGE;
 80045c0:	4605      	mov	r5, r0
		    if(p_task_system_dta->event == EV_SYS_MIC_INPUT_ON){
 80045c2:	7963      	ldrb	r3, [r4, #5]
 80045c4:	2b0a      	cmp	r3, #10
 80045c6:	f000 80da 	beq.w	800477e <task_system_statechart+0x232>
		    }else if(p_task_system_dta->event == EV_SYS_MIC_INPUT_OFF){
 80045ca:	2b0b      	cmp	r3, #11
 80045cc:	f000 80fd 	beq.w	80047ca <task_system_statechart+0x27e>
		    if(p_task_system_dta->event == EV_SYS_BTN_INPUT_OFF){
 80045d0:	2b09      	cmp	r3, #9
 80045d2:	d046      	beq.n	8004662 <task_system_statechart+0x116>
		    }else if(p_task_system_dta->event == EV_SYS_BTN_INPUT_ON){
 80045d4:	2b08      	cmp	r3, #8
 80045d6:	f000 80ed 	beq.w	80047b4 <task_system_statechart+0x268>
		        : LOW_SIGNAL;
 80045da:	7ee3      	ldrb	r3, [r4, #27]
 80045dc:	2b00      	cmp	r3, #0
 80045de:	d146      	bne.n	800466e <task_system_statechart+0x122>
 80045e0:	7f23      	ldrb	r3, [r4, #28]
 80045e2:	2b00      	cmp	r3, #0
 80045e4:	d143      	bne.n	800466e <task_system_statechart+0x122>
		    if(new_state != p_task_system_dta->input_signal){
 80045e6:	7ea3      	ldrb	r3, [r4, #26]
 80045e8:	2b00      	cmp	r3, #0
 80045ea:	d047      	beq.n	800467c <task_system_statechart+0x130>
		    	p_task_system_dta->input_signal = new_state;
 80045ec:	2300      	movs	r3, #0
		            put_tx_message_task_HC05(LOW_SIGNAL_SYMBOL);
 80045ee:	2030      	movs	r0, #48	@ 0x30
		    	p_task_system_dta->input_signal = new_state;
 80045f0:	76a3      	strb	r3, [r4, #26]
		            put_tx_message_task_HC05(LOW_SIGNAL_SYMBOL);
 80045f2:	f7ff fae7 	bl	8003bc4 <put_tx_message_task_HC05>
 80045f6:	e041      	b.n	800467c <task_system_statechart+0x130>
			if(any_message_task_system()){
 80045f8:	f000 f9b0 	bl	800495c <any_message_task_system>
 80045fc:	2800      	cmp	r0, #0
 80045fe:	d170      	bne.n	80046e2 <task_system_statechart+0x196>
			if(p_task_system_dta->flag == true && p_task_system_dta->event == EV_SYS_CONNECTION_LOST){
 8004600:	7e63      	ldrb	r3, [r4, #25]
 8004602:	2b00      	cmp	r3, #0
 8004604:	d15c      	bne.n	80046c0 <task_system_statechart+0x174>
			p_task_system_dta->WPM_flag = false;
 8004606:	7623      	strb	r3, [r4, #24]
			if(p_task_system_dta->flag) {velocity_management(p_task_system_dta);}
 8004608:	e7b6      	b.n	8004578 <task_system_statechart+0x2c>
			if(p_task_system_dta->WPM_tick >= p_task_system_dta->WPM_period){
 800460a:	e9d4 2304 	ldrd	r2, r3, [r4, #16]
			p_task_system_dta->WPM_tick++;
 800460e:	3301      	adds	r3, #1
			if(p_task_system_dta->WPM_tick >= p_task_system_dta->WPM_period){
 8004610:	4293      	cmp	r3, r2
			p_task_system_dta->WPM_tick++;
 8004612:	6163      	str	r3, [r4, #20]
			if(p_task_system_dta->WPM_tick >= p_task_system_dta->WPM_period){
 8004614:	d360      	bcc.n	80046d8 <task_system_statechart+0x18c>
				p_task_system_dta->WPM_flag = true;
 8004616:	2201      	movs	r2, #1
				p_task_system_dta->WPM_tick = 0;
 8004618:	2300      	movs	r3, #0
				p_task_system_dta->WPM_flag = true;
 800461a:	7622      	strb	r2, [r4, #24]
				p_task_system_dta->WPM_tick = 0;
 800461c:	6163      	str	r3, [r4, #20]
				if(p_task_system_dta->morse_character_tick %2 && p_task_system_dta->morse_character.len*2 - 1 >  p_task_system_dta->morse_character_tick){
 800461e:	79e2      	ldrb	r2, [r4, #7]
 8004620:	7ba3      	ldrb	r3, [r4, #14]
 8004622:	0052      	lsls	r2, r2, #1
 8004624:	f013 0001 	ands.w	r0, r3, #1
 8004628:	f102 32ff 	add.w	r2, r2, #4294967295
 800462c:	d176      	bne.n	800471c <task_system_statechart+0x1d0>
				} else if(p_task_system_dta->morse_character.len*2 - 1 >  p_task_system_dta->morse_character_tick){
 800462e:	429a      	cmp	r2, r3
 8004630:	f340 80ad 	ble.w	800478e <task_system_statechart+0x242>
					if(p_task_system_dta->morse_character.morse_sequence[p_task_system_dta->morse_character_tick/2] == DOT){
 8004634:	eb04 0353 	add.w	r3, r4, r3, lsr #1
 8004638:	7a1b      	ldrb	r3, [r3, #8]
						put_event_task_GPIO_output(EV_GPIO_XX_ON , ID_BUZZER);
 800463a:	2103      	movs	r1, #3
					if(p_task_system_dta->morse_character.morse_sequence[p_task_system_dta->morse_character_tick/2] == DOT){
 800463c:	2b00      	cmp	r3, #0
 800463e:	f000 80eb 	beq.w	8004818 <task_system_statechart+0x2cc>
					}else if (p_task_system_dta->morse_character.morse_sequence[p_task_system_dta->morse_character_tick/2] == LINE){
 8004642:	2b01      	cmp	r3, #1
 8004644:	f000 80f2 	beq.w	800482c <task_system_statechart+0x2e0>
						put_event_task_GPIO_output(EV_GPIO_XX_OFF , ID_BUZZER);
 8004648:	f7ff f8d6 	bl	80037f8 <put_event_task_GPIO_output>
 800464c:	2106      	movs	r1, #6
						p_task_system_dta->state = ST_SYS_TRANSMITTING_WAIT;
 800464e:	2204      	movs	r2, #4
					p_task_system_dta->morse_character_tick++;
 8004650:	7ba3      	ldrb	r3, [r4, #14]
						p_task_system_dta->tick = DOT_LEN;
 8004652:	6021      	str	r1, [r4, #0]
					p_task_system_dta->morse_character_tick++;
 8004654:	3301      	adds	r3, #1
 8004656:	b2db      	uxtb	r3, r3
						p_task_system_dta->state = ST_SYS_TRANSMITTING_WAIT;
 8004658:	7122      	strb	r2, [r4, #4]
				p_task_system_dta->WPM_flag = false;
 800465a:	2200      	movs	r2, #0
					p_task_system_dta->morse_character_tick++;
 800465c:	73a3      	strb	r3, [r4, #14]
				p_task_system_dta->WPM_flag = false;
 800465e:	7622      	strb	r2, [r4, #24]
 8004660:	e7a5      	b.n	80045ae <task_system_statechart+0x62>
		        put_event_task_GPIO_output(EV_GPIO_XX_ON, ID_BUZZER);
 8004662:	2103      	movs	r1, #3
 8004664:	2001      	movs	r0, #1
 8004666:	f7ff f8c7 	bl	80037f8 <put_event_task_GPIO_output>
		        p_task_system_dta->input_btn = HIGH_SIGNAL;
 800466a:	2301      	movs	r3, #1
 800466c:	7723      	strb	r3, [r4, #28]
		    if(new_state != p_task_system_dta->input_signal){
 800466e:	7ea3      	ldrb	r3, [r4, #26]
 8004670:	b923      	cbnz	r3, 800467c <task_system_statechart+0x130>
		    	p_task_system_dta->input_signal = new_state;
 8004672:	2301      	movs	r3, #1
		            put_tx_message_task_HC05(HIGH_SIGNAL_SYMBOL);
 8004674:	2031      	movs	r0, #49	@ 0x31
		    	p_task_system_dta->input_signal = new_state;
 8004676:	76a3      	strb	r3, [r4, #26]
		            put_tx_message_task_HC05(HIGH_SIGNAL_SYMBOL);
 8004678:	f7ff faa4 	bl	8003bc4 <put_tx_message_task_HC05>
			if(message == TRANSMIT_CODE){
 800467c:	2d23      	cmp	r5, #35	@ 0x23
 800467e:	d069      	beq.n	8004754 <task_system_statechart+0x208>
			if(p_task_system_dta->flag == true && p_task_system_dta->event == EV_SYS_CONNECTION_LOST){
 8004680:	7e63      	ldrb	r3, [r4, #25]
 8004682:	2b00      	cmp	r3, #0
 8004684:	f43f af78 	beq.w	8004578 <task_system_statechart+0x2c>
 8004688:	7965      	ldrb	r5, [r4, #5]
 800468a:	2d01      	cmp	r5, #1
 800468c:	f47f af71 	bne.w	8004572 <task_system_statechart+0x26>
				p_task_system_dta->state = ST_SYS_WAITING_CONNECTION;
 8004690:	2600      	movs	r6, #0
				put_event_task_GPIO_output(EV_GPIO_XX_BLINK, ID_LED_RECEIVE);
 8004692:	2003      	movs	r0, #3
 8004694:	4631      	mov	r1, r6
				p_task_system_dta->state = ST_SYS_WAITING_CONNECTION;
 8004696:	7126      	strb	r6, [r4, #4]
				p_task_system_dta->tick = DEL_SYS_MIN;
 8004698:	6026      	str	r6, [r4, #0]
				put_event_task_GPIO_output(EV_GPIO_XX_BLINK, ID_LED_RECEIVE);
 800469a:	f7ff f8ad 	bl	80037f8 <put_event_task_GPIO_output>
				put_event_task_GPIO_output(EV_GPIO_XX_BLINK, ID_LED_TRANSMIT);
 800469e:	4629      	mov	r1, r5
 80046a0:	2003      	movs	r0, #3
 80046a2:	f7ff f8a9 	bl	80037f8 <put_event_task_GPIO_output>
				put_event_task_GPIO_output(EV_GPIO_XX_OFF, ID_LED_ERROR);
 80046a6:	2102      	movs	r1, #2
 80046a8:	4630      	mov	r0, r6
 80046aa:	f7ff f8a5 	bl	80037f8 <put_event_task_GPIO_output>
				put_event_task_GPIO_output(EV_GPIO_XX_OFF, ID_BUZZER);
 80046ae:	2103      	movs	r1, #3
 80046b0:	4630      	mov	r0, r6
 80046b2:	f7ff f8a1 	bl	80037f8 <put_event_task_GPIO_output>
			if(p_task_system_dta->flag) {velocity_management(p_task_system_dta);}
 80046b6:	7e63      	ldrb	r3, [r4, #25]
 80046b8:	2b00      	cmp	r3, #0
 80046ba:	f43f af5d 	beq.w	8004578 <task_system_statechart+0x2c>
 80046be:	e758      	b.n	8004572 <task_system_statechart+0x26>
			if(p_task_system_dta->flag == true && p_task_system_dta->event == EV_SYS_CONNECTION_LOST){
 80046c0:	7965      	ldrb	r5, [r4, #5]
 80046c2:	2d01      	cmp	r5, #1
 80046c4:	f000 8089 	beq.w	80047da <task_system_statechart+0x28e>
			p_task_system_dta->WPM_flag = false;
 80046c8:	2300      	movs	r3, #0
 80046ca:	7623      	strb	r3, [r4, #24]
			if(p_task_system_dta->flag) {velocity_management(p_task_system_dta);}
 80046cc:	e751      	b.n	8004572 <task_system_statechart+0x26>
			if(p_task_system_dta->WPM_flag){
 80046ce:	7e23      	ldrb	r3, [r4, #24]
 80046d0:	2b00      	cmp	r3, #0
 80046d2:	f43f af69 	beq.w	80045a8 <task_system_statechart+0x5c>
 80046d6:	e763      	b.n	80045a0 <task_system_statechart+0x54>
			if(p_task_system_dta->WPM_flag){
 80046d8:	7e23      	ldrb	r3, [r4, #24]
 80046da:	2b00      	cmp	r3, #0
 80046dc:	f43f af67 	beq.w	80045ae <task_system_statechart+0x62>
 80046e0:	e79d      	b.n	800461e <task_system_statechart+0xd2>
				message = get_message_task_system();
 80046e2:	f000 f919 	bl	8004918 <get_message_task_system>
				if(message == RECEIVE_CODE){
 80046e6:	282e      	cmp	r0, #46	@ 0x2e
				message = get_message_task_system();
 80046e8:	4601      	mov	r1, r0
				if(message == RECEIVE_CODE){
 80046ea:	d020      	beq.n	800472e <task_system_statechart+0x1e2>
					EEPROM_SymbolToMorse(&p_task_system_dta->morse_character, message);
 80046ec:	4853      	ldr	r0, [pc, #332]	@ (800483c <task_system_statechart+0x2f0>)
 80046ee:	f7fe fe19 	bl	8003324 <EEPROM_SymbolToMorse>
					if(p_task_system_dta->morse_character.ascii_symbol != morse_error.ascii_symbol){
 80046f2:	4b53      	ldr	r3, [pc, #332]	@ (8004840 <task_system_statechart+0x2f4>)
 80046f4:	7b62      	ldrb	r2, [r4, #13]
 80046f6:	79db      	ldrb	r3, [r3, #7]
 80046f8:	429a      	cmp	r2, r3
 80046fa:	f000 8092 	beq.w	8004822 <task_system_statechart+0x2d6>
						p_task_system_dta->morse_character_tick = 0;
 80046fe:	2200      	movs	r2, #0
						p_task_system_dta->state = ST_SYS_TRANSMITTING_CHAR;
 8004700:	2303      	movs	r3, #3
						p_task_system_dta->morse_character_tick = 0;
 8004702:	73a2      	strb	r2, [r4, #14]
						p_task_system_dta->state = ST_SYS_TRANSMITTING_CHAR;
 8004704:	7123      	strb	r3, [r4, #4]
 8004706:	e77b      	b.n	8004600 <task_system_statechart+0xb4>
		        message = get_message_task_system();
 8004708:	f000 f906 	bl	8004918 <get_message_task_system>
 800470c:	4605      	mov	r5, r0
 800470e:	e758      	b.n	80045c2 <task_system_statechart+0x76>
				put_event_task_GPIO_output(EV_GPIO_XX_OFF , ID_BUZZER);
 8004710:	2103      	movs	r1, #3
 8004712:	f7ff f871 	bl	80037f8 <put_event_task_GPIO_output>
				p_task_system_dta->state = ST_SYS_TRANSMITTING_CHAR;
 8004716:	2303      	movs	r3, #3
 8004718:	7123      	strb	r3, [r4, #4]
 800471a:	e748      	b.n	80045ae <task_system_statechart+0x62>
				if(p_task_system_dta->morse_character_tick %2 && p_task_system_dta->morse_character.len*2 - 1 >  p_task_system_dta->morse_character_tick){
 800471c:	429a      	cmp	r2, r3
 800471e:	dd36      	ble.n	800478e <task_system_statechart+0x242>
					p_task_system_dta->tick = MORSE_SPACE_MORSE;
 8004720:	2201      	movs	r2, #1
					p_task_system_dta->state = ST_SYS_TRANSMITTING_WAIT;
 8004722:	2104      	movs	r1, #4
					p_task_system_dta->morse_character_tick++;
 8004724:	4413      	add	r3, r2
 8004726:	b2db      	uxtb	r3, r3
					p_task_system_dta->state = ST_SYS_TRANSMITTING_WAIT;
 8004728:	7121      	strb	r1, [r4, #4]
					p_task_system_dta->tick = MORSE_SPACE_MORSE;
 800472a:	6022      	str	r2, [r4, #0]
					p_task_system_dta->morse_character_tick++;
 800472c:	e795      	b.n	800465a <task_system_statechart+0x10e>
					p_task_system_dta->state = ST_SYS_RECEIVING;
 800472e:	2501      	movs	r5, #1
					put_event_task_GPIO_output(EV_GPIO_XX_ON, ID_LED_RECEIVE);
 8004730:	2100      	movs	r1, #0
 8004732:	4628      	mov	r0, r5
					p_task_system_dta->state = ST_SYS_RECEIVING;
 8004734:	7125      	strb	r5, [r4, #4]
					put_event_task_GPIO_output(EV_GPIO_XX_ON, ID_LED_RECEIVE);
 8004736:	f7ff f85f 	bl	80037f8 <put_event_task_GPIO_output>
					put_event_task_GPIO_output(EV_GPIO_XX_OFF, ID_LED_TRANSMIT);
 800473a:	4629      	mov	r1, r5
 800473c:	2000      	movs	r0, #0
 800473e:	f7ff f85b 	bl	80037f8 <put_event_task_GPIO_output>
					put_event_task_GPIO_output(EV_GPIO_XX_OFF, ID_LED_ERROR);
 8004742:	2102      	movs	r1, #2
 8004744:	2000      	movs	r0, #0
 8004746:	f7ff f857 	bl	80037f8 <put_event_task_GPIO_output>
					put_event_task_GPIO_output(EV_GPIO_XX_OFF, ID_BUZZER);
 800474a:	2103      	movs	r1, #3
 800474c:	2000      	movs	r0, #0
 800474e:	f7ff f853 	bl	80037f8 <put_event_task_GPIO_output>
 8004752:	e755      	b.n	8004600 <task_system_statechart+0xb4>
				p_task_system_dta->tick = DEL_SYS_MIN;
 8004754:	2500      	movs	r5, #0
				p_task_system_dta->state = ST_SYS_TRANSMITTING;
 8004756:	2602      	movs	r6, #2
				put_event_task_GPIO_output(EV_GPIO_XX_OFF, ID_LED_RECEIVE);
 8004758:	4629      	mov	r1, r5
 800475a:	4628      	mov	r0, r5
				p_task_system_dta->state = ST_SYS_TRANSMITTING;
 800475c:	7126      	strb	r6, [r4, #4]
				p_task_system_dta->tick = DEL_SYS_MIN;
 800475e:	6025      	str	r5, [r4, #0]
				put_event_task_GPIO_output(EV_GPIO_XX_OFF, ID_LED_RECEIVE);
 8004760:	f7ff f84a 	bl	80037f8 <put_event_task_GPIO_output>
				put_event_task_GPIO_output(EV_GPIO_XX_ON, ID_LED_TRANSMIT);
 8004764:	2101      	movs	r1, #1
 8004766:	4608      	mov	r0, r1
 8004768:	f7ff f846 	bl	80037f8 <put_event_task_GPIO_output>
				put_event_task_GPIO_output(EV_GPIO_XX_OFF, ID_LED_ERROR);
 800476c:	4631      	mov	r1, r6
 800476e:	4628      	mov	r0, r5
 8004770:	f7ff f842 	bl	80037f8 <put_event_task_GPIO_output>
				put_event_task_GPIO_output(EV_GPIO_XX_OFF, ID_BUZZER);
 8004774:	2103      	movs	r1, #3
 8004776:	4628      	mov	r0, r5
 8004778:	f7ff f83e 	bl	80037f8 <put_event_task_GPIO_output>
 800477c:	e780      	b.n	8004680 <task_system_statechart+0x134>
		        put_event_task_GPIO_output(EV_GPIO_XX_ON, ID_LED_ERROR);
 800477e:	2102      	movs	r1, #2
 8004780:	2001      	movs	r0, #1
 8004782:	f7ff f839 	bl	80037f8 <put_event_task_GPIO_output>
		        p_task_system_dta->input_mic = HIGH_SIGNAL;
 8004786:	2201      	movs	r2, #1
		    if(p_task_system_dta->event == EV_SYS_BTN_INPUT_OFF){
 8004788:	7963      	ldrb	r3, [r4, #5]
		        p_task_system_dta->input_mic = HIGH_SIGNAL;
 800478a:	76e2      	strb	r2, [r4, #27]
 800478c:	e720      	b.n	80045d0 <task_system_statechart+0x84>
				}else if (p_task_system_dta->morse_character.len*2 - 1 ==  p_task_system_dta->morse_character_tick){
 800478e:	429a      	cmp	r2, r3
 8004790:	d03b      	beq.n	800480a <task_system_statechart+0x2be>
					p_task_system_dta->tick = 0;
 8004792:	2200      	movs	r2, #0
					p_task_system_dta->state = ST_SYS_TRANSMITTING;
 8004794:	2102      	movs	r1, #2
					p_task_system_dta->tick = 0;
 8004796:	4613      	mov	r3, r2
					p_task_system_dta->state = ST_SYS_TRANSMITTING;
 8004798:	7121      	strb	r1, [r4, #4]
					p_task_system_dta->tick = 0;
 800479a:	6022      	str	r2, [r4, #0]
					p_task_system_dta->morse_character_tick = 0;
 800479c:	e75d      	b.n	800465a <task_system_statechart+0x10e>
				p_task_system_dta->state = ST_SYS_RECEIVING;
 800479e:	2601      	movs	r6, #1
				put_event_task_GPIO_output(EV_GPIO_XX_ON, ID_LED_RECEIVE);
 80047a0:	4629      	mov	r1, r5
 80047a2:	4630      	mov	r0, r6
				p_task_system_dta->state = ST_SYS_RECEIVING;
 80047a4:	7126      	strb	r6, [r4, #4]
				put_event_task_GPIO_output(EV_GPIO_XX_ON, ID_LED_RECEIVE);
 80047a6:	f7ff f827 	bl	80037f8 <put_event_task_GPIO_output>
				put_event_task_GPIO_output(EV_GPIO_XX_OFF, ID_LED_TRANSMIT);
 80047aa:	4631      	mov	r1, r6
 80047ac:	4628      	mov	r0, r5
 80047ae:	f7ff f823 	bl	80037f8 <put_event_task_GPIO_output>
 80047b2:	e6fc      	b.n	80045ae <task_system_statechart+0x62>
		        put_event_task_GPIO_output(EV_GPIO_XX_OFF, ID_BUZZER);
 80047b4:	2103      	movs	r1, #3
 80047b6:	2000      	movs	r0, #0
 80047b8:	f7ff f81e 	bl	80037f8 <put_event_task_GPIO_output>
		        p_task_system_dta->input_btn = LOW_SIGNAL;
 80047bc:	2200      	movs	r2, #0
		        : LOW_SIGNAL;
 80047be:	7ee3      	ldrb	r3, [r4, #27]
		        p_task_system_dta->input_btn = LOW_SIGNAL;
 80047c0:	7722      	strb	r2, [r4, #28]
		        : LOW_SIGNAL;
 80047c2:	2b00      	cmp	r3, #0
 80047c4:	f43f af0f 	beq.w	80045e6 <task_system_statechart+0x9a>
 80047c8:	e751      	b.n	800466e <task_system_statechart+0x122>
		        put_event_task_GPIO_output(EV_GPIO_XX_OFF, ID_LED_ERROR);
 80047ca:	2102      	movs	r1, #2
 80047cc:	2000      	movs	r0, #0
 80047ce:	f7ff f813 	bl	80037f8 <put_event_task_GPIO_output>
		        p_task_system_dta->input_mic = LOW_SIGNAL;
 80047d2:	2200      	movs	r2, #0
		    if(p_task_system_dta->event == EV_SYS_BTN_INPUT_OFF){
 80047d4:	7963      	ldrb	r3, [r4, #5]
		        p_task_system_dta->input_mic = LOW_SIGNAL;
 80047d6:	76e2      	strb	r2, [r4, #27]
 80047d8:	e6fa      	b.n	80045d0 <task_system_statechart+0x84>
				p_task_system_dta->state = ST_SYS_WAITING_CONNECTION;
 80047da:	2600      	movs	r6, #0
				put_event_task_GPIO_output(EV_GPIO_XX_BLINK, ID_LED_RECEIVE);
 80047dc:	2003      	movs	r0, #3
 80047de:	4631      	mov	r1, r6
				p_task_system_dta->state = ST_SYS_WAITING_CONNECTION;
 80047e0:	7126      	strb	r6, [r4, #4]
				put_event_task_GPIO_output(EV_GPIO_XX_BLINK, ID_LED_RECEIVE);
 80047e2:	f7ff f809 	bl	80037f8 <put_event_task_GPIO_output>
				put_event_task_GPIO_output(EV_GPIO_XX_BLINK, ID_LED_TRANSMIT);
 80047e6:	4629      	mov	r1, r5
 80047e8:	2003      	movs	r0, #3
 80047ea:	f7ff f805 	bl	80037f8 <put_event_task_GPIO_output>
				put_event_task_GPIO_output(EV_GPIO_XX_OFF, ID_LED_ERROR);
 80047ee:	2102      	movs	r1, #2
 80047f0:	4630      	mov	r0, r6
 80047f2:	f7ff f801 	bl	80037f8 <put_event_task_GPIO_output>
				put_event_task_GPIO_output(EV_GPIO_XX_OFF, ID_BUZZER);
 80047f6:	2103      	movs	r1, #3
 80047f8:	4630      	mov	r0, r6
 80047fa:	f7fe fffd 	bl	80037f8 <put_event_task_GPIO_output>
			if(p_task_system_dta->flag) {velocity_management(p_task_system_dta);}
 80047fe:	7e63      	ldrb	r3, [r4, #25]
			p_task_system_dta->WPM_flag = false;
 8004800:	7626      	strb	r6, [r4, #24]
			if(p_task_system_dta->flag) {velocity_management(p_task_system_dta);}
 8004802:	2b00      	cmp	r3, #0
 8004804:	f43f aeb8 	beq.w	8004578 <task_system_statechart+0x2c>
 8004808:	e6b3      	b.n	8004572 <task_system_statechart+0x26>
					p_task_system_dta->tick = MORSE_SPACE_MORSE;
 800480a:	2101      	movs	r1, #1
					p_task_system_dta->state = ST_SYS_TRANSMITTING_WAIT;
 800480c:	2004      	movs	r0, #4
					p_task_system_dta->morse_character_tick ++;
 800480e:	440a      	add	r2, r1
 8004810:	b2d3      	uxtb	r3, r2
					p_task_system_dta->state = ST_SYS_TRANSMITTING_WAIT;
 8004812:	7120      	strb	r0, [r4, #4]
					p_task_system_dta->tick = MORSE_SPACE_MORSE;
 8004814:	6021      	str	r1, [r4, #0]
					p_task_system_dta->morse_character_tick ++;
 8004816:	e720      	b.n	800465a <task_system_statechart+0x10e>
						put_event_task_GPIO_output(EV_GPIO_XX_ON , ID_BUZZER);
 8004818:	2001      	movs	r0, #1
 800481a:	f7fe ffed 	bl	80037f8 <put_event_task_GPIO_output>
						p_task_system_dta->tick = DOT_LEN;
 800481e:	2101      	movs	r1, #1
 8004820:	e715      	b.n	800464e <task_system_statechart+0x102>
						put_event_task_GPIO_output(EV_GPIO_XX_PULSE, ID_LED_ERROR);
 8004822:	2102      	movs	r1, #2
 8004824:	2004      	movs	r0, #4
 8004826:	f7fe ffe7 	bl	80037f8 <put_event_task_GPIO_output>
 800482a:	e6e9      	b.n	8004600 <task_system_statechart+0xb4>
						put_event_task_GPIO_output(EV_GPIO_XX_ON , ID_BUZZER);
 800482c:	4618      	mov	r0, r3
 800482e:	f7fe ffe3 	bl	80037f8 <put_event_task_GPIO_output>
						p_task_system_dta->tick = LINE_LEN;
 8004832:	2103      	movs	r1, #3
 8004834:	e70b      	b.n	800464e <task_system_statechart+0x102>
 8004836:	bf00      	nop
 8004838:	20000068 	.word	0x20000068
 800483c:	2000006e 	.word	0x2000006e
 8004840:	080064d4 	.word	0x080064d4

08004844 <task_system_update>:
{
 8004844:	b538      	push	{r3, r4, r5, lr}
	__asm("CPSID i");	/* disable interrupts */
 8004846:	b672      	cpsid	i
    if (G_TASK_SYS_TICK_CNT_INI < g_task_system_tick_cnt)
 8004848:	4c0b      	ldr	r4, [pc, #44]	@ (8004878 <task_system_update+0x34>)
 800484a:	6823      	ldr	r3, [r4, #0]
 800484c:	b18b      	cbz	r3, 8004872 <task_system_update+0x2e>
    	g_task_system_tick_cnt--;
 800484e:	6823      	ldr	r3, [r4, #0]
 8004850:	3b01      	subs	r3, #1
 8004852:	6023      	str	r3, [r4, #0]
    __asm("CPSIE i");	/* enable interrupts */
 8004854:	b662      	cpsie	i
    while (b_time_update_required)
 8004856:	4d09      	ldr	r5, [pc, #36]	@ (800487c <task_system_update+0x38>)
		g_task_system_cnt++;
 8004858:	682b      	ldr	r3, [r5, #0]
 800485a:	3301      	adds	r3, #1
 800485c:	602b      	str	r3, [r5, #0]
    	task_system_statechart();
 800485e:	f7ff fe75 	bl	800454c <task_system_statechart>
		__asm("CPSID i");	/* disable interrupts */
 8004862:	b672      	cpsid	i
		if (G_TASK_SYS_TICK_CNT_INI < g_task_system_tick_cnt)
 8004864:	6823      	ldr	r3, [r4, #0]
 8004866:	b123      	cbz	r3, 8004872 <task_system_update+0x2e>
			g_task_system_tick_cnt--;
 8004868:	6823      	ldr	r3, [r4, #0]
 800486a:	3b01      	subs	r3, #1
 800486c:	6023      	str	r3, [r4, #0]
		__asm("CPSIE i");	/* enable interrupts */
 800486e:	b662      	cpsie	i
    while (b_time_update_required)
 8004870:	e7f2      	b.n	8004858 <task_system_update+0x14>
		__asm("CPSIE i");	/* enable interrupts */
 8004872:	b662      	cpsie	i
}
 8004874:	bd38      	pop	{r3, r4, r5, pc}
 8004876:	bf00      	nop
 8004878:	200004bc 	.word	0x200004bc
 800487c:	200004c0 	.word	0x200004c0

08004880 <init_queue_event_task_system>:
	queue_task_system.head = 0;
	queue_task_system.tail = 0;
	queue_task_system.count = 0;

	for (i = 0; i < MAX_EVENTS; i++)
		queue_task_system.queue[i] = EVENT_UNDEFINED;
 8004880:	f04f 33ff 	mov.w	r3, #4294967295
	queue_task_system.count = 0;
 8004884:	2000      	movs	r0, #0
{
 8004886:	b430      	push	{r4, r5}
	queue_task_system.head = 0;
 8004888:	2400      	movs	r4, #0
 800488a:	2500      	movs	r5, #0
 800488c:	4a04      	ldr	r2, [pc, #16]	@ (80048a0 <init_queue_event_task_system+0x20>)
	queue_task_system.count = 0;
 800488e:	e9c2 0302 	strd	r0, r3, [r2, #8]
		queue_task_system.queue[i] = EVENT_UNDEFINED;
 8004892:	e9c2 3304 	strd	r3, r3, [r2, #16]
 8004896:	6193      	str	r3, [r2, #24]
	queue_task_system.head = 0;
 8004898:	e9c2 4500 	strd	r4, r5, [r2]
}
 800489c:	bc30      	pop	{r4, r5}
 800489e:	4770      	bx	lr
 80048a0:	200005d8 	.word	0x200005d8

080048a4 <put_event_task_system>:
}

void put_event_task_system(task_system_ev_t event)
{

	queue_task_system.count++;
 80048a4:	4b07      	ldr	r3, [pc, #28]	@ (80048c4 <put_event_task_system+0x20>)
{
 80048a6:	b410      	push	{r4}
	queue_task_system.queue[queue_task_system.head++] = event;
 80048a8:	681a      	ldr	r2, [r3, #0]
	queue_task_system.count++;
 80048aa:	689c      	ldr	r4, [r3, #8]

	if (MAX_EVENTS == queue_task_system.head)
		queue_task_system.head = 0;
 80048ac:	2a0f      	cmp	r2, #15
	queue_task_system.queue[queue_task_system.head++] = event;
 80048ae:	f102 0101 	add.w	r1, r2, #1
		queue_task_system.head = 0;
 80048b2:	bf08      	it	eq
 80048b4:	2100      	moveq	r1, #0
	queue_task_system.queue[queue_task_system.head++] = event;
 80048b6:	441a      	add	r2, r3
	queue_task_system.count++;
 80048b8:	3401      	adds	r4, #1
	queue_task_system.queue[queue_task_system.head++] = event;
 80048ba:	7310      	strb	r0, [r2, #12]
 80048bc:	6019      	str	r1, [r3, #0]
	queue_task_system.count++;
 80048be:	609c      	str	r4, [r3, #8]
}
 80048c0:	bc10      	pop	{r4}
 80048c2:	4770      	bx	lr
 80048c4:	200005d8 	.word	0x200005d8

080048c8 <put_message_rx_system>:

void put_message_rx_system(char message)
{
	queue_rx_system.count++;
 80048c8:	4b07      	ldr	r3, [pc, #28]	@ (80048e8 <put_message_rx_system+0x20>)
{
 80048ca:	b410      	push	{r4}
	queue_rx_system.queue[queue_rx_system.head++] = message;
 80048cc:	681a      	ldr	r2, [r3, #0]
	queue_rx_system.count++;
 80048ce:	689c      	ldr	r4, [r3, #8]

	if (MAX_MESSAGES == queue_rx_system.head)
		queue_rx_system.head = 0;
 80048d0:	2afe      	cmp	r2, #254	@ 0xfe
	queue_rx_system.queue[queue_rx_system.head++] = message;
 80048d2:	f102 0101 	add.w	r1, r2, #1
		queue_rx_system.head = 0;
 80048d6:	bf08      	it	eq
 80048d8:	2100      	moveq	r1, #0
	queue_rx_system.queue[queue_rx_system.head++] = message;
 80048da:	441a      	add	r2, r3
	queue_rx_system.count++;
 80048dc:	3401      	adds	r4, #1
	queue_rx_system.queue[queue_rx_system.head++] = message;
 80048de:	7310      	strb	r0, [r2, #12]
 80048e0:	6019      	str	r1, [r3, #0]
	queue_rx_system.count++;
 80048e2:	609c      	str	r4, [r3, #8]
}
 80048e4:	bc10      	pop	{r4}
 80048e6:	4770      	bx	lr
 80048e8:	200004c8 	.word	0x200004c8

080048ec <get_event_task_system>:

task_system_ev_t get_event_task_system(void)
{
	task_system_ev_t event;

	queue_task_system.count--;
 80048ec:	4a09      	ldr	r2, [pc, #36]	@ (8004914 <get_event_task_system+0x28>)
{
 80048ee:	b410      	push	{r4}
	queue_task_system.count--;
 80048f0:	e9d2 3401 	ldrd	r3, r4, [r2, #4]
	event = queue_task_system.queue[queue_task_system.tail];
	queue_task_system.queue[queue_task_system.tail++] = EVENT_UNDEFINED;

	if (MAX_EVENTS == queue_task_system.tail)
		queue_task_system.tail = 0;
 80048f4:	2b0f      	cmp	r3, #15
	queue_task_system.queue[queue_task_system.tail++] = EVENT_UNDEFINED;
 80048f6:	f103 0101 	add.w	r1, r3, #1
 80048fa:	f04f 0cff 	mov.w	ip, #255	@ 0xff
		queue_task_system.tail = 0;
 80048fe:	bf08      	it	eq
 8004900:	2100      	moveq	r1, #0
	event = queue_task_system.queue[queue_task_system.tail];
 8004902:	4413      	add	r3, r2
 8004904:	7b18      	ldrb	r0, [r3, #12]
	queue_task_system.count--;
 8004906:	3c01      	subs	r4, #1
	queue_task_system.queue[queue_task_system.tail++] = EVENT_UNDEFINED;
 8004908:	f883 c00c 	strb.w	ip, [r3, #12]
 800490c:	6051      	str	r1, [r2, #4]
	queue_task_system.count--;
 800490e:	6094      	str	r4, [r2, #8]

	return event;
}
 8004910:	bc10      	pop	{r4}
 8004912:	4770      	bx	lr
 8004914:	200005d8 	.word	0x200005d8

08004918 <get_message_task_system>:

char get_message_task_system(void)
{
	char message;

	queue_rx_system.count--;
 8004918:	4a09      	ldr	r2, [pc, #36]	@ (8004940 <get_message_task_system+0x28>)
 800491a:	e9d2 3101 	ldrd	r3, r1, [r2, #4]
	message = queue_rx_system.queue[queue_rx_system.tail];
 800491e:	eb02 0c03 	add.w	ip, r2, r3
	queue_rx_system.count--;
 8004922:	3901      	subs	r1, #1
	queue_rx_system.queue[queue_rx_system.tail++] = MESSAGE_UNDEFINED;
 8004924:	3301      	adds	r3, #1
 8004926:	e9c2 3101 	strd	r3, r1, [r2, #4]
 800492a:	2200      	movs	r2, #0

	if (MAX_MESSAGES == queue_rx_system.tail)
 800492c:	2bff      	cmp	r3, #255	@ 0xff
		queue_task_system.tail = 0;
 800492e:	bf08      	it	eq
 8004930:	4b04      	ldreq	r3, [pc, #16]	@ (8004944 <get_message_task_system+0x2c>)
	message = queue_rx_system.queue[queue_rx_system.tail];
 8004932:	f89c 000c 	ldrb.w	r0, [ip, #12]
		queue_task_system.tail = 0;
 8004936:	bf08      	it	eq
 8004938:	605a      	streq	r2, [r3, #4]
	queue_rx_system.queue[queue_rx_system.tail++] = MESSAGE_UNDEFINED;
 800493a:	f88c 200c 	strb.w	r2, [ip, #12]

	return message;
}
 800493e:	4770      	bx	lr
 8004940:	200004c8 	.word	0x200004c8
 8004944:	200005d8 	.word	0x200005d8

08004948 <any_event_task_system>:

bool any_event_task_system(void)
{
  return (queue_task_system.head != queue_task_system.tail);
 8004948:	4b03      	ldr	r3, [pc, #12]	@ (8004958 <any_event_task_system+0x10>)
 800494a:	e9d3 0300 	ldrd	r0, r3, [r3]
}
 800494e:	1ac0      	subs	r0, r0, r3
 8004950:	bf18      	it	ne
 8004952:	2001      	movne	r0, #1
 8004954:	4770      	bx	lr
 8004956:	bf00      	nop
 8004958:	200005d8 	.word	0x200005d8

0800495c <any_message_task_system>:

bool any_message_task_system(void)
{
  return (queue_rx_system.head != queue_rx_system.tail);
 800495c:	4b03      	ldr	r3, [pc, #12]	@ (800496c <any_message_task_system+0x10>)
 800495e:	e9d3 0300 	ldrd	r0, r3, [r3]
}
 8004962:	1ac0      	subs	r0, r0, r3
 8004964:	bf18      	it	ne
 8004966:	2001      	movne	r0, #1
 8004968:	4770      	bx	lr
 800496a:	bf00      	nop
 800496c:	200004c8 	.word	0x200004c8

08004970 <findslot>:
 8004970:	4b0a      	ldr	r3, [pc, #40]	@ (800499c <findslot+0x2c>)
 8004972:	b510      	push	{r4, lr}
 8004974:	4604      	mov	r4, r0
 8004976:	6818      	ldr	r0, [r3, #0]
 8004978:	b118      	cbz	r0, 8004982 <findslot+0x12>
 800497a:	6a03      	ldr	r3, [r0, #32]
 800497c:	b90b      	cbnz	r3, 8004982 <findslot+0x12>
 800497e:	f000 fbdb 	bl	8005138 <__sinit>
 8004982:	2c13      	cmp	r4, #19
 8004984:	d807      	bhi.n	8004996 <findslot+0x26>
 8004986:	4806      	ldr	r0, [pc, #24]	@ (80049a0 <findslot+0x30>)
 8004988:	f850 2034 	ldr.w	r2, [r0, r4, lsl #3]
 800498c:	3201      	adds	r2, #1
 800498e:	d002      	beq.n	8004996 <findslot+0x26>
 8004990:	eb00 00c4 	add.w	r0, r0, r4, lsl #3
 8004994:	bd10      	pop	{r4, pc}
 8004996:	2000      	movs	r0, #0
 8004998:	e7fc      	b.n	8004994 <findslot+0x24>
 800499a:	bf00      	nop
 800499c:	2000009c 	.word	0x2000009c
 80049a0:	20000600 	.word	0x20000600

080049a4 <error>:
 80049a4:	b5f8      	push	{r3, r4, r5, r6, r7, lr}
 80049a6:	4604      	mov	r4, r0
 80049a8:	f000 fcd6 	bl	8005358 <__errno>
 80049ac:	2613      	movs	r6, #19
 80049ae:	4605      	mov	r5, r0
 80049b0:	2700      	movs	r7, #0
 80049b2:	4630      	mov	r0, r6
 80049b4:	4639      	mov	r1, r7
 80049b6:	beab      	bkpt	0x00ab
 80049b8:	4606      	mov	r6, r0
 80049ba:	4620      	mov	r0, r4
 80049bc:	602e      	str	r6, [r5, #0]
 80049be:	bdf8      	pop	{r3, r4, r5, r6, r7, pc}

080049c0 <checkerror>:
 80049c0:	1c43      	adds	r3, r0, #1
 80049c2:	d101      	bne.n	80049c8 <checkerror+0x8>
 80049c4:	f7ff bfee 	b.w	80049a4 <error>
 80049c8:	4770      	bx	lr

080049ca <_swiread>:
 80049ca:	b530      	push	{r4, r5, lr}
 80049cc:	b085      	sub	sp, #20
 80049ce:	2406      	movs	r4, #6
 80049d0:	e9cd 0101 	strd	r0, r1, [sp, #4]
 80049d4:	9203      	str	r2, [sp, #12]
 80049d6:	ad01      	add	r5, sp, #4
 80049d8:	4620      	mov	r0, r4
 80049da:	4629      	mov	r1, r5
 80049dc:	beab      	bkpt	0x00ab
 80049de:	4604      	mov	r4, r0
 80049e0:	4620      	mov	r0, r4
 80049e2:	f7ff ffed 	bl	80049c0 <checkerror>
 80049e6:	b005      	add	sp, #20
 80049e8:	bd30      	pop	{r4, r5, pc}

080049ea <_read>:
 80049ea:	b570      	push	{r4, r5, r6, lr}
 80049ec:	460e      	mov	r6, r1
 80049ee:	4614      	mov	r4, r2
 80049f0:	f7ff ffbe 	bl	8004970 <findslot>
 80049f4:	4605      	mov	r5, r0
 80049f6:	b930      	cbnz	r0, 8004a06 <_read+0x1c>
 80049f8:	f000 fcae 	bl	8005358 <__errno>
 80049fc:	2309      	movs	r3, #9
 80049fe:	6003      	str	r3, [r0, #0]
 8004a00:	f04f 30ff 	mov.w	r0, #4294967295
 8004a04:	bd70      	pop	{r4, r5, r6, pc}
 8004a06:	4622      	mov	r2, r4
 8004a08:	4631      	mov	r1, r6
 8004a0a:	6800      	ldr	r0, [r0, #0]
 8004a0c:	f7ff ffdd 	bl	80049ca <_swiread>
 8004a10:	1c43      	adds	r3, r0, #1
 8004a12:	d0f5      	beq.n	8004a00 <_read+0x16>
 8004a14:	686b      	ldr	r3, [r5, #4]
 8004a16:	1a20      	subs	r0, r4, r0
 8004a18:	4403      	add	r3, r0
 8004a1a:	606b      	str	r3, [r5, #4]
 8004a1c:	e7f2      	b.n	8004a04 <_read+0x1a>

08004a1e <_swilseek>:
 8004a1e:	b5f7      	push	{r0, r1, r2, r4, r5, r6, r7, lr}
 8004a20:	460c      	mov	r4, r1
 8004a22:	4616      	mov	r6, r2
 8004a24:	f7ff ffa4 	bl	8004970 <findslot>
 8004a28:	4605      	mov	r5, r0
 8004a2a:	b940      	cbnz	r0, 8004a3e <_swilseek+0x20>
 8004a2c:	f000 fc94 	bl	8005358 <__errno>
 8004a30:	2309      	movs	r3, #9
 8004a32:	6003      	str	r3, [r0, #0]
 8004a34:	f04f 34ff 	mov.w	r4, #4294967295
 8004a38:	4620      	mov	r0, r4
 8004a3a:	b003      	add	sp, #12
 8004a3c:	bdf0      	pop	{r4, r5, r6, r7, pc}
 8004a3e:	2e02      	cmp	r6, #2
 8004a40:	d903      	bls.n	8004a4a <_swilseek+0x2c>
 8004a42:	f000 fc89 	bl	8005358 <__errno>
 8004a46:	2316      	movs	r3, #22
 8004a48:	e7f3      	b.n	8004a32 <_swilseek+0x14>
 8004a4a:	2e01      	cmp	r6, #1
 8004a4c:	d112      	bne.n	8004a74 <_swilseek+0x56>
 8004a4e:	6843      	ldr	r3, [r0, #4]
 8004a50:	18e4      	adds	r4, r4, r3
 8004a52:	d4f6      	bmi.n	8004a42 <_swilseek+0x24>
 8004a54:	682b      	ldr	r3, [r5, #0]
 8004a56:	260a      	movs	r6, #10
 8004a58:	466f      	mov	r7, sp
 8004a5a:	e9cd 3400 	strd	r3, r4, [sp]
 8004a5e:	4630      	mov	r0, r6
 8004a60:	4639      	mov	r1, r7
 8004a62:	beab      	bkpt	0x00ab
 8004a64:	4606      	mov	r6, r0
 8004a66:	4630      	mov	r0, r6
 8004a68:	f7ff ffaa 	bl	80049c0 <checkerror>
 8004a6c:	2800      	cmp	r0, #0
 8004a6e:	dbe1      	blt.n	8004a34 <_swilseek+0x16>
 8004a70:	606c      	str	r4, [r5, #4]
 8004a72:	e7e1      	b.n	8004a38 <_swilseek+0x1a>
 8004a74:	2e02      	cmp	r6, #2
 8004a76:	6803      	ldr	r3, [r0, #0]
 8004a78:	d1ec      	bne.n	8004a54 <_swilseek+0x36>
 8004a7a:	260c      	movs	r6, #12
 8004a7c:	466f      	mov	r7, sp
 8004a7e:	9300      	str	r3, [sp, #0]
 8004a80:	4630      	mov	r0, r6
 8004a82:	4639      	mov	r1, r7
 8004a84:	beab      	bkpt	0x00ab
 8004a86:	4606      	mov	r6, r0
 8004a88:	4630      	mov	r0, r6
 8004a8a:	f7ff ff99 	bl	80049c0 <checkerror>
 8004a8e:	1c43      	adds	r3, r0, #1
 8004a90:	d0d0      	beq.n	8004a34 <_swilseek+0x16>
 8004a92:	4404      	add	r4, r0
 8004a94:	e7de      	b.n	8004a54 <_swilseek+0x36>

08004a96 <_lseek>:
 8004a96:	f7ff bfc2 	b.w	8004a1e <_swilseek>

08004a9a <_swiwrite>:
 8004a9a:	b530      	push	{r4, r5, lr}
 8004a9c:	b085      	sub	sp, #20
 8004a9e:	2405      	movs	r4, #5
 8004aa0:	e9cd 0101 	strd	r0, r1, [sp, #4]
 8004aa4:	9203      	str	r2, [sp, #12]
 8004aa6:	ad01      	add	r5, sp, #4
 8004aa8:	4620      	mov	r0, r4
 8004aaa:	4629      	mov	r1, r5
 8004aac:	beab      	bkpt	0x00ab
 8004aae:	4604      	mov	r4, r0
 8004ab0:	4620      	mov	r0, r4
 8004ab2:	f7ff ff85 	bl	80049c0 <checkerror>
 8004ab6:	b005      	add	sp, #20
 8004ab8:	bd30      	pop	{r4, r5, pc}

08004aba <_write>:
 8004aba:	b570      	push	{r4, r5, r6, lr}
 8004abc:	460e      	mov	r6, r1
 8004abe:	4615      	mov	r5, r2
 8004ac0:	f7ff ff56 	bl	8004970 <findslot>
 8004ac4:	4604      	mov	r4, r0
 8004ac6:	b930      	cbnz	r0, 8004ad6 <_write+0x1c>
 8004ac8:	f000 fc46 	bl	8005358 <__errno>
 8004acc:	2309      	movs	r3, #9
 8004ace:	6003      	str	r3, [r0, #0]
 8004ad0:	f04f 30ff 	mov.w	r0, #4294967295
 8004ad4:	bd70      	pop	{r4, r5, r6, pc}
 8004ad6:	462a      	mov	r2, r5
 8004ad8:	4631      	mov	r1, r6
 8004ada:	6800      	ldr	r0, [r0, #0]
 8004adc:	f7ff ffdd 	bl	8004a9a <_swiwrite>
 8004ae0:	1e03      	subs	r3, r0, #0
 8004ae2:	dbf5      	blt.n	8004ad0 <_write+0x16>
 8004ae4:	6862      	ldr	r2, [r4, #4]
 8004ae6:	1ae8      	subs	r0, r5, r3
 8004ae8:	4402      	add	r2, r0
 8004aea:	42ab      	cmp	r3, r5
 8004aec:	6062      	str	r2, [r4, #4]
 8004aee:	d1f1      	bne.n	8004ad4 <_write+0x1a>
 8004af0:	e8bd 4070 	ldmia.w	sp!, {r4, r5, r6, lr}
 8004af4:	2000      	movs	r0, #0
 8004af6:	f7ff bf55 	b.w	80049a4 <error>

08004afa <_swiclose>:
 8004afa:	b537      	push	{r0, r1, r2, r4, r5, lr}
 8004afc:	2402      	movs	r4, #2
 8004afe:	9001      	str	r0, [sp, #4]
 8004b00:	ad01      	add	r5, sp, #4
 8004b02:	4620      	mov	r0, r4
 8004b04:	4629      	mov	r1, r5
 8004b06:	beab      	bkpt	0x00ab
 8004b08:	4604      	mov	r4, r0
 8004b0a:	4620      	mov	r0, r4
 8004b0c:	f7ff ff58 	bl	80049c0 <checkerror>
 8004b10:	b003      	add	sp, #12
 8004b12:	bd30      	pop	{r4, r5, pc}

08004b14 <_close>:
 8004b14:	b538      	push	{r3, r4, r5, lr}
 8004b16:	4605      	mov	r5, r0
 8004b18:	f7ff ff2a 	bl	8004970 <findslot>
 8004b1c:	4604      	mov	r4, r0
 8004b1e:	b930      	cbnz	r0, 8004b2e <_close+0x1a>
 8004b20:	f000 fc1a 	bl	8005358 <__errno>
 8004b24:	2309      	movs	r3, #9
 8004b26:	6003      	str	r3, [r0, #0]
 8004b28:	f04f 30ff 	mov.w	r0, #4294967295
 8004b2c:	bd38      	pop	{r3, r4, r5, pc}
 8004b2e:	3d01      	subs	r5, #1
 8004b30:	2d01      	cmp	r5, #1
 8004b32:	d809      	bhi.n	8004b48 <_close+0x34>
 8004b34:	4b09      	ldr	r3, [pc, #36]	@ (8004b5c <_close+0x48>)
 8004b36:	689a      	ldr	r2, [r3, #8]
 8004b38:	691b      	ldr	r3, [r3, #16]
 8004b3a:	429a      	cmp	r2, r3
 8004b3c:	d104      	bne.n	8004b48 <_close+0x34>
 8004b3e:	f04f 33ff 	mov.w	r3, #4294967295
 8004b42:	6003      	str	r3, [r0, #0]
 8004b44:	2000      	movs	r0, #0
 8004b46:	e7f1      	b.n	8004b2c <_close+0x18>
 8004b48:	6820      	ldr	r0, [r4, #0]
 8004b4a:	f7ff ffd6 	bl	8004afa <_swiclose>
 8004b4e:	2800      	cmp	r0, #0
 8004b50:	d1ec      	bne.n	8004b2c <_close+0x18>
 8004b52:	f04f 33ff 	mov.w	r3, #4294967295
 8004b56:	6023      	str	r3, [r4, #0]
 8004b58:	e7e8      	b.n	8004b2c <_close+0x18>
 8004b5a:	bf00      	nop
 8004b5c:	20000600 	.word	0x20000600

08004b60 <_swistat>:
 8004b60:	b570      	push	{r4, r5, r6, lr}
 8004b62:	460c      	mov	r4, r1
 8004b64:	f7ff ff04 	bl	8004970 <findslot>
 8004b68:	4605      	mov	r5, r0
 8004b6a:	b930      	cbnz	r0, 8004b7a <_swistat+0x1a>
 8004b6c:	f000 fbf4 	bl	8005358 <__errno>
 8004b70:	2309      	movs	r3, #9
 8004b72:	6003      	str	r3, [r0, #0]
 8004b74:	f04f 30ff 	mov.w	r0, #4294967295
 8004b78:	bd70      	pop	{r4, r5, r6, pc}
 8004b7a:	6863      	ldr	r3, [r4, #4]
 8004b7c:	260c      	movs	r6, #12
 8004b7e:	f443 5300 	orr.w	r3, r3, #8192	@ 0x2000
 8004b82:	6063      	str	r3, [r4, #4]
 8004b84:	f44f 6380 	mov.w	r3, #1024	@ 0x400
 8004b88:	64a3      	str	r3, [r4, #72]	@ 0x48
 8004b8a:	4630      	mov	r0, r6
 8004b8c:	4629      	mov	r1, r5
 8004b8e:	beab      	bkpt	0x00ab
 8004b90:	4605      	mov	r5, r0
 8004b92:	4628      	mov	r0, r5
 8004b94:	f7ff ff14 	bl	80049c0 <checkerror>
 8004b98:	1c43      	adds	r3, r0, #1
 8004b9a:	d0eb      	beq.n	8004b74 <_swistat+0x14>
 8004b9c:	6120      	str	r0, [r4, #16]
 8004b9e:	2000      	movs	r0, #0
 8004ba0:	e7ea      	b.n	8004b78 <_swistat+0x18>

08004ba2 <_fstat>:
 8004ba2:	460b      	mov	r3, r1
 8004ba4:	b510      	push	{r4, lr}
 8004ba6:	2100      	movs	r1, #0
 8004ba8:	4604      	mov	r4, r0
 8004baa:	2258      	movs	r2, #88	@ 0x58
 8004bac:	4618      	mov	r0, r3
 8004bae:	f000 fb84 	bl	80052ba <memset>
 8004bb2:	4601      	mov	r1, r0
 8004bb4:	4620      	mov	r0, r4
 8004bb6:	e8bd 4010 	ldmia.w	sp!, {r4, lr}
 8004bba:	f7ff bfd1 	b.w	8004b60 <_swistat>

08004bbe <_stat>:
 8004bbe:	b538      	push	{r3, r4, r5, lr}
 8004bc0:	460d      	mov	r5, r1
 8004bc2:	4604      	mov	r4, r0
 8004bc4:	2258      	movs	r2, #88	@ 0x58
 8004bc6:	2100      	movs	r1, #0
 8004bc8:	4628      	mov	r0, r5
 8004bca:	f000 fb76 	bl	80052ba <memset>
 8004bce:	4620      	mov	r0, r4
 8004bd0:	2100      	movs	r1, #0
 8004bd2:	f000 f811 	bl	8004bf8 <_swiopen>
 8004bd6:	1c43      	adds	r3, r0, #1
 8004bd8:	4604      	mov	r4, r0
 8004bda:	d00b      	beq.n	8004bf4 <_stat+0x36>
 8004bdc:	686b      	ldr	r3, [r5, #4]
 8004bde:	4629      	mov	r1, r5
 8004be0:	f443 4301 	orr.w	r3, r3, #33024	@ 0x8100
 8004be4:	606b      	str	r3, [r5, #4]
 8004be6:	f7ff ffbb 	bl	8004b60 <_swistat>
 8004bea:	4605      	mov	r5, r0
 8004bec:	4620      	mov	r0, r4
 8004bee:	f7ff ff91 	bl	8004b14 <_close>
 8004bf2:	462c      	mov	r4, r5
 8004bf4:	4620      	mov	r0, r4
 8004bf6:	bd38      	pop	{r3, r4, r5, pc}

08004bf8 <_swiopen>:
 8004bf8:	e92d 47f0 	stmdb	sp!, {r4, r5, r6, r7, r8, r9, sl, lr}
 8004bfc:	4607      	mov	r7, r0
 8004bfe:	460e      	mov	r6, r1
 8004c00:	2400      	movs	r4, #0
 8004c02:	f8df 90a4 	ldr.w	r9, [pc, #164]	@ 8004ca8 <_swiopen+0xb0>
 8004c06:	b096      	sub	sp, #88	@ 0x58
 8004c08:	f859 3034 	ldr.w	r3, [r9, r4, lsl #3]
 8004c0c:	ea4f 08c4 	mov.w	r8, r4, lsl #3
 8004c10:	3301      	adds	r3, #1
 8004c12:	d032      	beq.n	8004c7a <_swiopen+0x82>
 8004c14:	3401      	adds	r4, #1
 8004c16:	2c14      	cmp	r4, #20
 8004c18:	d1f6      	bne.n	8004c08 <_swiopen+0x10>
 8004c1a:	f000 fb9d 	bl	8005358 <__errno>
 8004c1e:	2318      	movs	r3, #24
 8004c20:	e03a      	b.n	8004c98 <_swiopen+0xa0>
 8004c22:	f240 6301 	movw	r3, #1537	@ 0x601
 8004c26:	f3c6 4500 	ubfx	r5, r6, #16, #1
 8004c2a:	07b2      	lsls	r2, r6, #30
 8004c2c:	bf48      	it	mi
 8004c2e:	f045 0502 	orrmi.w	r5, r5, #2
 8004c32:	421e      	tst	r6, r3
 8004c34:	bf18      	it	ne
 8004c36:	f045 0504 	orrne.w	r5, r5, #4
 8004c3a:	0733      	lsls	r3, r6, #28
 8004c3c:	bf48      	it	mi
 8004c3e:	f025 0504 	bicmi.w	r5, r5, #4
 8004c42:	4638      	mov	r0, r7
 8004c44:	bf48      	it	mi
 8004c46:	f045 0508 	orrmi.w	r5, r5, #8
 8004c4a:	9700      	str	r7, [sp, #0]
 8004c4c:	f7fb fa7e 	bl	800014c <strlen>
 8004c50:	e9cd 5001 	strd	r5, r0, [sp, #4]
 8004c54:	2501      	movs	r5, #1
 8004c56:	4628      	mov	r0, r5
 8004c58:	4651      	mov	r1, sl
 8004c5a:	beab      	bkpt	0x00ab
 8004c5c:	4605      	mov	r5, r0
 8004c5e:	2d00      	cmp	r5, #0
 8004c60:	db06      	blt.n	8004c70 <_swiopen+0x78>
 8004c62:	2300      	movs	r3, #0
 8004c64:	44c8      	add	r8, r9
 8004c66:	f849 5034 	str.w	r5, [r9, r4, lsl #3]
 8004c6a:	f8c8 3004 	str.w	r3, [r8, #4]
 8004c6e:	e016      	b.n	8004c9e <_swiopen+0xa6>
 8004c70:	4628      	mov	r0, r5
 8004c72:	f7ff fe97 	bl	80049a4 <error>
 8004c76:	4604      	mov	r4, r0
 8004c78:	e011      	b.n	8004c9e <_swiopen+0xa6>
 8004c7a:	f406 6320 	and.w	r3, r6, #2560	@ 0xa00
 8004c7e:	f5b3 6f20 	cmp.w	r3, #2560	@ 0xa00
 8004c82:	46ea      	mov	sl, sp
 8004c84:	d1cd      	bne.n	8004c22 <_swiopen+0x2a>
 8004c86:	4651      	mov	r1, sl
 8004c88:	4638      	mov	r0, r7
 8004c8a:	f7ff ff98 	bl	8004bbe <_stat>
 8004c8e:	3001      	adds	r0, #1
 8004c90:	d0c7      	beq.n	8004c22 <_swiopen+0x2a>
 8004c92:	f000 fb61 	bl	8005358 <__errno>
 8004c96:	2311      	movs	r3, #17
 8004c98:	f04f 34ff 	mov.w	r4, #4294967295
 8004c9c:	6003      	str	r3, [r0, #0]
 8004c9e:	4620      	mov	r0, r4
 8004ca0:	b016      	add	sp, #88	@ 0x58
 8004ca2:	e8bd 87f0 	ldmia.w	sp!, {r4, r5, r6, r7, r8, r9, sl, pc}
 8004ca6:	bf00      	nop
 8004ca8:	20000600 	.word	0x20000600

08004cac <_get_semihosting_exts>:
 8004cac:	e92d 43f7 	stmdb	sp!, {r0, r1, r2, r4, r5, r6, r7, r8, r9, lr}
 8004cb0:	4606      	mov	r6, r0
 8004cb2:	460f      	mov	r7, r1
 8004cb4:	4829      	ldr	r0, [pc, #164]	@ (8004d5c <_get_semihosting_exts+0xb0>)
 8004cb6:	2100      	movs	r1, #0
 8004cb8:	4615      	mov	r5, r2
 8004cba:	f7ff ff9d 	bl	8004bf8 <_swiopen>
 8004cbe:	4604      	mov	r4, r0
 8004cc0:	462a      	mov	r2, r5
 8004cc2:	2100      	movs	r1, #0
 8004cc4:	4630      	mov	r0, r6
 8004cc6:	f000 faf8 	bl	80052ba <memset>
 8004cca:	1c63      	adds	r3, r4, #1
 8004ccc:	d014      	beq.n	8004cf8 <_get_semihosting_exts+0x4c>
 8004cce:	4620      	mov	r0, r4
 8004cd0:	f7ff fe4e 	bl	8004970 <findslot>
 8004cd4:	f04f 080c 	mov.w	r8, #12
 8004cd8:	4681      	mov	r9, r0
 8004cda:	4640      	mov	r0, r8
 8004cdc:	4649      	mov	r1, r9
 8004cde:	beab      	bkpt	0x00ab
 8004ce0:	4680      	mov	r8, r0
 8004ce2:	4640      	mov	r0, r8
 8004ce4:	f7ff fe6c 	bl	80049c0 <checkerror>
 8004ce8:	2803      	cmp	r0, #3
 8004cea:	dd02      	ble.n	8004cf2 <_get_semihosting_exts+0x46>
 8004cec:	1ec3      	subs	r3, r0, #3
 8004cee:	42ab      	cmp	r3, r5
 8004cf0:	dc07      	bgt.n	8004d02 <_get_semihosting_exts+0x56>
 8004cf2:	4620      	mov	r0, r4
 8004cf4:	f7ff ff0e 	bl	8004b14 <_close>
 8004cf8:	f04f 30ff 	mov.w	r0, #4294967295
 8004cfc:	b003      	add	sp, #12
 8004cfe:	e8bd 83f0 	ldmia.w	sp!, {r4, r5, r6, r7, r8, r9, pc}
 8004d02:	2204      	movs	r2, #4
 8004d04:	4620      	mov	r0, r4
 8004d06:	eb0d 0102 	add.w	r1, sp, r2
 8004d0a:	f7ff fe6e 	bl	80049ea <_read>
 8004d0e:	2803      	cmp	r0, #3
 8004d10:	ddef      	ble.n	8004cf2 <_get_semihosting_exts+0x46>
 8004d12:	f89d 3004 	ldrb.w	r3, [sp, #4]
 8004d16:	2b53      	cmp	r3, #83	@ 0x53
 8004d18:	d1eb      	bne.n	8004cf2 <_get_semihosting_exts+0x46>
 8004d1a:	f89d 3005 	ldrb.w	r3, [sp, #5]
 8004d1e:	2b48      	cmp	r3, #72	@ 0x48
 8004d20:	d1e7      	bne.n	8004cf2 <_get_semihosting_exts+0x46>
 8004d22:	f89d 3006 	ldrb.w	r3, [sp, #6]
 8004d26:	2b46      	cmp	r3, #70	@ 0x46
 8004d28:	d1e3      	bne.n	8004cf2 <_get_semihosting_exts+0x46>
 8004d2a:	f89d 3007 	ldrb.w	r3, [sp, #7]
 8004d2e:	2b42      	cmp	r3, #66	@ 0x42
 8004d30:	d1df      	bne.n	8004cf2 <_get_semihosting_exts+0x46>
 8004d32:	2201      	movs	r2, #1
 8004d34:	4639      	mov	r1, r7
 8004d36:	4620      	mov	r0, r4
 8004d38:	f7ff fe71 	bl	8004a1e <_swilseek>
 8004d3c:	2800      	cmp	r0, #0
 8004d3e:	dbd8      	blt.n	8004cf2 <_get_semihosting_exts+0x46>
 8004d40:	462a      	mov	r2, r5
 8004d42:	4631      	mov	r1, r6
 8004d44:	4620      	mov	r0, r4
 8004d46:	f7ff fe50 	bl	80049ea <_read>
 8004d4a:	4605      	mov	r5, r0
 8004d4c:	4620      	mov	r0, r4
 8004d4e:	f7ff fee1 	bl	8004b14 <_close>
 8004d52:	4628      	mov	r0, r5
 8004d54:	f7ff fe34 	bl	80049c0 <checkerror>
 8004d58:	e7d0      	b.n	8004cfc <_get_semihosting_exts+0x50>
 8004d5a:	bf00      	nop
 8004d5c:	0800657c 	.word	0x0800657c

08004d60 <initialise_semihosting_exts>:
 8004d60:	b537      	push	{r0, r1, r2, r4, r5, lr}
 8004d62:	2100      	movs	r1, #0
 8004d64:	2201      	movs	r2, #1
 8004d66:	4d09      	ldr	r5, [pc, #36]	@ (8004d8c <initialise_semihosting_exts+0x2c>)
 8004d68:	4c09      	ldr	r4, [pc, #36]	@ (8004d90 <initialise_semihosting_exts+0x30>)
 8004d6a:	a801      	add	r0, sp, #4
 8004d6c:	6029      	str	r1, [r5, #0]
 8004d6e:	6022      	str	r2, [r4, #0]
 8004d70:	f7ff ff9c 	bl	8004cac <_get_semihosting_exts>
 8004d74:	2800      	cmp	r0, #0
 8004d76:	dd07      	ble.n	8004d88 <initialise_semihosting_exts+0x28>
 8004d78:	f89d 3004 	ldrb.w	r3, [sp, #4]
 8004d7c:	f003 0201 	and.w	r2, r3, #1
 8004d80:	f003 0302 	and.w	r3, r3, #2
 8004d84:	602a      	str	r2, [r5, #0]
 8004d86:	6023      	str	r3, [r4, #0]
 8004d88:	b003      	add	sp, #12
 8004d8a:	bd30      	pop	{r4, r5, pc}
 8004d8c:	2000008c 	.word	0x2000008c
 8004d90:	20000088 	.word	0x20000088

08004d94 <_has_ext_stdout_stderr>:
 8004d94:	b510      	push	{r4, lr}
 8004d96:	4c04      	ldr	r4, [pc, #16]	@ (8004da8 <_has_ext_stdout_stderr+0x14>)
 8004d98:	6823      	ldr	r3, [r4, #0]
 8004d9a:	2b00      	cmp	r3, #0
 8004d9c:	da01      	bge.n	8004da2 <_has_ext_stdout_stderr+0xe>
 8004d9e:	f7ff ffdf 	bl	8004d60 <initialise_semihosting_exts>
 8004da2:	6820      	ldr	r0, [r4, #0]
 8004da4:	bd10      	pop	{r4, pc}
 8004da6:	bf00      	nop
 8004da8:	20000088 	.word	0x20000088

08004dac <initialise_monitor_handles>:
 8004dac:	e92d 4ff0 	stmdb	sp!, {r4, r5, r6, r7, r8, r9, sl, fp, lr}
 8004db0:	2303      	movs	r3, #3
 8004db2:	2400      	movs	r4, #0
 8004db4:	f8df 90a0 	ldr.w	r9, [pc, #160]	@ 8004e58 <initialise_monitor_handles+0xac>
 8004db8:	b085      	sub	sp, #20
 8004dba:	f8cd 9004 	str.w	r9, [sp, #4]
 8004dbe:	af01      	add	r7, sp, #4
 8004dc0:	9303      	str	r3, [sp, #12]
 8004dc2:	2501      	movs	r5, #1
 8004dc4:	9402      	str	r4, [sp, #8]
 8004dc6:	4628      	mov	r0, r5
 8004dc8:	4639      	mov	r1, r7
 8004dca:	beab      	bkpt	0x00ab
 8004dcc:	4605      	mov	r5, r0
 8004dce:	f04f 32ff 	mov.w	r2, #4294967295
 8004dd2:	f8df 8088 	ldr.w	r8, [pc, #136]	@ 8004e5c <initialise_monitor_handles+0xb0>
 8004dd6:	4623      	mov	r3, r4
 8004dd8:	4c21      	ldr	r4, [pc, #132]	@ (8004e60 <initialise_monitor_handles+0xb4>)
 8004dda:	f8c8 5000 	str.w	r5, [r8]
 8004dde:	f844 2033 	str.w	r2, [r4, r3, lsl #3]
 8004de2:	3301      	adds	r3, #1
 8004de4:	2b14      	cmp	r3, #20
 8004de6:	d1fa      	bne.n	8004dde <initialise_monitor_handles+0x32>
 8004de8:	f7ff ffd4 	bl	8004d94 <_has_ext_stdout_stderr>
 8004dec:	4d1d      	ldr	r5, [pc, #116]	@ (8004e64 <initialise_monitor_handles+0xb8>)
 8004dee:	b1d0      	cbz	r0, 8004e26 <initialise_monitor_handles+0x7a>
 8004df0:	f04f 0a03 	mov.w	sl, #3
 8004df4:	2304      	movs	r3, #4
 8004df6:	f8cd 9004 	str.w	r9, [sp, #4]
 8004dfa:	2601      	movs	r6, #1
 8004dfc:	f8cd a00c 	str.w	sl, [sp, #12]
 8004e00:	9302      	str	r3, [sp, #8]
 8004e02:	4630      	mov	r0, r6
 8004e04:	4639      	mov	r1, r7
 8004e06:	beab      	bkpt	0x00ab
 8004e08:	4683      	mov	fp, r0
 8004e0a:	4b17      	ldr	r3, [pc, #92]	@ (8004e68 <initialise_monitor_handles+0xbc>)
 8004e0c:	f8cd 9004 	str.w	r9, [sp, #4]
 8004e10:	f8c3 b000 	str.w	fp, [r3]
 8004e14:	2308      	movs	r3, #8
 8004e16:	f8cd a00c 	str.w	sl, [sp, #12]
 8004e1a:	9302      	str	r3, [sp, #8]
 8004e1c:	4630      	mov	r0, r6
 8004e1e:	4639      	mov	r1, r7
 8004e20:	beab      	bkpt	0x00ab
 8004e22:	4606      	mov	r6, r0
 8004e24:	602e      	str	r6, [r5, #0]
 8004e26:	2600      	movs	r6, #0
 8004e28:	682b      	ldr	r3, [r5, #0]
 8004e2a:	6066      	str	r6, [r4, #4]
 8004e2c:	3301      	adds	r3, #1
 8004e2e:	bf02      	ittt	eq
 8004e30:	4b0d      	ldreq	r3, [pc, #52]	@ (8004e68 <initialise_monitor_handles+0xbc>)
 8004e32:	681b      	ldreq	r3, [r3, #0]
 8004e34:	602b      	streq	r3, [r5, #0]
 8004e36:	f8d8 3000 	ldr.w	r3, [r8]
 8004e3a:	6023      	str	r3, [r4, #0]
 8004e3c:	f7ff ffaa 	bl	8004d94 <_has_ext_stdout_stderr>
 8004e40:	b130      	cbz	r0, 8004e50 <initialise_monitor_handles+0xa4>
 8004e42:	4b09      	ldr	r3, [pc, #36]	@ (8004e68 <initialise_monitor_handles+0xbc>)
 8004e44:	681b      	ldr	r3, [r3, #0]
 8004e46:	e9c4 3602 	strd	r3, r6, [r4, #8]
 8004e4a:	682b      	ldr	r3, [r5, #0]
 8004e4c:	e9c4 3604 	strd	r3, r6, [r4, #16]
 8004e50:	b005      	add	sp, #20
 8004e52:	e8bd 8ff0 	ldmia.w	sp!, {r4, r5, r6, r7, r8, r9, sl, fp, pc}
 8004e56:	bf00      	nop
 8004e58:	08006592 	.word	0x08006592
 8004e5c:	200005fc 	.word	0x200005fc
 8004e60:	20000600 	.word	0x20000600
 8004e64:	200005f4 	.word	0x200005f4
 8004e68:	200005f8 	.word	0x200005f8

08004e6c <_isatty>:
 8004e6c:	b570      	push	{r4, r5, r6, lr}
 8004e6e:	f7ff fd7f 	bl	8004970 <findslot>
 8004e72:	2409      	movs	r4, #9
 8004e74:	4605      	mov	r5, r0
 8004e76:	b920      	cbnz	r0, 8004e82 <_isatty+0x16>
 8004e78:	f000 fa6e 	bl	8005358 <__errno>
 8004e7c:	6004      	str	r4, [r0, #0]
 8004e7e:	2000      	movs	r0, #0
 8004e80:	bd70      	pop	{r4, r5, r6, pc}
 8004e82:	4620      	mov	r0, r4
 8004e84:	4629      	mov	r1, r5
 8004e86:	beab      	bkpt	0x00ab
 8004e88:	4604      	mov	r4, r0
 8004e8a:	2c01      	cmp	r4, #1
 8004e8c:	4620      	mov	r0, r4
 8004e8e:	d0f7      	beq.n	8004e80 <_isatty+0x14>
 8004e90:	f000 fa62 	bl	8005358 <__errno>
 8004e94:	2513      	movs	r5, #19
 8004e96:	4604      	mov	r4, r0
 8004e98:	2600      	movs	r6, #0
 8004e9a:	4628      	mov	r0, r5
 8004e9c:	4631      	mov	r1, r6
 8004e9e:	beab      	bkpt	0x00ab
 8004ea0:	4605      	mov	r5, r0
 8004ea2:	6025      	str	r5, [r4, #0]
 8004ea4:	e7eb      	b.n	8004e7e <_isatty+0x12>
	...

08004ea8 <__sflush_r>:
 8004ea8:	f9b1 200c 	ldrsh.w	r2, [r1, #12]
 8004eac:	b5f8      	push	{r3, r4, r5, r6, r7, lr}
 8004eae:	0716      	lsls	r6, r2, #28
 8004eb0:	4605      	mov	r5, r0
 8004eb2:	460c      	mov	r4, r1
 8004eb4:	d454      	bmi.n	8004f60 <__sflush_r+0xb8>
 8004eb6:	684b      	ldr	r3, [r1, #4]
 8004eb8:	2b00      	cmp	r3, #0
 8004eba:	dc02      	bgt.n	8004ec2 <__sflush_r+0x1a>
 8004ebc:	6c0b      	ldr	r3, [r1, #64]	@ 0x40
 8004ebe:	2b00      	cmp	r3, #0
 8004ec0:	dd48      	ble.n	8004f54 <__sflush_r+0xac>
 8004ec2:	6ae6      	ldr	r6, [r4, #44]	@ 0x2c
 8004ec4:	2e00      	cmp	r6, #0
 8004ec6:	d045      	beq.n	8004f54 <__sflush_r+0xac>
 8004ec8:	2300      	movs	r3, #0
 8004eca:	f412 5280 	ands.w	r2, r2, #4096	@ 0x1000
 8004ece:	682f      	ldr	r7, [r5, #0]
 8004ed0:	6a21      	ldr	r1, [r4, #32]
 8004ed2:	602b      	str	r3, [r5, #0]
 8004ed4:	d030      	beq.n	8004f38 <__sflush_r+0x90>
 8004ed6:	6d62      	ldr	r2, [r4, #84]	@ 0x54
 8004ed8:	89a3      	ldrh	r3, [r4, #12]
 8004eda:	0759      	lsls	r1, r3, #29
 8004edc:	d505      	bpl.n	8004eea <__sflush_r+0x42>
 8004ede:	6863      	ldr	r3, [r4, #4]
 8004ee0:	1ad2      	subs	r2, r2, r3
 8004ee2:	6b63      	ldr	r3, [r4, #52]	@ 0x34
 8004ee4:	b10b      	cbz	r3, 8004eea <__sflush_r+0x42>
 8004ee6:	6c23      	ldr	r3, [r4, #64]	@ 0x40
 8004ee8:	1ad2      	subs	r2, r2, r3
 8004eea:	2300      	movs	r3, #0
 8004eec:	4628      	mov	r0, r5
 8004eee:	6ae6      	ldr	r6, [r4, #44]	@ 0x2c
 8004ef0:	6a21      	ldr	r1, [r4, #32]
 8004ef2:	47b0      	blx	r6
 8004ef4:	1c43      	adds	r3, r0, #1
 8004ef6:	89a3      	ldrh	r3, [r4, #12]
 8004ef8:	d106      	bne.n	8004f08 <__sflush_r+0x60>
 8004efa:	6829      	ldr	r1, [r5, #0]
 8004efc:	291d      	cmp	r1, #29
 8004efe:	d82b      	bhi.n	8004f58 <__sflush_r+0xb0>
 8004f00:	4a28      	ldr	r2, [pc, #160]	@ (8004fa4 <__sflush_r+0xfc>)
 8004f02:	40ca      	lsrs	r2, r1
 8004f04:	07d6      	lsls	r6, r2, #31
 8004f06:	d527      	bpl.n	8004f58 <__sflush_r+0xb0>
 8004f08:	2200      	movs	r2, #0
 8004f0a:	6062      	str	r2, [r4, #4]
 8004f0c:	6922      	ldr	r2, [r4, #16]
 8004f0e:	04d9      	lsls	r1, r3, #19
 8004f10:	6022      	str	r2, [r4, #0]
 8004f12:	d504      	bpl.n	8004f1e <__sflush_r+0x76>
 8004f14:	1c42      	adds	r2, r0, #1
 8004f16:	d101      	bne.n	8004f1c <__sflush_r+0x74>
 8004f18:	682b      	ldr	r3, [r5, #0]
 8004f1a:	b903      	cbnz	r3, 8004f1e <__sflush_r+0x76>
 8004f1c:	6560      	str	r0, [r4, #84]	@ 0x54
 8004f1e:	6b61      	ldr	r1, [r4, #52]	@ 0x34
 8004f20:	602f      	str	r7, [r5, #0]
 8004f22:	b1b9      	cbz	r1, 8004f54 <__sflush_r+0xac>
 8004f24:	f104 0344 	add.w	r3, r4, #68	@ 0x44
 8004f28:	4299      	cmp	r1, r3
 8004f2a:	d002      	beq.n	8004f32 <__sflush_r+0x8a>
 8004f2c:	4628      	mov	r0, r5
 8004f2e:	f000 fa4f 	bl	80053d0 <_free_r>
 8004f32:	2300      	movs	r3, #0
 8004f34:	6363      	str	r3, [r4, #52]	@ 0x34
 8004f36:	e00d      	b.n	8004f54 <__sflush_r+0xac>
 8004f38:	2301      	movs	r3, #1
 8004f3a:	4628      	mov	r0, r5
 8004f3c:	47b0      	blx	r6
 8004f3e:	4602      	mov	r2, r0
 8004f40:	1c50      	adds	r0, r2, #1
 8004f42:	d1c9      	bne.n	8004ed8 <__sflush_r+0x30>
 8004f44:	682b      	ldr	r3, [r5, #0]
 8004f46:	2b00      	cmp	r3, #0
 8004f48:	d0c6      	beq.n	8004ed8 <__sflush_r+0x30>
 8004f4a:	2b1d      	cmp	r3, #29
 8004f4c:	d001      	beq.n	8004f52 <__sflush_r+0xaa>
 8004f4e:	2b16      	cmp	r3, #22
 8004f50:	d11d      	bne.n	8004f8e <__sflush_r+0xe6>
 8004f52:	602f      	str	r7, [r5, #0]
 8004f54:	2000      	movs	r0, #0
 8004f56:	e021      	b.n	8004f9c <__sflush_r+0xf4>
 8004f58:	f043 0340 	orr.w	r3, r3, #64	@ 0x40
 8004f5c:	b21b      	sxth	r3, r3
 8004f5e:	e01a      	b.n	8004f96 <__sflush_r+0xee>
 8004f60:	690f      	ldr	r7, [r1, #16]
 8004f62:	2f00      	cmp	r7, #0
 8004f64:	d0f6      	beq.n	8004f54 <__sflush_r+0xac>
 8004f66:	0793      	lsls	r3, r2, #30
 8004f68:	bf18      	it	ne
 8004f6a:	2300      	movne	r3, #0
 8004f6c:	680e      	ldr	r6, [r1, #0]
 8004f6e:	bf08      	it	eq
 8004f70:	694b      	ldreq	r3, [r1, #20]
 8004f72:	1bf6      	subs	r6, r6, r7
 8004f74:	600f      	str	r7, [r1, #0]
 8004f76:	608b      	str	r3, [r1, #8]
 8004f78:	2e00      	cmp	r6, #0
 8004f7a:	ddeb      	ble.n	8004f54 <__sflush_r+0xac>
 8004f7c:	4633      	mov	r3, r6
 8004f7e:	463a      	mov	r2, r7
 8004f80:	4628      	mov	r0, r5
 8004f82:	6a21      	ldr	r1, [r4, #32]
 8004f84:	f8d4 c028 	ldr.w	ip, [r4, #40]	@ 0x28
 8004f88:	47e0      	blx	ip
 8004f8a:	2800      	cmp	r0, #0
 8004f8c:	dc07      	bgt.n	8004f9e <__sflush_r+0xf6>
 8004f8e:	f9b4 300c 	ldrsh.w	r3, [r4, #12]
 8004f92:	f043 0340 	orr.w	r3, r3, #64	@ 0x40
 8004f96:	f04f 30ff 	mov.w	r0, #4294967295
 8004f9a:	81a3      	strh	r3, [r4, #12]
 8004f9c:	bdf8      	pop	{r3, r4, r5, r6, r7, pc}
 8004f9e:	4407      	add	r7, r0
 8004fa0:	1a36      	subs	r6, r6, r0
 8004fa2:	e7e9      	b.n	8004f78 <__sflush_r+0xd0>
 8004fa4:	20400001 	.word	0x20400001

08004fa8 <_fflush_r>:
 8004fa8:	b538      	push	{r3, r4, r5, lr}
 8004faa:	690b      	ldr	r3, [r1, #16]
 8004fac:	4605      	mov	r5, r0
 8004fae:	460c      	mov	r4, r1
 8004fb0:	b913      	cbnz	r3, 8004fb8 <_fflush_r+0x10>
 8004fb2:	2500      	movs	r5, #0
 8004fb4:	4628      	mov	r0, r5
 8004fb6:	bd38      	pop	{r3, r4, r5, pc}
 8004fb8:	b118      	cbz	r0, 8004fc2 <_fflush_r+0x1a>
 8004fba:	6a03      	ldr	r3, [r0, #32]
 8004fbc:	b90b      	cbnz	r3, 8004fc2 <_fflush_r+0x1a>
 8004fbe:	f000 f8bb 	bl	8005138 <__sinit>
 8004fc2:	f9b4 300c 	ldrsh.w	r3, [r4, #12]
 8004fc6:	2b00      	cmp	r3, #0
 8004fc8:	d0f3      	beq.n	8004fb2 <_fflush_r+0xa>
 8004fca:	6e62      	ldr	r2, [r4, #100]	@ 0x64
 8004fcc:	07d0      	lsls	r0, r2, #31
 8004fce:	d404      	bmi.n	8004fda <_fflush_r+0x32>
 8004fd0:	0599      	lsls	r1, r3, #22
 8004fd2:	d402      	bmi.n	8004fda <_fflush_r+0x32>
 8004fd4:	6da0      	ldr	r0, [r4, #88]	@ 0x58
 8004fd6:	f000 f9ea 	bl	80053ae <__retarget_lock_acquire_recursive>
 8004fda:	4628      	mov	r0, r5
 8004fdc:	4621      	mov	r1, r4
 8004fde:	f7ff ff63 	bl	8004ea8 <__sflush_r>
 8004fe2:	6e63      	ldr	r3, [r4, #100]	@ 0x64
 8004fe4:	4605      	mov	r5, r0
 8004fe6:	07da      	lsls	r2, r3, #31
 8004fe8:	d4e4      	bmi.n	8004fb4 <_fflush_r+0xc>
 8004fea:	89a3      	ldrh	r3, [r4, #12]
 8004fec:	059b      	lsls	r3, r3, #22
 8004fee:	d4e1      	bmi.n	8004fb4 <_fflush_r+0xc>
 8004ff0:	6da0      	ldr	r0, [r4, #88]	@ 0x58
 8004ff2:	f000 f9dd 	bl	80053b0 <__retarget_lock_release_recursive>
 8004ff6:	e7dd      	b.n	8004fb4 <_fflush_r+0xc>

08004ff8 <fflush>:
 8004ff8:	4601      	mov	r1, r0
 8004ffa:	b920      	cbnz	r0, 8005006 <fflush+0xe>
 8004ffc:	4a04      	ldr	r2, [pc, #16]	@ (8005010 <fflush+0x18>)
 8004ffe:	4905      	ldr	r1, [pc, #20]	@ (8005014 <fflush+0x1c>)
 8005000:	4805      	ldr	r0, [pc, #20]	@ (8005018 <fflush+0x20>)
 8005002:	f000 b8b1 	b.w	8005168 <_fwalk_sglue>
 8005006:	4b05      	ldr	r3, [pc, #20]	@ (800501c <fflush+0x24>)
 8005008:	6818      	ldr	r0, [r3, #0]
 800500a:	f7ff bfcd 	b.w	8004fa8 <_fflush_r>
 800500e:	bf00      	nop
 8005010:	20000090 	.word	0x20000090
 8005014:	08004fa9 	.word	0x08004fa9
 8005018:	200000a0 	.word	0x200000a0
 800501c:	2000009c 	.word	0x2000009c

08005020 <std>:
 8005020:	2300      	movs	r3, #0
 8005022:	b510      	push	{r4, lr}
 8005024:	4604      	mov	r4, r0
 8005026:	e9c0 3300 	strd	r3, r3, [r0]
 800502a:	e9c0 3304 	strd	r3, r3, [r0, #16]
 800502e:	6083      	str	r3, [r0, #8]
 8005030:	8181      	strh	r1, [r0, #12]
 8005032:	6643      	str	r3, [r0, #100]	@ 0x64
 8005034:	81c2      	strh	r2, [r0, #14]
 8005036:	6183      	str	r3, [r0, #24]
 8005038:	4619      	mov	r1, r3
 800503a:	2208      	movs	r2, #8
 800503c:	305c      	adds	r0, #92	@ 0x5c
 800503e:	f000 f93c 	bl	80052ba <memset>
 8005042:	4b0d      	ldr	r3, [pc, #52]	@ (8005078 <std+0x58>)
 8005044:	6224      	str	r4, [r4, #32]
 8005046:	6263      	str	r3, [r4, #36]	@ 0x24
 8005048:	4b0c      	ldr	r3, [pc, #48]	@ (800507c <std+0x5c>)
 800504a:	62a3      	str	r3, [r4, #40]	@ 0x28
 800504c:	4b0c      	ldr	r3, [pc, #48]	@ (8005080 <std+0x60>)
 800504e:	62e3      	str	r3, [r4, #44]	@ 0x2c
 8005050:	4b0c      	ldr	r3, [pc, #48]	@ (8005084 <std+0x64>)
 8005052:	6323      	str	r3, [r4, #48]	@ 0x30
 8005054:	4b0c      	ldr	r3, [pc, #48]	@ (8005088 <std+0x68>)
 8005056:	429c      	cmp	r4, r3
 8005058:	d006      	beq.n	8005068 <std+0x48>
 800505a:	f103 0268 	add.w	r2, r3, #104	@ 0x68
 800505e:	4294      	cmp	r4, r2
 8005060:	d002      	beq.n	8005068 <std+0x48>
 8005062:	33d0      	adds	r3, #208	@ 0xd0
 8005064:	429c      	cmp	r4, r3
 8005066:	d105      	bne.n	8005074 <std+0x54>
 8005068:	f104 0058 	add.w	r0, r4, #88	@ 0x58
 800506c:	e8bd 4010 	ldmia.w	sp!, {r4, lr}
 8005070:	f000 b99c 	b.w	80053ac <__retarget_lock_init_recursive>
 8005074:	bd10      	pop	{r4, pc}
 8005076:	bf00      	nop
 8005078:	08005235 	.word	0x08005235
 800507c:	08005257 	.word	0x08005257
 8005080:	0800528f 	.word	0x0800528f
 8005084:	080052b3 	.word	0x080052b3
 8005088:	200006a0 	.word	0x200006a0

0800508c <stdio_exit_handler>:
 800508c:	4a02      	ldr	r2, [pc, #8]	@ (8005098 <stdio_exit_handler+0xc>)
 800508e:	4903      	ldr	r1, [pc, #12]	@ (800509c <stdio_exit_handler+0x10>)
 8005090:	4803      	ldr	r0, [pc, #12]	@ (80050a0 <stdio_exit_handler+0x14>)
 8005092:	f000 b869 	b.w	8005168 <_fwalk_sglue>
 8005096:	bf00      	nop
 8005098:	20000090 	.word	0x20000090
 800509c:	08004fa9 	.word	0x08004fa9
 80050a0:	200000a0 	.word	0x200000a0

080050a4 <cleanup_stdio>:
 80050a4:	6841      	ldr	r1, [r0, #4]
 80050a6:	4b0c      	ldr	r3, [pc, #48]	@ (80050d8 <cleanup_stdio+0x34>)
 80050a8:	b510      	push	{r4, lr}
 80050aa:	4299      	cmp	r1, r3
 80050ac:	4604      	mov	r4, r0
 80050ae:	d001      	beq.n	80050b4 <cleanup_stdio+0x10>
 80050b0:	f7ff ff7a 	bl	8004fa8 <_fflush_r>
 80050b4:	68a1      	ldr	r1, [r4, #8]
 80050b6:	4b09      	ldr	r3, [pc, #36]	@ (80050dc <cleanup_stdio+0x38>)
 80050b8:	4299      	cmp	r1, r3
 80050ba:	d002      	beq.n	80050c2 <cleanup_stdio+0x1e>
 80050bc:	4620      	mov	r0, r4
 80050be:	f7ff ff73 	bl	8004fa8 <_fflush_r>
 80050c2:	68e1      	ldr	r1, [r4, #12]
 80050c4:	4b06      	ldr	r3, [pc, #24]	@ (80050e0 <cleanup_stdio+0x3c>)
 80050c6:	4299      	cmp	r1, r3
 80050c8:	d004      	beq.n	80050d4 <cleanup_stdio+0x30>
 80050ca:	4620      	mov	r0, r4
 80050cc:	e8bd 4010 	ldmia.w	sp!, {r4, lr}
 80050d0:	f7ff bf6a 	b.w	8004fa8 <_fflush_r>
 80050d4:	bd10      	pop	{r4, pc}
 80050d6:	bf00      	nop
 80050d8:	200006a0 	.word	0x200006a0
 80050dc:	20000708 	.word	0x20000708
 80050e0:	20000770 	.word	0x20000770

080050e4 <global_stdio_init.part.0>:
 80050e4:	b510      	push	{r4, lr}
 80050e6:	4b0b      	ldr	r3, [pc, #44]	@ (8005114 <global_stdio_init.part.0+0x30>)
 80050e8:	4c0b      	ldr	r4, [pc, #44]	@ (8005118 <global_stdio_init.part.0+0x34>)
 80050ea:	4a0c      	ldr	r2, [pc, #48]	@ (800511c <global_stdio_init.part.0+0x38>)
 80050ec:	4620      	mov	r0, r4
 80050ee:	601a      	str	r2, [r3, #0]
 80050f0:	2104      	movs	r1, #4
 80050f2:	2200      	movs	r2, #0
 80050f4:	f7ff ff94 	bl	8005020 <std>
 80050f8:	f104 0068 	add.w	r0, r4, #104	@ 0x68
 80050fc:	2201      	movs	r2, #1
 80050fe:	2109      	movs	r1, #9
 8005100:	f7ff ff8e 	bl	8005020 <std>
 8005104:	f104 00d0 	add.w	r0, r4, #208	@ 0xd0
 8005108:	2202      	movs	r2, #2
 800510a:	e8bd 4010 	ldmia.w	sp!, {r4, lr}
 800510e:	2112      	movs	r1, #18
 8005110:	f7ff bf86 	b.w	8005020 <std>
 8005114:	200007d8 	.word	0x200007d8
 8005118:	200006a0 	.word	0x200006a0
 800511c:	0800508d 	.word	0x0800508d

08005120 <__sfp_lock_acquire>:
 8005120:	4801      	ldr	r0, [pc, #4]	@ (8005128 <__sfp_lock_acquire+0x8>)
 8005122:	f000 b944 	b.w	80053ae <__retarget_lock_acquire_recursive>
 8005126:	bf00      	nop
 8005128:	200007e1 	.word	0x200007e1

0800512c <__sfp_lock_release>:
 800512c:	4801      	ldr	r0, [pc, #4]	@ (8005134 <__sfp_lock_release+0x8>)
 800512e:	f000 b93f 	b.w	80053b0 <__retarget_lock_release_recursive>
 8005132:	bf00      	nop
 8005134:	200007e1 	.word	0x200007e1

08005138 <__sinit>:
 8005138:	b510      	push	{r4, lr}
 800513a:	4604      	mov	r4, r0
 800513c:	f7ff fff0 	bl	8005120 <__sfp_lock_acquire>
 8005140:	6a23      	ldr	r3, [r4, #32]
 8005142:	b11b      	cbz	r3, 800514c <__sinit+0x14>
 8005144:	e8bd 4010 	ldmia.w	sp!, {r4, lr}
 8005148:	f7ff bff0 	b.w	800512c <__sfp_lock_release>
 800514c:	4b04      	ldr	r3, [pc, #16]	@ (8005160 <__sinit+0x28>)
 800514e:	6223      	str	r3, [r4, #32]
 8005150:	4b04      	ldr	r3, [pc, #16]	@ (8005164 <__sinit+0x2c>)
 8005152:	681b      	ldr	r3, [r3, #0]
 8005154:	2b00      	cmp	r3, #0
 8005156:	d1f5      	bne.n	8005144 <__sinit+0xc>
 8005158:	f7ff ffc4 	bl	80050e4 <global_stdio_init.part.0>
 800515c:	e7f2      	b.n	8005144 <__sinit+0xc>
 800515e:	bf00      	nop
 8005160:	080050a5 	.word	0x080050a5
 8005164:	200007d8 	.word	0x200007d8

08005168 <_fwalk_sglue>:
 8005168:	e92d 43f8 	stmdb	sp!, {r3, r4, r5, r6, r7, r8, r9, lr}
 800516c:	4607      	mov	r7, r0
 800516e:	4688      	mov	r8, r1
 8005170:	4614      	mov	r4, r2
 8005172:	2600      	movs	r6, #0
 8005174:	e9d4 9501 	ldrd	r9, r5, [r4, #4]
 8005178:	f1b9 0901 	subs.w	r9, r9, #1
 800517c:	d505      	bpl.n	800518a <_fwalk_sglue+0x22>
 800517e:	6824      	ldr	r4, [r4, #0]
 8005180:	2c00      	cmp	r4, #0
 8005182:	d1f7      	bne.n	8005174 <_fwalk_sglue+0xc>
 8005184:	4630      	mov	r0, r6
 8005186:	e8bd 83f8 	ldmia.w	sp!, {r3, r4, r5, r6, r7, r8, r9, pc}
 800518a:	89ab      	ldrh	r3, [r5, #12]
 800518c:	2b01      	cmp	r3, #1
 800518e:	d907      	bls.n	80051a0 <_fwalk_sglue+0x38>
 8005190:	f9b5 300e 	ldrsh.w	r3, [r5, #14]
 8005194:	3301      	adds	r3, #1
 8005196:	d003      	beq.n	80051a0 <_fwalk_sglue+0x38>
 8005198:	4629      	mov	r1, r5
 800519a:	4638      	mov	r0, r7
 800519c:	47c0      	blx	r8
 800519e:	4306      	orrs	r6, r0
 80051a0:	3568      	adds	r5, #104	@ 0x68
 80051a2:	e7e9      	b.n	8005178 <_fwalk_sglue+0x10>

080051a4 <iprintf>:
 80051a4:	b40f      	push	{r0, r1, r2, r3}
 80051a6:	b507      	push	{r0, r1, r2, lr}
 80051a8:	4906      	ldr	r1, [pc, #24]	@ (80051c4 <iprintf+0x20>)
 80051aa:	ab04      	add	r3, sp, #16
 80051ac:	6808      	ldr	r0, [r1, #0]
 80051ae:	f853 2b04 	ldr.w	r2, [r3], #4
 80051b2:	6881      	ldr	r1, [r0, #8]
 80051b4:	9301      	str	r3, [sp, #4]
 80051b6:	f000 fb81 	bl	80058bc <_vfiprintf_r>
 80051ba:	b003      	add	sp, #12
 80051bc:	f85d eb04 	ldr.w	lr, [sp], #4
 80051c0:	b004      	add	sp, #16
 80051c2:	4770      	bx	lr
 80051c4:	2000009c 	.word	0x2000009c

080051c8 <sniprintf>:
 80051c8:	b40c      	push	{r2, r3}
 80051ca:	b530      	push	{r4, r5, lr}
 80051cc:	4b18      	ldr	r3, [pc, #96]	@ (8005230 <sniprintf+0x68>)
 80051ce:	1e0c      	subs	r4, r1, #0
 80051d0:	681d      	ldr	r5, [r3, #0]
 80051d2:	b09d      	sub	sp, #116	@ 0x74
 80051d4:	da08      	bge.n	80051e8 <sniprintf+0x20>
 80051d6:	238b      	movs	r3, #139	@ 0x8b
 80051d8:	f04f 30ff 	mov.w	r0, #4294967295
 80051dc:	602b      	str	r3, [r5, #0]
 80051de:	b01d      	add	sp, #116	@ 0x74
 80051e0:	e8bd 4030 	ldmia.w	sp!, {r4, r5, lr}
 80051e4:	b002      	add	sp, #8
 80051e6:	4770      	bx	lr
 80051e8:	f44f 7302 	mov.w	r3, #520	@ 0x208
 80051ec:	f8ad 3014 	strh.w	r3, [sp, #20]
 80051f0:	f04f 0300 	mov.w	r3, #0
 80051f4:	931b      	str	r3, [sp, #108]	@ 0x6c
 80051f6:	bf0c      	ite	eq
 80051f8:	4623      	moveq	r3, r4
 80051fa:	f104 33ff 	addne.w	r3, r4, #4294967295
 80051fe:	9304      	str	r3, [sp, #16]
 8005200:	9307      	str	r3, [sp, #28]
 8005202:	f64f 73ff 	movw	r3, #65535	@ 0xffff
 8005206:	9002      	str	r0, [sp, #8]
 8005208:	9006      	str	r0, [sp, #24]
 800520a:	f8ad 3016 	strh.w	r3, [sp, #22]
 800520e:	4628      	mov	r0, r5
 8005210:	ab21      	add	r3, sp, #132	@ 0x84
 8005212:	9a20      	ldr	r2, [sp, #128]	@ 0x80
 8005214:	a902      	add	r1, sp, #8
 8005216:	9301      	str	r3, [sp, #4]
 8005218:	f000 fa2c 	bl	8005674 <_svfiprintf_r>
 800521c:	1c43      	adds	r3, r0, #1
 800521e:	bfbc      	itt	lt
 8005220:	238b      	movlt	r3, #139	@ 0x8b
 8005222:	602b      	strlt	r3, [r5, #0]
 8005224:	2c00      	cmp	r4, #0
 8005226:	d0da      	beq.n	80051de <sniprintf+0x16>
 8005228:	2200      	movs	r2, #0
 800522a:	9b02      	ldr	r3, [sp, #8]
 800522c:	701a      	strb	r2, [r3, #0]
 800522e:	e7d6      	b.n	80051de <sniprintf+0x16>
 8005230:	2000009c 	.word	0x2000009c

08005234 <__sread>:
 8005234:	b510      	push	{r4, lr}
 8005236:	460c      	mov	r4, r1
 8005238:	f9b1 100e 	ldrsh.w	r1, [r1, #14]
 800523c:	f000 f868 	bl	8005310 <_read_r>
 8005240:	2800      	cmp	r0, #0
 8005242:	bfab      	itete	ge
 8005244:	6d63      	ldrge	r3, [r4, #84]	@ 0x54
 8005246:	89a3      	ldrhlt	r3, [r4, #12]
 8005248:	181b      	addge	r3, r3, r0
 800524a:	f423 5380 	biclt.w	r3, r3, #4096	@ 0x1000
 800524e:	bfac      	ite	ge
 8005250:	6563      	strge	r3, [r4, #84]	@ 0x54
 8005252:	81a3      	strhlt	r3, [r4, #12]
 8005254:	bd10      	pop	{r4, pc}

08005256 <__swrite>:
 8005256:	e92d 41f0 	stmdb	sp!, {r4, r5, r6, r7, r8, lr}
 800525a:	461f      	mov	r7, r3
 800525c:	898b      	ldrh	r3, [r1, #12]
 800525e:	4605      	mov	r5, r0
 8005260:	05db      	lsls	r3, r3, #23
 8005262:	460c      	mov	r4, r1
 8005264:	4616      	mov	r6, r2
 8005266:	d505      	bpl.n	8005274 <__swrite+0x1e>
 8005268:	2302      	movs	r3, #2
 800526a:	2200      	movs	r2, #0
 800526c:	f9b1 100e 	ldrsh.w	r1, [r1, #14]
 8005270:	f000 f83c 	bl	80052ec <_lseek_r>
 8005274:	89a3      	ldrh	r3, [r4, #12]
 8005276:	4632      	mov	r2, r6
 8005278:	f423 5380 	bic.w	r3, r3, #4096	@ 0x1000
 800527c:	81a3      	strh	r3, [r4, #12]
 800527e:	4628      	mov	r0, r5
 8005280:	463b      	mov	r3, r7
 8005282:	f9b4 100e 	ldrsh.w	r1, [r4, #14]
 8005286:	e8bd 41f0 	ldmia.w	sp!, {r4, r5, r6, r7, r8, lr}
 800528a:	f000 b853 	b.w	8005334 <_write_r>

0800528e <__sseek>:
 800528e:	b510      	push	{r4, lr}
 8005290:	460c      	mov	r4, r1
 8005292:	f9b1 100e 	ldrsh.w	r1, [r1, #14]
 8005296:	f000 f829 	bl	80052ec <_lseek_r>
 800529a:	1c43      	adds	r3, r0, #1
 800529c:	89a3      	ldrh	r3, [r4, #12]
 800529e:	bf15      	itete	ne
 80052a0:	6560      	strne	r0, [r4, #84]	@ 0x54
 80052a2:	f423 5380 	biceq.w	r3, r3, #4096	@ 0x1000
 80052a6:	f443 5380 	orrne.w	r3, r3, #4096	@ 0x1000
 80052aa:	81a3      	strheq	r3, [r4, #12]
 80052ac:	bf18      	it	ne
 80052ae:	81a3      	strhne	r3, [r4, #12]
 80052b0:	bd10      	pop	{r4, pc}

080052b2 <__sclose>:
 80052b2:	f9b1 100e 	ldrsh.w	r1, [r1, #14]
 80052b6:	f000 b809 	b.w	80052cc <_close_r>

080052ba <memset>:
 80052ba:	4603      	mov	r3, r0
 80052bc:	4402      	add	r2, r0
 80052be:	4293      	cmp	r3, r2
 80052c0:	d100      	bne.n	80052c4 <memset+0xa>
 80052c2:	4770      	bx	lr
 80052c4:	f803 1b01 	strb.w	r1, [r3], #1
 80052c8:	e7f9      	b.n	80052be <memset+0x4>
	...

080052cc <_close_r>:
 80052cc:	b538      	push	{r3, r4, r5, lr}
 80052ce:	2300      	movs	r3, #0
 80052d0:	4d05      	ldr	r5, [pc, #20]	@ (80052e8 <_close_r+0x1c>)
 80052d2:	4604      	mov	r4, r0
 80052d4:	4608      	mov	r0, r1
 80052d6:	602b      	str	r3, [r5, #0]
 80052d8:	f7ff fc1c 	bl	8004b14 <_close>
 80052dc:	1c43      	adds	r3, r0, #1
 80052de:	d102      	bne.n	80052e6 <_close_r+0x1a>
 80052e0:	682b      	ldr	r3, [r5, #0]
 80052e2:	b103      	cbz	r3, 80052e6 <_close_r+0x1a>
 80052e4:	6023      	str	r3, [r4, #0]
 80052e6:	bd38      	pop	{r3, r4, r5, pc}
 80052e8:	200007dc 	.word	0x200007dc

080052ec <_lseek_r>:
 80052ec:	b538      	push	{r3, r4, r5, lr}
 80052ee:	4604      	mov	r4, r0
 80052f0:	4608      	mov	r0, r1
 80052f2:	4611      	mov	r1, r2
 80052f4:	2200      	movs	r2, #0
 80052f6:	4d05      	ldr	r5, [pc, #20]	@ (800530c <_lseek_r+0x20>)
 80052f8:	602a      	str	r2, [r5, #0]
 80052fa:	461a      	mov	r2, r3
 80052fc:	f7ff fbcb 	bl	8004a96 <_lseek>
 8005300:	1c43      	adds	r3, r0, #1
 8005302:	d102      	bne.n	800530a <_lseek_r+0x1e>
 8005304:	682b      	ldr	r3, [r5, #0]
 8005306:	b103      	cbz	r3, 800530a <_lseek_r+0x1e>
 8005308:	6023      	str	r3, [r4, #0]
 800530a:	bd38      	pop	{r3, r4, r5, pc}
 800530c:	200007dc 	.word	0x200007dc

08005310 <_read_r>:
 8005310:	b538      	push	{r3, r4, r5, lr}
 8005312:	4604      	mov	r4, r0
 8005314:	4608      	mov	r0, r1
 8005316:	4611      	mov	r1, r2
 8005318:	2200      	movs	r2, #0
 800531a:	4d05      	ldr	r5, [pc, #20]	@ (8005330 <_read_r+0x20>)
 800531c:	602a      	str	r2, [r5, #0]
 800531e:	461a      	mov	r2, r3
 8005320:	f7ff fb63 	bl	80049ea <_read>
 8005324:	1c43      	adds	r3, r0, #1
 8005326:	d102      	bne.n	800532e <_read_r+0x1e>
 8005328:	682b      	ldr	r3, [r5, #0]
 800532a:	b103      	cbz	r3, 800532e <_read_r+0x1e>
 800532c:	6023      	str	r3, [r4, #0]
 800532e:	bd38      	pop	{r3, r4, r5, pc}
 8005330:	200007dc 	.word	0x200007dc

08005334 <_write_r>:
 8005334:	b538      	push	{r3, r4, r5, lr}
 8005336:	4604      	mov	r4, r0
 8005338:	4608      	mov	r0, r1
 800533a:	4611      	mov	r1, r2
 800533c:	2200      	movs	r2, #0
 800533e:	4d05      	ldr	r5, [pc, #20]	@ (8005354 <_write_r+0x20>)
 8005340:	602a      	str	r2, [r5, #0]
 8005342:	461a      	mov	r2, r3
 8005344:	f7ff fbb9 	bl	8004aba <_write>
 8005348:	1c43      	adds	r3, r0, #1
 800534a:	d102      	bne.n	8005352 <_write_r+0x1e>
 800534c:	682b      	ldr	r3, [r5, #0]
 800534e:	b103      	cbz	r3, 8005352 <_write_r+0x1e>
 8005350:	6023      	str	r3, [r4, #0]
 8005352:	bd38      	pop	{r3, r4, r5, pc}
 8005354:	200007dc 	.word	0x200007dc

08005358 <__errno>:
 8005358:	4b01      	ldr	r3, [pc, #4]	@ (8005360 <__errno+0x8>)
 800535a:	6818      	ldr	r0, [r3, #0]
 800535c:	4770      	bx	lr
 800535e:	bf00      	nop
 8005360:	2000009c 	.word	0x2000009c

08005364 <__libc_init_array>:
 8005364:	b570      	push	{r4, r5, r6, lr}
 8005366:	2600      	movs	r6, #0
 8005368:	4d0c      	ldr	r5, [pc, #48]	@ (800539c <__libc_init_array+0x38>)
 800536a:	4c0d      	ldr	r4, [pc, #52]	@ (80053a0 <__libc_init_array+0x3c>)
 800536c:	1b64      	subs	r4, r4, r5
 800536e:	10a4      	asrs	r4, r4, #2
 8005370:	42a6      	cmp	r6, r4
 8005372:	d109      	bne.n	8005388 <__libc_init_array+0x24>
 8005374:	f000 fed0 	bl	8006118 <_init>
 8005378:	2600      	movs	r6, #0
 800537a:	4d0a      	ldr	r5, [pc, #40]	@ (80053a4 <__libc_init_array+0x40>)
 800537c:	4c0a      	ldr	r4, [pc, #40]	@ (80053a8 <__libc_init_array+0x44>)
 800537e:	1b64      	subs	r4, r4, r5
 8005380:	10a4      	asrs	r4, r4, #2
 8005382:	42a6      	cmp	r6, r4
 8005384:	d105      	bne.n	8005392 <__libc_init_array+0x2e>
 8005386:	bd70      	pop	{r4, r5, r6, pc}
 8005388:	f855 3b04 	ldr.w	r3, [r5], #4
 800538c:	4798      	blx	r3
 800538e:	3601      	adds	r6, #1
 8005390:	e7ee      	b.n	8005370 <__libc_init_array+0xc>
 8005392:	f855 3b04 	ldr.w	r3, [r5], #4
 8005396:	4798      	blx	r3
 8005398:	3601      	adds	r6, #1
 800539a:	e7f2      	b.n	8005382 <__libc_init_array+0x1e>
 800539c:	080065d4 	.word	0x080065d4
 80053a0:	080065d4 	.word	0x080065d4
 80053a4:	080065d4 	.word	0x080065d4
 80053a8:	080065d8 	.word	0x080065d8

080053ac <__retarget_lock_init_recursive>:
 80053ac:	4770      	bx	lr

080053ae <__retarget_lock_acquire_recursive>:
 80053ae:	4770      	bx	lr

080053b0 <__retarget_lock_release_recursive>:
 80053b0:	4770      	bx	lr

080053b2 <memcpy>:
 80053b2:	440a      	add	r2, r1
 80053b4:	4291      	cmp	r1, r2
 80053b6:	f100 33ff 	add.w	r3, r0, #4294967295
 80053ba:	d100      	bne.n	80053be <memcpy+0xc>
 80053bc:	4770      	bx	lr
 80053be:	b510      	push	{r4, lr}
 80053c0:	f811 4b01 	ldrb.w	r4, [r1], #1
 80053c4:	4291      	cmp	r1, r2
 80053c6:	f803 4f01 	strb.w	r4, [r3, #1]!
 80053ca:	d1f9      	bne.n	80053c0 <memcpy+0xe>
 80053cc:	bd10      	pop	{r4, pc}
	...

080053d0 <_free_r>:
 80053d0:	b538      	push	{r3, r4, r5, lr}
 80053d2:	4605      	mov	r5, r0
 80053d4:	2900      	cmp	r1, #0
 80053d6:	d040      	beq.n	800545a <_free_r+0x8a>
 80053d8:	f851 3c04 	ldr.w	r3, [r1, #-4]
 80053dc:	1f0c      	subs	r4, r1, #4
 80053de:	2b00      	cmp	r3, #0
 80053e0:	bfb8      	it	lt
 80053e2:	18e4      	addlt	r4, r4, r3
 80053e4:	f000 f8de 	bl	80055a4 <__malloc_lock>
 80053e8:	4a1c      	ldr	r2, [pc, #112]	@ (800545c <_free_r+0x8c>)
 80053ea:	6813      	ldr	r3, [r2, #0]
 80053ec:	b933      	cbnz	r3, 80053fc <_free_r+0x2c>
 80053ee:	6063      	str	r3, [r4, #4]
 80053f0:	6014      	str	r4, [r2, #0]
 80053f2:	4628      	mov	r0, r5
 80053f4:	e8bd 4038 	ldmia.w	sp!, {r3, r4, r5, lr}
 80053f8:	f000 b8da 	b.w	80055b0 <__malloc_unlock>
 80053fc:	42a3      	cmp	r3, r4
 80053fe:	d908      	bls.n	8005412 <_free_r+0x42>
 8005400:	6820      	ldr	r0, [r4, #0]
 8005402:	1821      	adds	r1, r4, r0
 8005404:	428b      	cmp	r3, r1
 8005406:	bf01      	itttt	eq
 8005408:	6819      	ldreq	r1, [r3, #0]
 800540a:	685b      	ldreq	r3, [r3, #4]
 800540c:	1809      	addeq	r1, r1, r0
 800540e:	6021      	streq	r1, [r4, #0]
 8005410:	e7ed      	b.n	80053ee <_free_r+0x1e>
 8005412:	461a      	mov	r2, r3
 8005414:	685b      	ldr	r3, [r3, #4]
 8005416:	b10b      	cbz	r3, 800541c <_free_r+0x4c>
 8005418:	42a3      	cmp	r3, r4
 800541a:	d9fa      	bls.n	8005412 <_free_r+0x42>
 800541c:	6811      	ldr	r1, [r2, #0]
 800541e:	1850      	adds	r0, r2, r1
 8005420:	42a0      	cmp	r0, r4
 8005422:	d10b      	bne.n	800543c <_free_r+0x6c>
 8005424:	6820      	ldr	r0, [r4, #0]
 8005426:	4401      	add	r1, r0
 8005428:	1850      	adds	r0, r2, r1
 800542a:	4283      	cmp	r3, r0
 800542c:	6011      	str	r1, [r2, #0]
 800542e:	d1e0      	bne.n	80053f2 <_free_r+0x22>
 8005430:	6818      	ldr	r0, [r3, #0]
 8005432:	685b      	ldr	r3, [r3, #4]
 8005434:	4408      	add	r0, r1
 8005436:	6010      	str	r0, [r2, #0]
 8005438:	6053      	str	r3, [r2, #4]
 800543a:	e7da      	b.n	80053f2 <_free_r+0x22>
 800543c:	d902      	bls.n	8005444 <_free_r+0x74>
 800543e:	230c      	movs	r3, #12
 8005440:	602b      	str	r3, [r5, #0]
 8005442:	e7d6      	b.n	80053f2 <_free_r+0x22>
 8005444:	6820      	ldr	r0, [r4, #0]
 8005446:	1821      	adds	r1, r4, r0
 8005448:	428b      	cmp	r3, r1
 800544a:	bf01      	itttt	eq
 800544c:	6819      	ldreq	r1, [r3, #0]
 800544e:	685b      	ldreq	r3, [r3, #4]
 8005450:	1809      	addeq	r1, r1, r0
 8005452:	6021      	streq	r1, [r4, #0]
 8005454:	6063      	str	r3, [r4, #4]
 8005456:	6054      	str	r4, [r2, #4]
 8005458:	e7cb      	b.n	80053f2 <_free_r+0x22>
 800545a:	bd38      	pop	{r3, r4, r5, pc}
 800545c:	200007e8 	.word	0x200007e8

08005460 <sbrk_aligned>:
 8005460:	b570      	push	{r4, r5, r6, lr}
 8005462:	4e0f      	ldr	r6, [pc, #60]	@ (80054a0 <sbrk_aligned+0x40>)
 8005464:	460c      	mov	r4, r1
 8005466:	6831      	ldr	r1, [r6, #0]
 8005468:	4605      	mov	r5, r0
 800546a:	b911      	cbnz	r1, 8005472 <sbrk_aligned+0x12>
 800546c:	f000 fd7c 	bl	8005f68 <_sbrk_r>
 8005470:	6030      	str	r0, [r6, #0]
 8005472:	4621      	mov	r1, r4
 8005474:	4628      	mov	r0, r5
 8005476:	f000 fd77 	bl	8005f68 <_sbrk_r>
 800547a:	1c43      	adds	r3, r0, #1
 800547c:	d103      	bne.n	8005486 <sbrk_aligned+0x26>
 800547e:	f04f 34ff 	mov.w	r4, #4294967295
 8005482:	4620      	mov	r0, r4
 8005484:	bd70      	pop	{r4, r5, r6, pc}
 8005486:	1cc4      	adds	r4, r0, #3
 8005488:	f024 0403 	bic.w	r4, r4, #3
 800548c:	42a0      	cmp	r0, r4
 800548e:	d0f8      	beq.n	8005482 <sbrk_aligned+0x22>
 8005490:	1a21      	subs	r1, r4, r0
 8005492:	4628      	mov	r0, r5
 8005494:	f000 fd68 	bl	8005f68 <_sbrk_r>
 8005498:	3001      	adds	r0, #1
 800549a:	d1f2      	bne.n	8005482 <sbrk_aligned+0x22>
 800549c:	e7ef      	b.n	800547e <sbrk_aligned+0x1e>
 800549e:	bf00      	nop
 80054a0:	200007e4 	.word	0x200007e4

080054a4 <_malloc_r>:
 80054a4:	e92d 43f8 	stmdb	sp!, {r3, r4, r5, r6, r7, r8, r9, lr}
 80054a8:	1ccd      	adds	r5, r1, #3
 80054aa:	f025 0503 	bic.w	r5, r5, #3
 80054ae:	3508      	adds	r5, #8
 80054b0:	2d0c      	cmp	r5, #12
 80054b2:	bf38      	it	cc
 80054b4:	250c      	movcc	r5, #12
 80054b6:	2d00      	cmp	r5, #0
 80054b8:	4606      	mov	r6, r0
 80054ba:	db01      	blt.n	80054c0 <_malloc_r+0x1c>
 80054bc:	42a9      	cmp	r1, r5
 80054be:	d904      	bls.n	80054ca <_malloc_r+0x26>
 80054c0:	230c      	movs	r3, #12
 80054c2:	6033      	str	r3, [r6, #0]
 80054c4:	2000      	movs	r0, #0
 80054c6:	e8bd 83f8 	ldmia.w	sp!, {r3, r4, r5, r6, r7, r8, r9, pc}
 80054ca:	f8df 80d4 	ldr.w	r8, [pc, #212]	@ 80055a0 <_malloc_r+0xfc>
 80054ce:	f000 f869 	bl	80055a4 <__malloc_lock>
 80054d2:	f8d8 3000 	ldr.w	r3, [r8]
 80054d6:	461c      	mov	r4, r3
 80054d8:	bb44      	cbnz	r4, 800552c <_malloc_r+0x88>
 80054da:	4629      	mov	r1, r5
 80054dc:	4630      	mov	r0, r6
 80054de:	f7ff ffbf 	bl	8005460 <sbrk_aligned>
 80054e2:	1c43      	adds	r3, r0, #1
 80054e4:	4604      	mov	r4, r0
 80054e6:	d158      	bne.n	800559a <_malloc_r+0xf6>
 80054e8:	f8d8 4000 	ldr.w	r4, [r8]
 80054ec:	4627      	mov	r7, r4
 80054ee:	2f00      	cmp	r7, #0
 80054f0:	d143      	bne.n	800557a <_malloc_r+0xd6>
 80054f2:	2c00      	cmp	r4, #0
 80054f4:	d04b      	beq.n	800558e <_malloc_r+0xea>
 80054f6:	6823      	ldr	r3, [r4, #0]
 80054f8:	4639      	mov	r1, r7
 80054fa:	4630      	mov	r0, r6
 80054fc:	eb04 0903 	add.w	r9, r4, r3
 8005500:	f000 fd32 	bl	8005f68 <_sbrk_r>
 8005504:	4581      	cmp	r9, r0
 8005506:	d142      	bne.n	800558e <_malloc_r+0xea>
 8005508:	6821      	ldr	r1, [r4, #0]
 800550a:	4630      	mov	r0, r6
 800550c:	1a6d      	subs	r5, r5, r1
 800550e:	4629      	mov	r1, r5
 8005510:	f7ff ffa6 	bl	8005460 <sbrk_aligned>
 8005514:	3001      	adds	r0, #1
 8005516:	d03a      	beq.n	800558e <_malloc_r+0xea>
 8005518:	6823      	ldr	r3, [r4, #0]
 800551a:	442b      	add	r3, r5
 800551c:	6023      	str	r3, [r4, #0]
 800551e:	f8d8 3000 	ldr.w	r3, [r8]
 8005522:	685a      	ldr	r2, [r3, #4]
 8005524:	bb62      	cbnz	r2, 8005580 <_malloc_r+0xdc>
 8005526:	f8c8 7000 	str.w	r7, [r8]
 800552a:	e00f      	b.n	800554c <_malloc_r+0xa8>
 800552c:	6822      	ldr	r2, [r4, #0]
 800552e:	1b52      	subs	r2, r2, r5
 8005530:	d420      	bmi.n	8005574 <_malloc_r+0xd0>
 8005532:	2a0b      	cmp	r2, #11
 8005534:	d917      	bls.n	8005566 <_malloc_r+0xc2>
 8005536:	1961      	adds	r1, r4, r5
 8005538:	42a3      	cmp	r3, r4
 800553a:	6025      	str	r5, [r4, #0]
 800553c:	bf18      	it	ne
 800553e:	6059      	strne	r1, [r3, #4]
 8005540:	6863      	ldr	r3, [r4, #4]
 8005542:	bf08      	it	eq
 8005544:	f8c8 1000 	streq.w	r1, [r8]
 8005548:	5162      	str	r2, [r4, r5]
 800554a:	604b      	str	r3, [r1, #4]
 800554c:	4630      	mov	r0, r6
 800554e:	f000 f82f 	bl	80055b0 <__malloc_unlock>
 8005552:	f104 000b 	add.w	r0, r4, #11
 8005556:	1d23      	adds	r3, r4, #4
 8005558:	f020 0007 	bic.w	r0, r0, #7
 800555c:	1ac2      	subs	r2, r0, r3
 800555e:	bf1c      	itt	ne
 8005560:	1a1b      	subne	r3, r3, r0
 8005562:	50a3      	strne	r3, [r4, r2]
 8005564:	e7af      	b.n	80054c6 <_malloc_r+0x22>
 8005566:	6862      	ldr	r2, [r4, #4]
 8005568:	42a3      	cmp	r3, r4
 800556a:	bf0c      	ite	eq
 800556c:	f8c8 2000 	streq.w	r2, [r8]
 8005570:	605a      	strne	r2, [r3, #4]
 8005572:	e7eb      	b.n	800554c <_malloc_r+0xa8>
 8005574:	4623      	mov	r3, r4
 8005576:	6864      	ldr	r4, [r4, #4]
 8005578:	e7ae      	b.n	80054d8 <_malloc_r+0x34>
 800557a:	463c      	mov	r4, r7
 800557c:	687f      	ldr	r7, [r7, #4]
 800557e:	e7b6      	b.n	80054ee <_malloc_r+0x4a>
 8005580:	461a      	mov	r2, r3
 8005582:	685b      	ldr	r3, [r3, #4]
 8005584:	42a3      	cmp	r3, r4
 8005586:	d1fb      	bne.n	8005580 <_malloc_r+0xdc>
 8005588:	2300      	movs	r3, #0
 800558a:	6053      	str	r3, [r2, #4]
 800558c:	e7de      	b.n	800554c <_malloc_r+0xa8>
 800558e:	230c      	movs	r3, #12
 8005590:	4630      	mov	r0, r6
 8005592:	6033      	str	r3, [r6, #0]
 8005594:	f000 f80c 	bl	80055b0 <__malloc_unlock>
 8005598:	e794      	b.n	80054c4 <_malloc_r+0x20>
 800559a:	6005      	str	r5, [r0, #0]
 800559c:	e7d6      	b.n	800554c <_malloc_r+0xa8>
 800559e:	bf00      	nop
 80055a0:	200007e8 	.word	0x200007e8

080055a4 <__malloc_lock>:
 80055a4:	4801      	ldr	r0, [pc, #4]	@ (80055ac <__malloc_lock+0x8>)
 80055a6:	f7ff bf02 	b.w	80053ae <__retarget_lock_acquire_recursive>
 80055aa:	bf00      	nop
 80055ac:	200007e0 	.word	0x200007e0

080055b0 <__malloc_unlock>:
 80055b0:	4801      	ldr	r0, [pc, #4]	@ (80055b8 <__malloc_unlock+0x8>)
 80055b2:	f7ff befd 	b.w	80053b0 <__retarget_lock_release_recursive>
 80055b6:	bf00      	nop
 80055b8:	200007e0 	.word	0x200007e0

080055bc <__ssputs_r>:
 80055bc:	e92d 47f0 	stmdb	sp!, {r4, r5, r6, r7, r8, r9, sl, lr}
 80055c0:	461f      	mov	r7, r3
 80055c2:	688e      	ldr	r6, [r1, #8]
 80055c4:	4682      	mov	sl, r0
 80055c6:	42be      	cmp	r6, r7
 80055c8:	460c      	mov	r4, r1
 80055ca:	4690      	mov	r8, r2
 80055cc:	680b      	ldr	r3, [r1, #0]
 80055ce:	d82d      	bhi.n	800562c <__ssputs_r+0x70>
 80055d0:	f9b1 200c 	ldrsh.w	r2, [r1, #12]
 80055d4:	f412 6f90 	tst.w	r2, #1152	@ 0x480
 80055d8:	d026      	beq.n	8005628 <__ssputs_r+0x6c>
 80055da:	6965      	ldr	r5, [r4, #20]
 80055dc:	6909      	ldr	r1, [r1, #16]
 80055de:	eb05 0545 	add.w	r5, r5, r5, lsl #1
 80055e2:	eba3 0901 	sub.w	r9, r3, r1
 80055e6:	eb05 75d5 	add.w	r5, r5, r5, lsr #31
 80055ea:	1c7b      	adds	r3, r7, #1
 80055ec:	444b      	add	r3, r9
 80055ee:	106d      	asrs	r5, r5, #1
 80055f0:	429d      	cmp	r5, r3
 80055f2:	bf38      	it	cc
 80055f4:	461d      	movcc	r5, r3
 80055f6:	0553      	lsls	r3, r2, #21
 80055f8:	d527      	bpl.n	800564a <__ssputs_r+0x8e>
 80055fa:	4629      	mov	r1, r5
 80055fc:	f7ff ff52 	bl	80054a4 <_malloc_r>
 8005600:	4606      	mov	r6, r0
 8005602:	b360      	cbz	r0, 800565e <__ssputs_r+0xa2>
 8005604:	464a      	mov	r2, r9
 8005606:	6921      	ldr	r1, [r4, #16]
 8005608:	f7ff fed3 	bl	80053b2 <memcpy>
 800560c:	89a3      	ldrh	r3, [r4, #12]
 800560e:	f423 6390 	bic.w	r3, r3, #1152	@ 0x480
 8005612:	f043 0380 	orr.w	r3, r3, #128	@ 0x80
 8005616:	81a3      	strh	r3, [r4, #12]
 8005618:	6126      	str	r6, [r4, #16]
 800561a:	444e      	add	r6, r9
 800561c:	6026      	str	r6, [r4, #0]
 800561e:	463e      	mov	r6, r7
 8005620:	6165      	str	r5, [r4, #20]
 8005622:	eba5 0509 	sub.w	r5, r5, r9
 8005626:	60a5      	str	r5, [r4, #8]
 8005628:	42be      	cmp	r6, r7
 800562a:	d900      	bls.n	800562e <__ssputs_r+0x72>
 800562c:	463e      	mov	r6, r7
 800562e:	4632      	mov	r2, r6
 8005630:	4641      	mov	r1, r8
 8005632:	6820      	ldr	r0, [r4, #0]
 8005634:	f000 fc7e 	bl	8005f34 <memmove>
 8005638:	2000      	movs	r0, #0
 800563a:	68a3      	ldr	r3, [r4, #8]
 800563c:	1b9b      	subs	r3, r3, r6
 800563e:	60a3      	str	r3, [r4, #8]
 8005640:	6823      	ldr	r3, [r4, #0]
 8005642:	4433      	add	r3, r6
 8005644:	6023      	str	r3, [r4, #0]
 8005646:	e8bd 87f0 	ldmia.w	sp!, {r4, r5, r6, r7, r8, r9, sl, pc}
 800564a:	462a      	mov	r2, r5
 800564c:	f000 fcaa 	bl	8005fa4 <_realloc_r>
 8005650:	4606      	mov	r6, r0
 8005652:	2800      	cmp	r0, #0
 8005654:	d1e0      	bne.n	8005618 <__ssputs_r+0x5c>
 8005656:	4650      	mov	r0, sl
 8005658:	6921      	ldr	r1, [r4, #16]
 800565a:	f7ff feb9 	bl	80053d0 <_free_r>
 800565e:	230c      	movs	r3, #12
 8005660:	f8ca 3000 	str.w	r3, [sl]
 8005664:	89a3      	ldrh	r3, [r4, #12]
 8005666:	f04f 30ff 	mov.w	r0, #4294967295
 800566a:	f043 0340 	orr.w	r3, r3, #64	@ 0x40
 800566e:	81a3      	strh	r3, [r4, #12]
 8005670:	e7e9      	b.n	8005646 <__ssputs_r+0x8a>
	...

08005674 <_svfiprintf_r>:
 8005674:	e92d 4ff0 	stmdb	sp!, {r4, r5, r6, r7, r8, r9, sl, fp, lr}
 8005678:	4698      	mov	r8, r3
 800567a:	898b      	ldrh	r3, [r1, #12]
 800567c:	4607      	mov	r7, r0
 800567e:	061b      	lsls	r3, r3, #24
 8005680:	460d      	mov	r5, r1
 8005682:	4614      	mov	r4, r2
 8005684:	b09d      	sub	sp, #116	@ 0x74
 8005686:	d510      	bpl.n	80056aa <_svfiprintf_r+0x36>
 8005688:	690b      	ldr	r3, [r1, #16]
 800568a:	b973      	cbnz	r3, 80056aa <_svfiprintf_r+0x36>
 800568c:	2140      	movs	r1, #64	@ 0x40
 800568e:	f7ff ff09 	bl	80054a4 <_malloc_r>
 8005692:	6028      	str	r0, [r5, #0]
 8005694:	6128      	str	r0, [r5, #16]
 8005696:	b930      	cbnz	r0, 80056a6 <_svfiprintf_r+0x32>
 8005698:	230c      	movs	r3, #12
 800569a:	603b      	str	r3, [r7, #0]
 800569c:	f04f 30ff 	mov.w	r0, #4294967295
 80056a0:	b01d      	add	sp, #116	@ 0x74
 80056a2:	e8bd 8ff0 	ldmia.w	sp!, {r4, r5, r6, r7, r8, r9, sl, fp, pc}
 80056a6:	2340      	movs	r3, #64	@ 0x40
 80056a8:	616b      	str	r3, [r5, #20]
 80056aa:	2300      	movs	r3, #0
 80056ac:	9309      	str	r3, [sp, #36]	@ 0x24
 80056ae:	2320      	movs	r3, #32
 80056b0:	f88d 3029 	strb.w	r3, [sp, #41]	@ 0x29
 80056b4:	2330      	movs	r3, #48	@ 0x30
 80056b6:	f04f 0901 	mov.w	r9, #1
 80056ba:	f8cd 800c 	str.w	r8, [sp, #12]
 80056be:	f8df 8198 	ldr.w	r8, [pc, #408]	@ 8005858 <_svfiprintf_r+0x1e4>
 80056c2:	f88d 302a 	strb.w	r3, [sp, #42]	@ 0x2a
 80056c6:	4623      	mov	r3, r4
 80056c8:	469a      	mov	sl, r3
 80056ca:	f813 2b01 	ldrb.w	r2, [r3], #1
 80056ce:	b10a      	cbz	r2, 80056d4 <_svfiprintf_r+0x60>
 80056d0:	2a25      	cmp	r2, #37	@ 0x25
 80056d2:	d1f9      	bne.n	80056c8 <_svfiprintf_r+0x54>
 80056d4:	ebba 0b04 	subs.w	fp, sl, r4
 80056d8:	d00b      	beq.n	80056f2 <_svfiprintf_r+0x7e>
 80056da:	465b      	mov	r3, fp
 80056dc:	4622      	mov	r2, r4
 80056de:	4629      	mov	r1, r5
 80056e0:	4638      	mov	r0, r7
 80056e2:	f7ff ff6b 	bl	80055bc <__ssputs_r>
 80056e6:	3001      	adds	r0, #1
 80056e8:	f000 80a7 	beq.w	800583a <_svfiprintf_r+0x1c6>
 80056ec:	9a09      	ldr	r2, [sp, #36]	@ 0x24
 80056ee:	445a      	add	r2, fp
 80056f0:	9209      	str	r2, [sp, #36]	@ 0x24
 80056f2:	f89a 3000 	ldrb.w	r3, [sl]
 80056f6:	2b00      	cmp	r3, #0
 80056f8:	f000 809f 	beq.w	800583a <_svfiprintf_r+0x1c6>
 80056fc:	2300      	movs	r3, #0
 80056fe:	f04f 32ff 	mov.w	r2, #4294967295
 8005702:	e9cd 2305 	strd	r2, r3, [sp, #20]
 8005706:	f10a 0a01 	add.w	sl, sl, #1
 800570a:	9304      	str	r3, [sp, #16]
 800570c:	9307      	str	r3, [sp, #28]
 800570e:	f88d 3053 	strb.w	r3, [sp, #83]	@ 0x53
 8005712:	931a      	str	r3, [sp, #104]	@ 0x68
 8005714:	4654      	mov	r4, sl
 8005716:	2205      	movs	r2, #5
 8005718:	f814 1b01 	ldrb.w	r1, [r4], #1
 800571c:	484e      	ldr	r0, [pc, #312]	@ (8005858 <_svfiprintf_r+0x1e4>)
 800571e:	f000 fc33 	bl	8005f88 <memchr>
 8005722:	9a04      	ldr	r2, [sp, #16]
 8005724:	b9d8      	cbnz	r0, 800575e <_svfiprintf_r+0xea>
 8005726:	06d0      	lsls	r0, r2, #27
 8005728:	bf44      	itt	mi
 800572a:	2320      	movmi	r3, #32
 800572c:	f88d 3053 	strbmi.w	r3, [sp, #83]	@ 0x53
 8005730:	0711      	lsls	r1, r2, #28
 8005732:	bf44      	itt	mi
 8005734:	232b      	movmi	r3, #43	@ 0x2b
 8005736:	f88d 3053 	strbmi.w	r3, [sp, #83]	@ 0x53
 800573a:	f89a 3000 	ldrb.w	r3, [sl]
 800573e:	2b2a      	cmp	r3, #42	@ 0x2a
 8005740:	d015      	beq.n	800576e <_svfiprintf_r+0xfa>
 8005742:	4654      	mov	r4, sl
 8005744:	2000      	movs	r0, #0
 8005746:	f04f 0c0a 	mov.w	ip, #10
 800574a:	9a07      	ldr	r2, [sp, #28]
 800574c:	4621      	mov	r1, r4
 800574e:	f811 3b01 	ldrb.w	r3, [r1], #1
 8005752:	3b30      	subs	r3, #48	@ 0x30
 8005754:	2b09      	cmp	r3, #9
 8005756:	d94b      	bls.n	80057f0 <_svfiprintf_r+0x17c>
 8005758:	b1b0      	cbz	r0, 8005788 <_svfiprintf_r+0x114>
 800575a:	9207      	str	r2, [sp, #28]
 800575c:	e014      	b.n	8005788 <_svfiprintf_r+0x114>
 800575e:	eba0 0308 	sub.w	r3, r0, r8
 8005762:	fa09 f303 	lsl.w	r3, r9, r3
 8005766:	4313      	orrs	r3, r2
 8005768:	46a2      	mov	sl, r4
 800576a:	9304      	str	r3, [sp, #16]
 800576c:	e7d2      	b.n	8005714 <_svfiprintf_r+0xa0>
 800576e:	9b03      	ldr	r3, [sp, #12]
 8005770:	1d19      	adds	r1, r3, #4
 8005772:	681b      	ldr	r3, [r3, #0]
 8005774:	9103      	str	r1, [sp, #12]
 8005776:	2b00      	cmp	r3, #0
 8005778:	bfbb      	ittet	lt
 800577a:	425b      	neglt	r3, r3
 800577c:	f042 0202 	orrlt.w	r2, r2, #2
 8005780:	9307      	strge	r3, [sp, #28]
 8005782:	9307      	strlt	r3, [sp, #28]
 8005784:	bfb8      	it	lt
 8005786:	9204      	strlt	r2, [sp, #16]
 8005788:	7823      	ldrb	r3, [r4, #0]
 800578a:	2b2e      	cmp	r3, #46	@ 0x2e
 800578c:	d10a      	bne.n	80057a4 <_svfiprintf_r+0x130>
 800578e:	7863      	ldrb	r3, [r4, #1]
 8005790:	2b2a      	cmp	r3, #42	@ 0x2a
 8005792:	d132      	bne.n	80057fa <_svfiprintf_r+0x186>
 8005794:	9b03      	ldr	r3, [sp, #12]
 8005796:	3402      	adds	r4, #2
 8005798:	1d1a      	adds	r2, r3, #4
 800579a:	681b      	ldr	r3, [r3, #0]
 800579c:	9203      	str	r2, [sp, #12]
 800579e:	ea43 73e3 	orr.w	r3, r3, r3, asr #31
 80057a2:	9305      	str	r3, [sp, #20]
 80057a4:	f8df a0b4 	ldr.w	sl, [pc, #180]	@ 800585c <_svfiprintf_r+0x1e8>
 80057a8:	2203      	movs	r2, #3
 80057aa:	4650      	mov	r0, sl
 80057ac:	7821      	ldrb	r1, [r4, #0]
 80057ae:	f000 fbeb 	bl	8005f88 <memchr>
 80057b2:	b138      	cbz	r0, 80057c4 <_svfiprintf_r+0x150>
 80057b4:	2240      	movs	r2, #64	@ 0x40
 80057b6:	9b04      	ldr	r3, [sp, #16]
 80057b8:	eba0 000a 	sub.w	r0, r0, sl
 80057bc:	4082      	lsls	r2, r0
 80057be:	4313      	orrs	r3, r2
 80057c0:	3401      	adds	r4, #1
 80057c2:	9304      	str	r3, [sp, #16]
 80057c4:	f814 1b01 	ldrb.w	r1, [r4], #1
 80057c8:	2206      	movs	r2, #6
 80057ca:	4825      	ldr	r0, [pc, #148]	@ (8005860 <_svfiprintf_r+0x1ec>)
 80057cc:	f88d 1028 	strb.w	r1, [sp, #40]	@ 0x28
 80057d0:	f000 fbda 	bl	8005f88 <memchr>
 80057d4:	2800      	cmp	r0, #0
 80057d6:	d036      	beq.n	8005846 <_svfiprintf_r+0x1d2>
 80057d8:	4b22      	ldr	r3, [pc, #136]	@ (8005864 <_svfiprintf_r+0x1f0>)
 80057da:	bb1b      	cbnz	r3, 8005824 <_svfiprintf_r+0x1b0>
 80057dc:	9b03      	ldr	r3, [sp, #12]
 80057de:	3307      	adds	r3, #7
 80057e0:	f023 0307 	bic.w	r3, r3, #7
 80057e4:	3308      	adds	r3, #8
 80057e6:	9303      	str	r3, [sp, #12]
 80057e8:	9b09      	ldr	r3, [sp, #36]	@ 0x24
 80057ea:	4433      	add	r3, r6
 80057ec:	9309      	str	r3, [sp, #36]	@ 0x24
 80057ee:	e76a      	b.n	80056c6 <_svfiprintf_r+0x52>
 80057f0:	460c      	mov	r4, r1
 80057f2:	2001      	movs	r0, #1
 80057f4:	fb0c 3202 	mla	r2, ip, r2, r3
 80057f8:	e7a8      	b.n	800574c <_svfiprintf_r+0xd8>
 80057fa:	2300      	movs	r3, #0
 80057fc:	f04f 0c0a 	mov.w	ip, #10
 8005800:	4619      	mov	r1, r3
 8005802:	3401      	adds	r4, #1
 8005804:	9305      	str	r3, [sp, #20]
 8005806:	4620      	mov	r0, r4
 8005808:	f810 2b01 	ldrb.w	r2, [r0], #1
 800580c:	3a30      	subs	r2, #48	@ 0x30
 800580e:	2a09      	cmp	r2, #9
 8005810:	d903      	bls.n	800581a <_svfiprintf_r+0x1a6>
 8005812:	2b00      	cmp	r3, #0
 8005814:	d0c6      	beq.n	80057a4 <_svfiprintf_r+0x130>
 8005816:	9105      	str	r1, [sp, #20]
 8005818:	e7c4      	b.n	80057a4 <_svfiprintf_r+0x130>
 800581a:	4604      	mov	r4, r0
 800581c:	2301      	movs	r3, #1
 800581e:	fb0c 2101 	mla	r1, ip, r1, r2
 8005822:	e7f0      	b.n	8005806 <_svfiprintf_r+0x192>
 8005824:	ab03      	add	r3, sp, #12
 8005826:	9300      	str	r3, [sp, #0]
 8005828:	462a      	mov	r2, r5
 800582a:	4638      	mov	r0, r7
 800582c:	4b0e      	ldr	r3, [pc, #56]	@ (8005868 <_svfiprintf_r+0x1f4>)
 800582e:	a904      	add	r1, sp, #16
 8005830:	f3af 8000 	nop.w
 8005834:	1c42      	adds	r2, r0, #1
 8005836:	4606      	mov	r6, r0
 8005838:	d1d6      	bne.n	80057e8 <_svfiprintf_r+0x174>
 800583a:	89ab      	ldrh	r3, [r5, #12]
 800583c:	065b      	lsls	r3, r3, #25
 800583e:	f53f af2d 	bmi.w	800569c <_svfiprintf_r+0x28>
 8005842:	9809      	ldr	r0, [sp, #36]	@ 0x24
 8005844:	e72c      	b.n	80056a0 <_svfiprintf_r+0x2c>
 8005846:	ab03      	add	r3, sp, #12
 8005848:	9300      	str	r3, [sp, #0]
 800584a:	462a      	mov	r2, r5
 800584c:	4638      	mov	r0, r7
 800584e:	4b06      	ldr	r3, [pc, #24]	@ (8005868 <_svfiprintf_r+0x1f4>)
 8005850:	a904      	add	r1, sp, #16
 8005852:	f000 f9bd 	bl	8005bd0 <_printf_i>
 8005856:	e7ed      	b.n	8005834 <_svfiprintf_r+0x1c0>
 8005858:	08006596 	.word	0x08006596
 800585c:	0800659c 	.word	0x0800659c
 8005860:	080065a0 	.word	0x080065a0
 8005864:	00000000 	.word	0x00000000
 8005868:	080055bd 	.word	0x080055bd

0800586c <__sfputc_r>:
 800586c:	6893      	ldr	r3, [r2, #8]
 800586e:	b410      	push	{r4}
 8005870:	3b01      	subs	r3, #1
 8005872:	2b00      	cmp	r3, #0
 8005874:	6093      	str	r3, [r2, #8]
 8005876:	da07      	bge.n	8005888 <__sfputc_r+0x1c>
 8005878:	6994      	ldr	r4, [r2, #24]
 800587a:	42a3      	cmp	r3, r4
 800587c:	db01      	blt.n	8005882 <__sfputc_r+0x16>
 800587e:	290a      	cmp	r1, #10
 8005880:	d102      	bne.n	8005888 <__sfputc_r+0x1c>
 8005882:	bc10      	pop	{r4}
 8005884:	f000 bac2 	b.w	8005e0c <__swbuf_r>
 8005888:	6813      	ldr	r3, [r2, #0]
 800588a:	1c58      	adds	r0, r3, #1
 800588c:	6010      	str	r0, [r2, #0]
 800588e:	7019      	strb	r1, [r3, #0]
 8005890:	4608      	mov	r0, r1
 8005892:	bc10      	pop	{r4}
 8005894:	4770      	bx	lr

08005896 <__sfputs_r>:
 8005896:	b5f8      	push	{r3, r4, r5, r6, r7, lr}
 8005898:	4606      	mov	r6, r0
 800589a:	460f      	mov	r7, r1
 800589c:	4614      	mov	r4, r2
 800589e:	18d5      	adds	r5, r2, r3
 80058a0:	42ac      	cmp	r4, r5
 80058a2:	d101      	bne.n	80058a8 <__sfputs_r+0x12>
 80058a4:	2000      	movs	r0, #0
 80058a6:	e007      	b.n	80058b8 <__sfputs_r+0x22>
 80058a8:	463a      	mov	r2, r7
 80058aa:	4630      	mov	r0, r6
 80058ac:	f814 1b01 	ldrb.w	r1, [r4], #1
 80058b0:	f7ff ffdc 	bl	800586c <__sfputc_r>
 80058b4:	1c43      	adds	r3, r0, #1
 80058b6:	d1f3      	bne.n	80058a0 <__sfputs_r+0xa>
 80058b8:	bdf8      	pop	{r3, r4, r5, r6, r7, pc}
	...

080058bc <_vfiprintf_r>:
 80058bc:	e92d 4ff0 	stmdb	sp!, {r4, r5, r6, r7, r8, r9, sl, fp, lr}
 80058c0:	460d      	mov	r5, r1
 80058c2:	4614      	mov	r4, r2
 80058c4:	4698      	mov	r8, r3
 80058c6:	4606      	mov	r6, r0
 80058c8:	b09d      	sub	sp, #116	@ 0x74
 80058ca:	b118      	cbz	r0, 80058d4 <_vfiprintf_r+0x18>
 80058cc:	6a03      	ldr	r3, [r0, #32]
 80058ce:	b90b      	cbnz	r3, 80058d4 <_vfiprintf_r+0x18>
 80058d0:	f7ff fc32 	bl	8005138 <__sinit>
 80058d4:	6e6b      	ldr	r3, [r5, #100]	@ 0x64
 80058d6:	07d9      	lsls	r1, r3, #31
 80058d8:	d405      	bmi.n	80058e6 <_vfiprintf_r+0x2a>
 80058da:	89ab      	ldrh	r3, [r5, #12]
 80058dc:	059a      	lsls	r2, r3, #22
 80058de:	d402      	bmi.n	80058e6 <_vfiprintf_r+0x2a>
 80058e0:	6da8      	ldr	r0, [r5, #88]	@ 0x58
 80058e2:	f7ff fd64 	bl	80053ae <__retarget_lock_acquire_recursive>
 80058e6:	89ab      	ldrh	r3, [r5, #12]
 80058e8:	071b      	lsls	r3, r3, #28
 80058ea:	d501      	bpl.n	80058f0 <_vfiprintf_r+0x34>
 80058ec:	692b      	ldr	r3, [r5, #16]
 80058ee:	b99b      	cbnz	r3, 8005918 <_vfiprintf_r+0x5c>
 80058f0:	4629      	mov	r1, r5
 80058f2:	4630      	mov	r0, r6
 80058f4:	f000 fac8 	bl	8005e88 <__swsetup_r>
 80058f8:	b170      	cbz	r0, 8005918 <_vfiprintf_r+0x5c>
 80058fa:	6e6b      	ldr	r3, [r5, #100]	@ 0x64
 80058fc:	07dc      	lsls	r4, r3, #31
 80058fe:	d504      	bpl.n	800590a <_vfiprintf_r+0x4e>
 8005900:	f04f 30ff 	mov.w	r0, #4294967295
 8005904:	b01d      	add	sp, #116	@ 0x74
 8005906:	e8bd 8ff0 	ldmia.w	sp!, {r4, r5, r6, r7, r8, r9, sl, fp, pc}
 800590a:	89ab      	ldrh	r3, [r5, #12]
 800590c:	0598      	lsls	r0, r3, #22
 800590e:	d4f7      	bmi.n	8005900 <_vfiprintf_r+0x44>
 8005910:	6da8      	ldr	r0, [r5, #88]	@ 0x58
 8005912:	f7ff fd4d 	bl	80053b0 <__retarget_lock_release_recursive>
 8005916:	e7f3      	b.n	8005900 <_vfiprintf_r+0x44>
 8005918:	2300      	movs	r3, #0
 800591a:	9309      	str	r3, [sp, #36]	@ 0x24
 800591c:	2320      	movs	r3, #32
 800591e:	f88d 3029 	strb.w	r3, [sp, #41]	@ 0x29
 8005922:	2330      	movs	r3, #48	@ 0x30
 8005924:	f04f 0901 	mov.w	r9, #1
 8005928:	f8cd 800c 	str.w	r8, [sp, #12]
 800592c:	f8df 81a8 	ldr.w	r8, [pc, #424]	@ 8005ad8 <_vfiprintf_r+0x21c>
 8005930:	f88d 302a 	strb.w	r3, [sp, #42]	@ 0x2a
 8005934:	4623      	mov	r3, r4
 8005936:	469a      	mov	sl, r3
 8005938:	f813 2b01 	ldrb.w	r2, [r3], #1
 800593c:	b10a      	cbz	r2, 8005942 <_vfiprintf_r+0x86>
 800593e:	2a25      	cmp	r2, #37	@ 0x25
 8005940:	d1f9      	bne.n	8005936 <_vfiprintf_r+0x7a>
 8005942:	ebba 0b04 	subs.w	fp, sl, r4
 8005946:	d00b      	beq.n	8005960 <_vfiprintf_r+0xa4>
 8005948:	465b      	mov	r3, fp
 800594a:	4622      	mov	r2, r4
 800594c:	4629      	mov	r1, r5
 800594e:	4630      	mov	r0, r6
 8005950:	f7ff ffa1 	bl	8005896 <__sfputs_r>
 8005954:	3001      	adds	r0, #1
 8005956:	f000 80a7 	beq.w	8005aa8 <_vfiprintf_r+0x1ec>
 800595a:	9a09      	ldr	r2, [sp, #36]	@ 0x24
 800595c:	445a      	add	r2, fp
 800595e:	9209      	str	r2, [sp, #36]	@ 0x24
 8005960:	f89a 3000 	ldrb.w	r3, [sl]
 8005964:	2b00      	cmp	r3, #0
 8005966:	f000 809f 	beq.w	8005aa8 <_vfiprintf_r+0x1ec>
 800596a:	2300      	movs	r3, #0
 800596c:	f04f 32ff 	mov.w	r2, #4294967295
 8005970:	e9cd 2305 	strd	r2, r3, [sp, #20]
 8005974:	f10a 0a01 	add.w	sl, sl, #1
 8005978:	9304      	str	r3, [sp, #16]
 800597a:	9307      	str	r3, [sp, #28]
 800597c:	f88d 3053 	strb.w	r3, [sp, #83]	@ 0x53
 8005980:	931a      	str	r3, [sp, #104]	@ 0x68
 8005982:	4654      	mov	r4, sl
 8005984:	2205      	movs	r2, #5
 8005986:	f814 1b01 	ldrb.w	r1, [r4], #1
 800598a:	4853      	ldr	r0, [pc, #332]	@ (8005ad8 <_vfiprintf_r+0x21c>)
 800598c:	f000 fafc 	bl	8005f88 <memchr>
 8005990:	9a04      	ldr	r2, [sp, #16]
 8005992:	b9d8      	cbnz	r0, 80059cc <_vfiprintf_r+0x110>
 8005994:	06d1      	lsls	r1, r2, #27
 8005996:	bf44      	itt	mi
 8005998:	2320      	movmi	r3, #32
 800599a:	f88d 3053 	strbmi.w	r3, [sp, #83]	@ 0x53
 800599e:	0713      	lsls	r3, r2, #28
 80059a0:	bf44      	itt	mi
 80059a2:	232b      	movmi	r3, #43	@ 0x2b
 80059a4:	f88d 3053 	strbmi.w	r3, [sp, #83]	@ 0x53
 80059a8:	f89a 3000 	ldrb.w	r3, [sl]
 80059ac:	2b2a      	cmp	r3, #42	@ 0x2a
 80059ae:	d015      	beq.n	80059dc <_vfiprintf_r+0x120>
 80059b0:	4654      	mov	r4, sl
 80059b2:	2000      	movs	r0, #0
 80059b4:	f04f 0c0a 	mov.w	ip, #10
 80059b8:	9a07      	ldr	r2, [sp, #28]
 80059ba:	4621      	mov	r1, r4
 80059bc:	f811 3b01 	ldrb.w	r3, [r1], #1
 80059c0:	3b30      	subs	r3, #48	@ 0x30
 80059c2:	2b09      	cmp	r3, #9
 80059c4:	d94b      	bls.n	8005a5e <_vfiprintf_r+0x1a2>
 80059c6:	b1b0      	cbz	r0, 80059f6 <_vfiprintf_r+0x13a>
 80059c8:	9207      	str	r2, [sp, #28]
 80059ca:	e014      	b.n	80059f6 <_vfiprintf_r+0x13a>
 80059cc:	eba0 0308 	sub.w	r3, r0, r8
 80059d0:	fa09 f303 	lsl.w	r3, r9, r3
 80059d4:	4313      	orrs	r3, r2
 80059d6:	46a2      	mov	sl, r4
 80059d8:	9304      	str	r3, [sp, #16]
 80059da:	e7d2      	b.n	8005982 <_vfiprintf_r+0xc6>
 80059dc:	9b03      	ldr	r3, [sp, #12]
 80059de:	1d19      	adds	r1, r3, #4
 80059e0:	681b      	ldr	r3, [r3, #0]
 80059e2:	9103      	str	r1, [sp, #12]
 80059e4:	2b00      	cmp	r3, #0
 80059e6:	bfbb      	ittet	lt
 80059e8:	425b      	neglt	r3, r3
 80059ea:	f042 0202 	orrlt.w	r2, r2, #2
 80059ee:	9307      	strge	r3, [sp, #28]
 80059f0:	9307      	strlt	r3, [sp, #28]
 80059f2:	bfb8      	it	lt
 80059f4:	9204      	strlt	r2, [sp, #16]
 80059f6:	7823      	ldrb	r3, [r4, #0]
 80059f8:	2b2e      	cmp	r3, #46	@ 0x2e
 80059fa:	d10a      	bne.n	8005a12 <_vfiprintf_r+0x156>
 80059fc:	7863      	ldrb	r3, [r4, #1]
 80059fe:	2b2a      	cmp	r3, #42	@ 0x2a
 8005a00:	d132      	bne.n	8005a68 <_vfiprintf_r+0x1ac>
 8005a02:	9b03      	ldr	r3, [sp, #12]
 8005a04:	3402      	adds	r4, #2
 8005a06:	1d1a      	adds	r2, r3, #4
 8005a08:	681b      	ldr	r3, [r3, #0]
 8005a0a:	9203      	str	r2, [sp, #12]
 8005a0c:	ea43 73e3 	orr.w	r3, r3, r3, asr #31
 8005a10:	9305      	str	r3, [sp, #20]
 8005a12:	f8df a0c8 	ldr.w	sl, [pc, #200]	@ 8005adc <_vfiprintf_r+0x220>
 8005a16:	2203      	movs	r2, #3
 8005a18:	4650      	mov	r0, sl
 8005a1a:	7821      	ldrb	r1, [r4, #0]
 8005a1c:	f000 fab4 	bl	8005f88 <memchr>
 8005a20:	b138      	cbz	r0, 8005a32 <_vfiprintf_r+0x176>
 8005a22:	2240      	movs	r2, #64	@ 0x40
 8005a24:	9b04      	ldr	r3, [sp, #16]
 8005a26:	eba0 000a 	sub.w	r0, r0, sl
 8005a2a:	4082      	lsls	r2, r0
 8005a2c:	4313      	orrs	r3, r2
 8005a2e:	3401      	adds	r4, #1
 8005a30:	9304      	str	r3, [sp, #16]
 8005a32:	f814 1b01 	ldrb.w	r1, [r4], #1
 8005a36:	2206      	movs	r2, #6
 8005a38:	4829      	ldr	r0, [pc, #164]	@ (8005ae0 <_vfiprintf_r+0x224>)
 8005a3a:	f88d 1028 	strb.w	r1, [sp, #40]	@ 0x28
 8005a3e:	f000 faa3 	bl	8005f88 <memchr>
 8005a42:	2800      	cmp	r0, #0
 8005a44:	d03f      	beq.n	8005ac6 <_vfiprintf_r+0x20a>
 8005a46:	4b27      	ldr	r3, [pc, #156]	@ (8005ae4 <_vfiprintf_r+0x228>)
 8005a48:	bb1b      	cbnz	r3, 8005a92 <_vfiprintf_r+0x1d6>
 8005a4a:	9b03      	ldr	r3, [sp, #12]
 8005a4c:	3307      	adds	r3, #7
 8005a4e:	f023 0307 	bic.w	r3, r3, #7
 8005a52:	3308      	adds	r3, #8
 8005a54:	9303      	str	r3, [sp, #12]
 8005a56:	9b09      	ldr	r3, [sp, #36]	@ 0x24
 8005a58:	443b      	add	r3, r7
 8005a5a:	9309      	str	r3, [sp, #36]	@ 0x24
 8005a5c:	e76a      	b.n	8005934 <_vfiprintf_r+0x78>
 8005a5e:	460c      	mov	r4, r1
 8005a60:	2001      	movs	r0, #1
 8005a62:	fb0c 3202 	mla	r2, ip, r2, r3
 8005a66:	e7a8      	b.n	80059ba <_vfiprintf_r+0xfe>
 8005a68:	2300      	movs	r3, #0
 8005a6a:	f04f 0c0a 	mov.w	ip, #10
 8005a6e:	4619      	mov	r1, r3
 8005a70:	3401      	adds	r4, #1
 8005a72:	9305      	str	r3, [sp, #20]
 8005a74:	4620      	mov	r0, r4
 8005a76:	f810 2b01 	ldrb.w	r2, [r0], #1
 8005a7a:	3a30      	subs	r2, #48	@ 0x30
 8005a7c:	2a09      	cmp	r2, #9
 8005a7e:	d903      	bls.n	8005a88 <_vfiprintf_r+0x1cc>
 8005a80:	2b00      	cmp	r3, #0
 8005a82:	d0c6      	beq.n	8005a12 <_vfiprintf_r+0x156>
 8005a84:	9105      	str	r1, [sp, #20]
 8005a86:	e7c4      	b.n	8005a12 <_vfiprintf_r+0x156>
 8005a88:	4604      	mov	r4, r0
 8005a8a:	2301      	movs	r3, #1
 8005a8c:	fb0c 2101 	mla	r1, ip, r1, r2
 8005a90:	e7f0      	b.n	8005a74 <_vfiprintf_r+0x1b8>
 8005a92:	ab03      	add	r3, sp, #12
 8005a94:	9300      	str	r3, [sp, #0]
 8005a96:	462a      	mov	r2, r5
 8005a98:	4630      	mov	r0, r6
 8005a9a:	4b13      	ldr	r3, [pc, #76]	@ (8005ae8 <_vfiprintf_r+0x22c>)
 8005a9c:	a904      	add	r1, sp, #16
 8005a9e:	f3af 8000 	nop.w
 8005aa2:	4607      	mov	r7, r0
 8005aa4:	1c78      	adds	r0, r7, #1
 8005aa6:	d1d6      	bne.n	8005a56 <_vfiprintf_r+0x19a>
 8005aa8:	6e6b      	ldr	r3, [r5, #100]	@ 0x64
 8005aaa:	07d9      	lsls	r1, r3, #31
 8005aac:	d405      	bmi.n	8005aba <_vfiprintf_r+0x1fe>
 8005aae:	89ab      	ldrh	r3, [r5, #12]
 8005ab0:	059a      	lsls	r2, r3, #22
 8005ab2:	d402      	bmi.n	8005aba <_vfiprintf_r+0x1fe>
 8005ab4:	6da8      	ldr	r0, [r5, #88]	@ 0x58
 8005ab6:	f7ff fc7b 	bl	80053b0 <__retarget_lock_release_recursive>
 8005aba:	89ab      	ldrh	r3, [r5, #12]
 8005abc:	065b      	lsls	r3, r3, #25
 8005abe:	f53f af1f 	bmi.w	8005900 <_vfiprintf_r+0x44>
 8005ac2:	9809      	ldr	r0, [sp, #36]	@ 0x24
 8005ac4:	e71e      	b.n	8005904 <_vfiprintf_r+0x48>
 8005ac6:	ab03      	add	r3, sp, #12
 8005ac8:	9300      	str	r3, [sp, #0]
 8005aca:	462a      	mov	r2, r5
 8005acc:	4630      	mov	r0, r6
 8005ace:	4b06      	ldr	r3, [pc, #24]	@ (8005ae8 <_vfiprintf_r+0x22c>)
 8005ad0:	a904      	add	r1, sp, #16
 8005ad2:	f000 f87d 	bl	8005bd0 <_printf_i>
 8005ad6:	e7e4      	b.n	8005aa2 <_vfiprintf_r+0x1e6>
 8005ad8:	08006596 	.word	0x08006596
 8005adc:	0800659c 	.word	0x0800659c
 8005ae0:	080065a0 	.word	0x080065a0
 8005ae4:	00000000 	.word	0x00000000
 8005ae8:	08005897 	.word	0x08005897

08005aec <_printf_common>:
 8005aec:	e92d 47f0 	stmdb	sp!, {r4, r5, r6, r7, r8, r9, sl, lr}
 8005af0:	4616      	mov	r6, r2
 8005af2:	4698      	mov	r8, r3
 8005af4:	688a      	ldr	r2, [r1, #8]
 8005af6:	690b      	ldr	r3, [r1, #16]
 8005af8:	4607      	mov	r7, r0
 8005afa:	4293      	cmp	r3, r2
 8005afc:	bfb8      	it	lt
 8005afe:	4613      	movlt	r3, r2
 8005b00:	6033      	str	r3, [r6, #0]
 8005b02:	f891 2043 	ldrb.w	r2, [r1, #67]	@ 0x43
 8005b06:	460c      	mov	r4, r1
 8005b08:	f8dd 9020 	ldr.w	r9, [sp, #32]
 8005b0c:	b10a      	cbz	r2, 8005b12 <_printf_common+0x26>
 8005b0e:	3301      	adds	r3, #1
 8005b10:	6033      	str	r3, [r6, #0]
 8005b12:	6823      	ldr	r3, [r4, #0]
 8005b14:	0699      	lsls	r1, r3, #26
 8005b16:	bf42      	ittt	mi
 8005b18:	6833      	ldrmi	r3, [r6, #0]
 8005b1a:	3302      	addmi	r3, #2
 8005b1c:	6033      	strmi	r3, [r6, #0]
 8005b1e:	6825      	ldr	r5, [r4, #0]
 8005b20:	f015 0506 	ands.w	r5, r5, #6
 8005b24:	d106      	bne.n	8005b34 <_printf_common+0x48>
 8005b26:	f104 0a19 	add.w	sl, r4, #25
 8005b2a:	68e3      	ldr	r3, [r4, #12]
 8005b2c:	6832      	ldr	r2, [r6, #0]
 8005b2e:	1a9b      	subs	r3, r3, r2
 8005b30:	42ab      	cmp	r3, r5
 8005b32:	dc2b      	bgt.n	8005b8c <_printf_common+0xa0>
 8005b34:	f894 3043 	ldrb.w	r3, [r4, #67]	@ 0x43
 8005b38:	6822      	ldr	r2, [r4, #0]
 8005b3a:	3b00      	subs	r3, #0
 8005b3c:	bf18      	it	ne
 8005b3e:	2301      	movne	r3, #1
 8005b40:	0692      	lsls	r2, r2, #26
 8005b42:	d430      	bmi.n	8005ba6 <_printf_common+0xba>
 8005b44:	4641      	mov	r1, r8
 8005b46:	4638      	mov	r0, r7
 8005b48:	f104 0243 	add.w	r2, r4, #67	@ 0x43
 8005b4c:	47c8      	blx	r9
 8005b4e:	3001      	adds	r0, #1
 8005b50:	d023      	beq.n	8005b9a <_printf_common+0xae>
 8005b52:	6823      	ldr	r3, [r4, #0]
 8005b54:	6922      	ldr	r2, [r4, #16]
 8005b56:	f003 0306 	and.w	r3, r3, #6
 8005b5a:	2b04      	cmp	r3, #4
 8005b5c:	bf14      	ite	ne
 8005b5e:	2500      	movne	r5, #0
 8005b60:	6833      	ldreq	r3, [r6, #0]
 8005b62:	f04f 0600 	mov.w	r6, #0
 8005b66:	bf08      	it	eq
 8005b68:	68e5      	ldreq	r5, [r4, #12]
 8005b6a:	f104 041a 	add.w	r4, r4, #26
 8005b6e:	bf08      	it	eq
 8005b70:	1aed      	subeq	r5, r5, r3
 8005b72:	f854 3c12 	ldr.w	r3, [r4, #-18]
 8005b76:	bf08      	it	eq
 8005b78:	ea25 75e5 	biceq.w	r5, r5, r5, asr #31
 8005b7c:	4293      	cmp	r3, r2
 8005b7e:	bfc4      	itt	gt
 8005b80:	1a9b      	subgt	r3, r3, r2
 8005b82:	18ed      	addgt	r5, r5, r3
 8005b84:	42b5      	cmp	r5, r6
 8005b86:	d11a      	bne.n	8005bbe <_printf_common+0xd2>
 8005b88:	2000      	movs	r0, #0
 8005b8a:	e008      	b.n	8005b9e <_printf_common+0xb2>
 8005b8c:	2301      	movs	r3, #1
 8005b8e:	4652      	mov	r2, sl
 8005b90:	4641      	mov	r1, r8
 8005b92:	4638      	mov	r0, r7
 8005b94:	47c8      	blx	r9
 8005b96:	3001      	adds	r0, #1
 8005b98:	d103      	bne.n	8005ba2 <_printf_common+0xb6>
 8005b9a:	f04f 30ff 	mov.w	r0, #4294967295
 8005b9e:	e8bd 87f0 	ldmia.w	sp!, {r4, r5, r6, r7, r8, r9, sl, pc}
 8005ba2:	3501      	adds	r5, #1
 8005ba4:	e7c1      	b.n	8005b2a <_printf_common+0x3e>
 8005ba6:	2030      	movs	r0, #48	@ 0x30
 8005ba8:	18e1      	adds	r1, r4, r3
 8005baa:	f881 0043 	strb.w	r0, [r1, #67]	@ 0x43
 8005bae:	1c5a      	adds	r2, r3, #1
 8005bb0:	f894 1045 	ldrb.w	r1, [r4, #69]	@ 0x45
 8005bb4:	4422      	add	r2, r4
 8005bb6:	3302      	adds	r3, #2
 8005bb8:	f882 1043 	strb.w	r1, [r2, #67]	@ 0x43
 8005bbc:	e7c2      	b.n	8005b44 <_printf_common+0x58>
 8005bbe:	2301      	movs	r3, #1
 8005bc0:	4622      	mov	r2, r4
 8005bc2:	4641      	mov	r1, r8
 8005bc4:	4638      	mov	r0, r7
 8005bc6:	47c8      	blx	r9
 8005bc8:	3001      	adds	r0, #1
 8005bca:	d0e6      	beq.n	8005b9a <_printf_common+0xae>
 8005bcc:	3601      	adds	r6, #1
 8005bce:	e7d9      	b.n	8005b84 <_printf_common+0x98>

08005bd0 <_printf_i>:
 8005bd0:	e92d 47ff 	stmdb	sp!, {r0, r1, r2, r3, r4, r5, r6, r7, r8, r9, sl, lr}
 8005bd4:	7e0f      	ldrb	r7, [r1, #24]
 8005bd6:	4691      	mov	r9, r2
 8005bd8:	2f78      	cmp	r7, #120	@ 0x78
 8005bda:	4680      	mov	r8, r0
 8005bdc:	460c      	mov	r4, r1
 8005bde:	469a      	mov	sl, r3
 8005be0:	9e0c      	ldr	r6, [sp, #48]	@ 0x30
 8005be2:	f101 0243 	add.w	r2, r1, #67	@ 0x43
 8005be6:	d807      	bhi.n	8005bf8 <_printf_i+0x28>
 8005be8:	2f62      	cmp	r7, #98	@ 0x62
 8005bea:	d80a      	bhi.n	8005c02 <_printf_i+0x32>
 8005bec:	2f00      	cmp	r7, #0
 8005bee:	f000 80d1 	beq.w	8005d94 <_printf_i+0x1c4>
 8005bf2:	2f58      	cmp	r7, #88	@ 0x58
 8005bf4:	f000 80b8 	beq.w	8005d68 <_printf_i+0x198>
 8005bf8:	f104 0642 	add.w	r6, r4, #66	@ 0x42
 8005bfc:	f884 7042 	strb.w	r7, [r4, #66]	@ 0x42
 8005c00:	e03a      	b.n	8005c78 <_printf_i+0xa8>
 8005c02:	f1a7 0363 	sub.w	r3, r7, #99	@ 0x63
 8005c06:	2b15      	cmp	r3, #21
 8005c08:	d8f6      	bhi.n	8005bf8 <_printf_i+0x28>
 8005c0a:	a101      	add	r1, pc, #4	@ (adr r1, 8005c10 <_printf_i+0x40>)
 8005c0c:	f851 f023 	ldr.w	pc, [r1, r3, lsl #2]
 8005c10:	08005c69 	.word	0x08005c69
 8005c14:	08005c7d 	.word	0x08005c7d
 8005c18:	08005bf9 	.word	0x08005bf9
 8005c1c:	08005bf9 	.word	0x08005bf9
 8005c20:	08005bf9 	.word	0x08005bf9
 8005c24:	08005bf9 	.word	0x08005bf9
 8005c28:	08005c7d 	.word	0x08005c7d
 8005c2c:	08005bf9 	.word	0x08005bf9
 8005c30:	08005bf9 	.word	0x08005bf9
 8005c34:	08005bf9 	.word	0x08005bf9
 8005c38:	08005bf9 	.word	0x08005bf9
 8005c3c:	08005d7b 	.word	0x08005d7b
 8005c40:	08005ca7 	.word	0x08005ca7
 8005c44:	08005d35 	.word	0x08005d35
 8005c48:	08005bf9 	.word	0x08005bf9
 8005c4c:	08005bf9 	.word	0x08005bf9
 8005c50:	08005d9d 	.word	0x08005d9d
 8005c54:	08005bf9 	.word	0x08005bf9
 8005c58:	08005ca7 	.word	0x08005ca7
 8005c5c:	08005bf9 	.word	0x08005bf9
 8005c60:	08005bf9 	.word	0x08005bf9
 8005c64:	08005d3d 	.word	0x08005d3d
 8005c68:	6833      	ldr	r3, [r6, #0]
 8005c6a:	1d1a      	adds	r2, r3, #4
 8005c6c:	681b      	ldr	r3, [r3, #0]
 8005c6e:	6032      	str	r2, [r6, #0]
 8005c70:	f104 0642 	add.w	r6, r4, #66	@ 0x42
 8005c74:	f884 3042 	strb.w	r3, [r4, #66]	@ 0x42
 8005c78:	2301      	movs	r3, #1
 8005c7a:	e09c      	b.n	8005db6 <_printf_i+0x1e6>
 8005c7c:	6833      	ldr	r3, [r6, #0]
 8005c7e:	6820      	ldr	r0, [r4, #0]
 8005c80:	1d19      	adds	r1, r3, #4
 8005c82:	6031      	str	r1, [r6, #0]
 8005c84:	0606      	lsls	r6, r0, #24
 8005c86:	d501      	bpl.n	8005c8c <_printf_i+0xbc>
 8005c88:	681d      	ldr	r5, [r3, #0]
 8005c8a:	e003      	b.n	8005c94 <_printf_i+0xc4>
 8005c8c:	0645      	lsls	r5, r0, #25
 8005c8e:	d5fb      	bpl.n	8005c88 <_printf_i+0xb8>
 8005c90:	f9b3 5000 	ldrsh.w	r5, [r3]
 8005c94:	2d00      	cmp	r5, #0
 8005c96:	da03      	bge.n	8005ca0 <_printf_i+0xd0>
 8005c98:	232d      	movs	r3, #45	@ 0x2d
 8005c9a:	426d      	negs	r5, r5
 8005c9c:	f884 3043 	strb.w	r3, [r4, #67]	@ 0x43
 8005ca0:	230a      	movs	r3, #10
 8005ca2:	4858      	ldr	r0, [pc, #352]	@ (8005e04 <_printf_i+0x234>)
 8005ca4:	e011      	b.n	8005cca <_printf_i+0xfa>
 8005ca6:	6821      	ldr	r1, [r4, #0]
 8005ca8:	6833      	ldr	r3, [r6, #0]
 8005caa:	0608      	lsls	r0, r1, #24
 8005cac:	f853 5b04 	ldr.w	r5, [r3], #4
 8005cb0:	d402      	bmi.n	8005cb8 <_printf_i+0xe8>
 8005cb2:	0649      	lsls	r1, r1, #25
 8005cb4:	bf48      	it	mi
 8005cb6:	b2ad      	uxthmi	r5, r5
 8005cb8:	2f6f      	cmp	r7, #111	@ 0x6f
 8005cba:	6033      	str	r3, [r6, #0]
 8005cbc:	bf14      	ite	ne
 8005cbe:	230a      	movne	r3, #10
 8005cc0:	2308      	moveq	r3, #8
 8005cc2:	4850      	ldr	r0, [pc, #320]	@ (8005e04 <_printf_i+0x234>)
 8005cc4:	2100      	movs	r1, #0
 8005cc6:	f884 1043 	strb.w	r1, [r4, #67]	@ 0x43
 8005cca:	6866      	ldr	r6, [r4, #4]
 8005ccc:	2e00      	cmp	r6, #0
 8005cce:	60a6      	str	r6, [r4, #8]
 8005cd0:	db05      	blt.n	8005cde <_printf_i+0x10e>
 8005cd2:	6821      	ldr	r1, [r4, #0]
 8005cd4:	432e      	orrs	r6, r5
 8005cd6:	f021 0104 	bic.w	r1, r1, #4
 8005cda:	6021      	str	r1, [r4, #0]
 8005cdc:	d04b      	beq.n	8005d76 <_printf_i+0x1a6>
 8005cde:	4616      	mov	r6, r2
 8005ce0:	fbb5 f1f3 	udiv	r1, r5, r3
 8005ce4:	fb03 5711 	mls	r7, r3, r1, r5
 8005ce8:	5dc7      	ldrb	r7, [r0, r7]
 8005cea:	f806 7d01 	strb.w	r7, [r6, #-1]!
 8005cee:	462f      	mov	r7, r5
 8005cf0:	42bb      	cmp	r3, r7
 8005cf2:	460d      	mov	r5, r1
 8005cf4:	d9f4      	bls.n	8005ce0 <_printf_i+0x110>
 8005cf6:	2b08      	cmp	r3, #8
 8005cf8:	d10b      	bne.n	8005d12 <_printf_i+0x142>
 8005cfa:	6823      	ldr	r3, [r4, #0]
 8005cfc:	07df      	lsls	r7, r3, #31
 8005cfe:	d508      	bpl.n	8005d12 <_printf_i+0x142>
 8005d00:	6923      	ldr	r3, [r4, #16]
 8005d02:	6861      	ldr	r1, [r4, #4]
 8005d04:	4299      	cmp	r1, r3
 8005d06:	bfde      	ittt	le
 8005d08:	2330      	movle	r3, #48	@ 0x30
 8005d0a:	f806 3c01 	strble.w	r3, [r6, #-1]
 8005d0e:	f106 36ff 	addle.w	r6, r6, #4294967295
 8005d12:	1b92      	subs	r2, r2, r6
 8005d14:	6122      	str	r2, [r4, #16]
 8005d16:	464b      	mov	r3, r9
 8005d18:	4621      	mov	r1, r4
 8005d1a:	4640      	mov	r0, r8
 8005d1c:	f8cd a000 	str.w	sl, [sp]
 8005d20:	aa03      	add	r2, sp, #12
 8005d22:	f7ff fee3 	bl	8005aec <_printf_common>
 8005d26:	3001      	adds	r0, #1
 8005d28:	d14a      	bne.n	8005dc0 <_printf_i+0x1f0>
 8005d2a:	f04f 30ff 	mov.w	r0, #4294967295
 8005d2e:	b004      	add	sp, #16
 8005d30:	e8bd 87f0 	ldmia.w	sp!, {r4, r5, r6, r7, r8, r9, sl, pc}
 8005d34:	6823      	ldr	r3, [r4, #0]
 8005d36:	f043 0320 	orr.w	r3, r3, #32
 8005d3a:	6023      	str	r3, [r4, #0]
 8005d3c:	2778      	movs	r7, #120	@ 0x78
 8005d3e:	4832      	ldr	r0, [pc, #200]	@ (8005e08 <_printf_i+0x238>)
 8005d40:	f884 7045 	strb.w	r7, [r4, #69]	@ 0x45
 8005d44:	6823      	ldr	r3, [r4, #0]
 8005d46:	6831      	ldr	r1, [r6, #0]
 8005d48:	061f      	lsls	r7, r3, #24
 8005d4a:	f851 5b04 	ldr.w	r5, [r1], #4
 8005d4e:	d402      	bmi.n	8005d56 <_printf_i+0x186>
 8005d50:	065f      	lsls	r7, r3, #25
 8005d52:	bf48      	it	mi
 8005d54:	b2ad      	uxthmi	r5, r5
 8005d56:	6031      	str	r1, [r6, #0]
 8005d58:	07d9      	lsls	r1, r3, #31
 8005d5a:	bf44      	itt	mi
 8005d5c:	f043 0320 	orrmi.w	r3, r3, #32
 8005d60:	6023      	strmi	r3, [r4, #0]
 8005d62:	b11d      	cbz	r5, 8005d6c <_printf_i+0x19c>
 8005d64:	2310      	movs	r3, #16
 8005d66:	e7ad      	b.n	8005cc4 <_printf_i+0xf4>
 8005d68:	4826      	ldr	r0, [pc, #152]	@ (8005e04 <_printf_i+0x234>)
 8005d6a:	e7e9      	b.n	8005d40 <_printf_i+0x170>
 8005d6c:	6823      	ldr	r3, [r4, #0]
 8005d6e:	f023 0320 	bic.w	r3, r3, #32
 8005d72:	6023      	str	r3, [r4, #0]
 8005d74:	e7f6      	b.n	8005d64 <_printf_i+0x194>
 8005d76:	4616      	mov	r6, r2
 8005d78:	e7bd      	b.n	8005cf6 <_printf_i+0x126>
 8005d7a:	6833      	ldr	r3, [r6, #0]
 8005d7c:	6825      	ldr	r5, [r4, #0]
 8005d7e:	1d18      	adds	r0, r3, #4
 8005d80:	6961      	ldr	r1, [r4, #20]
 8005d82:	6030      	str	r0, [r6, #0]
 8005d84:	062e      	lsls	r6, r5, #24
 8005d86:	681b      	ldr	r3, [r3, #0]
 8005d88:	d501      	bpl.n	8005d8e <_printf_i+0x1be>
 8005d8a:	6019      	str	r1, [r3, #0]
 8005d8c:	e002      	b.n	8005d94 <_printf_i+0x1c4>
 8005d8e:	0668      	lsls	r0, r5, #25
 8005d90:	d5fb      	bpl.n	8005d8a <_printf_i+0x1ba>
 8005d92:	8019      	strh	r1, [r3, #0]
 8005d94:	2300      	movs	r3, #0
 8005d96:	4616      	mov	r6, r2
 8005d98:	6123      	str	r3, [r4, #16]
 8005d9a:	e7bc      	b.n	8005d16 <_printf_i+0x146>
 8005d9c:	6833      	ldr	r3, [r6, #0]
 8005d9e:	2100      	movs	r1, #0
 8005da0:	1d1a      	adds	r2, r3, #4
 8005da2:	6032      	str	r2, [r6, #0]
 8005da4:	681e      	ldr	r6, [r3, #0]
 8005da6:	6862      	ldr	r2, [r4, #4]
 8005da8:	4630      	mov	r0, r6
 8005daa:	f000 f8ed 	bl	8005f88 <memchr>
 8005dae:	b108      	cbz	r0, 8005db4 <_printf_i+0x1e4>
 8005db0:	1b80      	subs	r0, r0, r6
 8005db2:	6060      	str	r0, [r4, #4]
 8005db4:	6863      	ldr	r3, [r4, #4]
 8005db6:	6123      	str	r3, [r4, #16]
 8005db8:	2300      	movs	r3, #0
 8005dba:	f884 3043 	strb.w	r3, [r4, #67]	@ 0x43
 8005dbe:	e7aa      	b.n	8005d16 <_printf_i+0x146>
 8005dc0:	4632      	mov	r2, r6
 8005dc2:	4649      	mov	r1, r9
 8005dc4:	4640      	mov	r0, r8
 8005dc6:	6923      	ldr	r3, [r4, #16]
 8005dc8:	47d0      	blx	sl
 8005dca:	3001      	adds	r0, #1
 8005dcc:	d0ad      	beq.n	8005d2a <_printf_i+0x15a>
 8005dce:	6823      	ldr	r3, [r4, #0]
 8005dd0:	079b      	lsls	r3, r3, #30
 8005dd2:	d413      	bmi.n	8005dfc <_printf_i+0x22c>
 8005dd4:	68e0      	ldr	r0, [r4, #12]
 8005dd6:	9b03      	ldr	r3, [sp, #12]
 8005dd8:	4298      	cmp	r0, r3
 8005dda:	bfb8      	it	lt
 8005ddc:	4618      	movlt	r0, r3
 8005dde:	e7a6      	b.n	8005d2e <_printf_i+0x15e>
 8005de0:	2301      	movs	r3, #1
 8005de2:	4632      	mov	r2, r6
 8005de4:	4649      	mov	r1, r9
 8005de6:	4640      	mov	r0, r8
 8005de8:	47d0      	blx	sl
 8005dea:	3001      	adds	r0, #1
 8005dec:	d09d      	beq.n	8005d2a <_printf_i+0x15a>
 8005dee:	3501      	adds	r5, #1
 8005df0:	68e3      	ldr	r3, [r4, #12]
 8005df2:	9903      	ldr	r1, [sp, #12]
 8005df4:	1a5b      	subs	r3, r3, r1
 8005df6:	42ab      	cmp	r3, r5
 8005df8:	dcf2      	bgt.n	8005de0 <_printf_i+0x210>
 8005dfa:	e7eb      	b.n	8005dd4 <_printf_i+0x204>
 8005dfc:	2500      	movs	r5, #0
 8005dfe:	f104 0619 	add.w	r6, r4, #25
 8005e02:	e7f5      	b.n	8005df0 <_printf_i+0x220>
 8005e04:	080065a7 	.word	0x080065a7
 8005e08:	080065b8 	.word	0x080065b8

08005e0c <__swbuf_r>:
 8005e0c:	b5f8      	push	{r3, r4, r5, r6, r7, lr}
 8005e0e:	460e      	mov	r6, r1
 8005e10:	4614      	mov	r4, r2
 8005e12:	4605      	mov	r5, r0
 8005e14:	b118      	cbz	r0, 8005e1e <__swbuf_r+0x12>
 8005e16:	6a03      	ldr	r3, [r0, #32]
 8005e18:	b90b      	cbnz	r3, 8005e1e <__swbuf_r+0x12>
 8005e1a:	f7ff f98d 	bl	8005138 <__sinit>
 8005e1e:	69a3      	ldr	r3, [r4, #24]
 8005e20:	60a3      	str	r3, [r4, #8]
 8005e22:	89a3      	ldrh	r3, [r4, #12]
 8005e24:	071a      	lsls	r2, r3, #28
 8005e26:	d501      	bpl.n	8005e2c <__swbuf_r+0x20>
 8005e28:	6923      	ldr	r3, [r4, #16]
 8005e2a:	b943      	cbnz	r3, 8005e3e <__swbuf_r+0x32>
 8005e2c:	4621      	mov	r1, r4
 8005e2e:	4628      	mov	r0, r5
 8005e30:	f000 f82a 	bl	8005e88 <__swsetup_r>
 8005e34:	b118      	cbz	r0, 8005e3e <__swbuf_r+0x32>
 8005e36:	f04f 37ff 	mov.w	r7, #4294967295
 8005e3a:	4638      	mov	r0, r7
 8005e3c:	bdf8      	pop	{r3, r4, r5, r6, r7, pc}
 8005e3e:	6823      	ldr	r3, [r4, #0]
 8005e40:	6922      	ldr	r2, [r4, #16]
 8005e42:	b2f6      	uxtb	r6, r6
 8005e44:	1a98      	subs	r0, r3, r2
 8005e46:	6963      	ldr	r3, [r4, #20]
 8005e48:	4637      	mov	r7, r6
 8005e4a:	4283      	cmp	r3, r0
 8005e4c:	dc05      	bgt.n	8005e5a <__swbuf_r+0x4e>
 8005e4e:	4621      	mov	r1, r4
 8005e50:	4628      	mov	r0, r5
 8005e52:	f7ff f8a9 	bl	8004fa8 <_fflush_r>
 8005e56:	2800      	cmp	r0, #0
 8005e58:	d1ed      	bne.n	8005e36 <__swbuf_r+0x2a>
 8005e5a:	68a3      	ldr	r3, [r4, #8]
 8005e5c:	3b01      	subs	r3, #1
 8005e5e:	60a3      	str	r3, [r4, #8]
 8005e60:	6823      	ldr	r3, [r4, #0]
 8005e62:	1c5a      	adds	r2, r3, #1
 8005e64:	6022      	str	r2, [r4, #0]
 8005e66:	701e      	strb	r6, [r3, #0]
 8005e68:	6962      	ldr	r2, [r4, #20]
 8005e6a:	1c43      	adds	r3, r0, #1
 8005e6c:	429a      	cmp	r2, r3
 8005e6e:	d004      	beq.n	8005e7a <__swbuf_r+0x6e>
 8005e70:	89a3      	ldrh	r3, [r4, #12]
 8005e72:	07db      	lsls	r3, r3, #31
 8005e74:	d5e1      	bpl.n	8005e3a <__swbuf_r+0x2e>
 8005e76:	2e0a      	cmp	r6, #10
 8005e78:	d1df      	bne.n	8005e3a <__swbuf_r+0x2e>
 8005e7a:	4621      	mov	r1, r4
 8005e7c:	4628      	mov	r0, r5
 8005e7e:	f7ff f893 	bl	8004fa8 <_fflush_r>
 8005e82:	2800      	cmp	r0, #0
 8005e84:	d0d9      	beq.n	8005e3a <__swbuf_r+0x2e>
 8005e86:	e7d6      	b.n	8005e36 <__swbuf_r+0x2a>

08005e88 <__swsetup_r>:
 8005e88:	b538      	push	{r3, r4, r5, lr}
 8005e8a:	4b29      	ldr	r3, [pc, #164]	@ (8005f30 <__swsetup_r+0xa8>)
 8005e8c:	4605      	mov	r5, r0
 8005e8e:	6818      	ldr	r0, [r3, #0]
 8005e90:	460c      	mov	r4, r1
 8005e92:	b118      	cbz	r0, 8005e9c <__swsetup_r+0x14>
 8005e94:	6a03      	ldr	r3, [r0, #32]
 8005e96:	b90b      	cbnz	r3, 8005e9c <__swsetup_r+0x14>
 8005e98:	f7ff f94e 	bl	8005138 <__sinit>
 8005e9c:	f9b4 300c 	ldrsh.w	r3, [r4, #12]
 8005ea0:	0719      	lsls	r1, r3, #28
 8005ea2:	d422      	bmi.n	8005eea <__swsetup_r+0x62>
 8005ea4:	06da      	lsls	r2, r3, #27
 8005ea6:	d407      	bmi.n	8005eb8 <__swsetup_r+0x30>
 8005ea8:	2209      	movs	r2, #9
 8005eaa:	602a      	str	r2, [r5, #0]
 8005eac:	f043 0340 	orr.w	r3, r3, #64	@ 0x40
 8005eb0:	f04f 30ff 	mov.w	r0, #4294967295
 8005eb4:	81a3      	strh	r3, [r4, #12]
 8005eb6:	e033      	b.n	8005f20 <__swsetup_r+0x98>
 8005eb8:	0758      	lsls	r0, r3, #29
 8005eba:	d512      	bpl.n	8005ee2 <__swsetup_r+0x5a>
 8005ebc:	6b61      	ldr	r1, [r4, #52]	@ 0x34
 8005ebe:	b141      	cbz	r1, 8005ed2 <__swsetup_r+0x4a>
 8005ec0:	f104 0344 	add.w	r3, r4, #68	@ 0x44
 8005ec4:	4299      	cmp	r1, r3
 8005ec6:	d002      	beq.n	8005ece <__swsetup_r+0x46>
 8005ec8:	4628      	mov	r0, r5
 8005eca:	f7ff fa81 	bl	80053d0 <_free_r>
 8005ece:	2300      	movs	r3, #0
 8005ed0:	6363      	str	r3, [r4, #52]	@ 0x34
 8005ed2:	89a3      	ldrh	r3, [r4, #12]
 8005ed4:	f023 0324 	bic.w	r3, r3, #36	@ 0x24
 8005ed8:	81a3      	strh	r3, [r4, #12]
 8005eda:	2300      	movs	r3, #0
 8005edc:	6063      	str	r3, [r4, #4]
 8005ede:	6923      	ldr	r3, [r4, #16]
 8005ee0:	6023      	str	r3, [r4, #0]
 8005ee2:	89a3      	ldrh	r3, [r4, #12]
 8005ee4:	f043 0308 	orr.w	r3, r3, #8
 8005ee8:	81a3      	strh	r3, [r4, #12]
 8005eea:	6923      	ldr	r3, [r4, #16]
 8005eec:	b94b      	cbnz	r3, 8005f02 <__swsetup_r+0x7a>
 8005eee:	89a3      	ldrh	r3, [r4, #12]
 8005ef0:	f403 7320 	and.w	r3, r3, #640	@ 0x280
 8005ef4:	f5b3 7f00 	cmp.w	r3, #512	@ 0x200
 8005ef8:	d003      	beq.n	8005f02 <__swsetup_r+0x7a>
 8005efa:	4621      	mov	r1, r4
 8005efc:	4628      	mov	r0, r5
 8005efe:	f000 f8a4 	bl	800604a <__smakebuf_r>
 8005f02:	f9b4 300c 	ldrsh.w	r3, [r4, #12]
 8005f06:	f013 0201 	ands.w	r2, r3, #1
 8005f0a:	d00a      	beq.n	8005f22 <__swsetup_r+0x9a>
 8005f0c:	2200      	movs	r2, #0
 8005f0e:	60a2      	str	r2, [r4, #8]
 8005f10:	6962      	ldr	r2, [r4, #20]
 8005f12:	4252      	negs	r2, r2
 8005f14:	61a2      	str	r2, [r4, #24]
 8005f16:	6922      	ldr	r2, [r4, #16]
 8005f18:	b942      	cbnz	r2, 8005f2c <__swsetup_r+0xa4>
 8005f1a:	f013 0080 	ands.w	r0, r3, #128	@ 0x80
 8005f1e:	d1c5      	bne.n	8005eac <__swsetup_r+0x24>
 8005f20:	bd38      	pop	{r3, r4, r5, pc}
 8005f22:	0799      	lsls	r1, r3, #30
 8005f24:	bf58      	it	pl
 8005f26:	6962      	ldrpl	r2, [r4, #20]
 8005f28:	60a2      	str	r2, [r4, #8]
 8005f2a:	e7f4      	b.n	8005f16 <__swsetup_r+0x8e>
 8005f2c:	2000      	movs	r0, #0
 8005f2e:	e7f7      	b.n	8005f20 <__swsetup_r+0x98>
 8005f30:	2000009c 	.word	0x2000009c

08005f34 <memmove>:
 8005f34:	4288      	cmp	r0, r1
 8005f36:	b510      	push	{r4, lr}
 8005f38:	eb01 0402 	add.w	r4, r1, r2
 8005f3c:	d902      	bls.n	8005f44 <memmove+0x10>
 8005f3e:	4284      	cmp	r4, r0
 8005f40:	4623      	mov	r3, r4
 8005f42:	d807      	bhi.n	8005f54 <memmove+0x20>
 8005f44:	1e43      	subs	r3, r0, #1
 8005f46:	42a1      	cmp	r1, r4
 8005f48:	d008      	beq.n	8005f5c <memmove+0x28>
 8005f4a:	f811 2b01 	ldrb.w	r2, [r1], #1
 8005f4e:	f803 2f01 	strb.w	r2, [r3, #1]!
 8005f52:	e7f8      	b.n	8005f46 <memmove+0x12>
 8005f54:	4601      	mov	r1, r0
 8005f56:	4402      	add	r2, r0
 8005f58:	428a      	cmp	r2, r1
 8005f5a:	d100      	bne.n	8005f5e <memmove+0x2a>
 8005f5c:	bd10      	pop	{r4, pc}
 8005f5e:	f813 4d01 	ldrb.w	r4, [r3, #-1]!
 8005f62:	f802 4d01 	strb.w	r4, [r2, #-1]!
 8005f66:	e7f7      	b.n	8005f58 <memmove+0x24>

08005f68 <_sbrk_r>:
 8005f68:	b538      	push	{r3, r4, r5, lr}
 8005f6a:	2300      	movs	r3, #0
 8005f6c:	4d05      	ldr	r5, [pc, #20]	@ (8005f84 <_sbrk_r+0x1c>)
 8005f6e:	4604      	mov	r4, r0
 8005f70:	4608      	mov	r0, r1
 8005f72:	602b      	str	r3, [r5, #0]
 8005f74:	f7fa fb0e 	bl	8000594 <_sbrk>
 8005f78:	1c43      	adds	r3, r0, #1
 8005f7a:	d102      	bne.n	8005f82 <_sbrk_r+0x1a>
 8005f7c:	682b      	ldr	r3, [r5, #0]
 8005f7e:	b103      	cbz	r3, 8005f82 <_sbrk_r+0x1a>
 8005f80:	6023      	str	r3, [r4, #0]
 8005f82:	bd38      	pop	{r3, r4, r5, pc}
 8005f84:	200007dc 	.word	0x200007dc

08005f88 <memchr>:
 8005f88:	4603      	mov	r3, r0
 8005f8a:	b510      	push	{r4, lr}
 8005f8c:	b2c9      	uxtb	r1, r1
 8005f8e:	4402      	add	r2, r0
 8005f90:	4293      	cmp	r3, r2
 8005f92:	4618      	mov	r0, r3
 8005f94:	d101      	bne.n	8005f9a <memchr+0x12>
 8005f96:	2000      	movs	r0, #0
 8005f98:	e003      	b.n	8005fa2 <memchr+0x1a>
 8005f9a:	7804      	ldrb	r4, [r0, #0]
 8005f9c:	3301      	adds	r3, #1
 8005f9e:	428c      	cmp	r4, r1
 8005fa0:	d1f6      	bne.n	8005f90 <memchr+0x8>
 8005fa2:	bd10      	pop	{r4, pc}

08005fa4 <_realloc_r>:
 8005fa4:	e92d 41f0 	stmdb	sp!, {r4, r5, r6, r7, r8, lr}
 8005fa8:	4607      	mov	r7, r0
 8005faa:	4614      	mov	r4, r2
 8005fac:	460d      	mov	r5, r1
 8005fae:	b921      	cbnz	r1, 8005fba <_realloc_r+0x16>
 8005fb0:	4611      	mov	r1, r2
 8005fb2:	e8bd 41f0 	ldmia.w	sp!, {r4, r5, r6, r7, r8, lr}
 8005fb6:	f7ff ba75 	b.w	80054a4 <_malloc_r>
 8005fba:	b92a      	cbnz	r2, 8005fc8 <_realloc_r+0x24>
 8005fbc:	f7ff fa08 	bl	80053d0 <_free_r>
 8005fc0:	4625      	mov	r5, r4
 8005fc2:	4628      	mov	r0, r5
 8005fc4:	e8bd 81f0 	ldmia.w	sp!, {r4, r5, r6, r7, r8, pc}
 8005fc8:	f000 f89e 	bl	8006108 <_malloc_usable_size_r>
 8005fcc:	4284      	cmp	r4, r0
 8005fce:	4606      	mov	r6, r0
 8005fd0:	d802      	bhi.n	8005fd8 <_realloc_r+0x34>
 8005fd2:	ebb4 0f50 	cmp.w	r4, r0, lsr #1
 8005fd6:	d8f4      	bhi.n	8005fc2 <_realloc_r+0x1e>
 8005fd8:	4621      	mov	r1, r4
 8005fda:	4638      	mov	r0, r7
 8005fdc:	f7ff fa62 	bl	80054a4 <_malloc_r>
 8005fe0:	4680      	mov	r8, r0
 8005fe2:	b908      	cbnz	r0, 8005fe8 <_realloc_r+0x44>
 8005fe4:	4645      	mov	r5, r8
 8005fe6:	e7ec      	b.n	8005fc2 <_realloc_r+0x1e>
 8005fe8:	42b4      	cmp	r4, r6
 8005fea:	4622      	mov	r2, r4
 8005fec:	4629      	mov	r1, r5
 8005fee:	bf28      	it	cs
 8005ff0:	4632      	movcs	r2, r6
 8005ff2:	f7ff f9de 	bl	80053b2 <memcpy>
 8005ff6:	4629      	mov	r1, r5
 8005ff8:	4638      	mov	r0, r7
 8005ffa:	f7ff f9e9 	bl	80053d0 <_free_r>
 8005ffe:	e7f1      	b.n	8005fe4 <_realloc_r+0x40>

08006000 <__swhatbuf_r>:
 8006000:	b570      	push	{r4, r5, r6, lr}
 8006002:	460c      	mov	r4, r1
 8006004:	f9b1 100e 	ldrsh.w	r1, [r1, #14]
 8006008:	4615      	mov	r5, r2
 800600a:	2900      	cmp	r1, #0
 800600c:	461e      	mov	r6, r3
 800600e:	b096      	sub	sp, #88	@ 0x58
 8006010:	da0c      	bge.n	800602c <__swhatbuf_r+0x2c>
 8006012:	89a3      	ldrh	r3, [r4, #12]
 8006014:	2100      	movs	r1, #0
 8006016:	f013 0f80 	tst.w	r3, #128	@ 0x80
 800601a:	bf14      	ite	ne
 800601c:	2340      	movne	r3, #64	@ 0x40
 800601e:	f44f 6380 	moveq.w	r3, #1024	@ 0x400
 8006022:	2000      	movs	r0, #0
 8006024:	6031      	str	r1, [r6, #0]
 8006026:	602b      	str	r3, [r5, #0]
 8006028:	b016      	add	sp, #88	@ 0x58
 800602a:	bd70      	pop	{r4, r5, r6, pc}
 800602c:	466a      	mov	r2, sp
 800602e:	f000 f849 	bl	80060c4 <_fstat_r>
 8006032:	2800      	cmp	r0, #0
 8006034:	dbed      	blt.n	8006012 <__swhatbuf_r+0x12>
 8006036:	9901      	ldr	r1, [sp, #4]
 8006038:	f401 4170 	and.w	r1, r1, #61440	@ 0xf000
 800603c:	f5a1 5300 	sub.w	r3, r1, #8192	@ 0x2000
 8006040:	4259      	negs	r1, r3
 8006042:	4159      	adcs	r1, r3
 8006044:	f44f 6380 	mov.w	r3, #1024	@ 0x400
 8006048:	e7eb      	b.n	8006022 <__swhatbuf_r+0x22>

0800604a <__smakebuf_r>:
 800604a:	898b      	ldrh	r3, [r1, #12]
 800604c:	b5f7      	push	{r0, r1, r2, r4, r5, r6, r7, lr}
 800604e:	079d      	lsls	r5, r3, #30
 8006050:	4606      	mov	r6, r0
 8006052:	460c      	mov	r4, r1
 8006054:	d507      	bpl.n	8006066 <__smakebuf_r+0x1c>
 8006056:	f104 0347 	add.w	r3, r4, #71	@ 0x47
 800605a:	6023      	str	r3, [r4, #0]
 800605c:	6123      	str	r3, [r4, #16]
 800605e:	2301      	movs	r3, #1
 8006060:	6163      	str	r3, [r4, #20]
 8006062:	b003      	add	sp, #12
 8006064:	bdf0      	pop	{r4, r5, r6, r7, pc}
 8006066:	466a      	mov	r2, sp
 8006068:	ab01      	add	r3, sp, #4
 800606a:	f7ff ffc9 	bl	8006000 <__swhatbuf_r>
 800606e:	9f00      	ldr	r7, [sp, #0]
 8006070:	4605      	mov	r5, r0
 8006072:	4639      	mov	r1, r7
 8006074:	4630      	mov	r0, r6
 8006076:	f7ff fa15 	bl	80054a4 <_malloc_r>
 800607a:	b948      	cbnz	r0, 8006090 <__smakebuf_r+0x46>
 800607c:	f9b4 300c 	ldrsh.w	r3, [r4, #12]
 8006080:	059a      	lsls	r2, r3, #22
 8006082:	d4ee      	bmi.n	8006062 <__smakebuf_r+0x18>
 8006084:	f023 0303 	bic.w	r3, r3, #3
 8006088:	f043 0302 	orr.w	r3, r3, #2
 800608c:	81a3      	strh	r3, [r4, #12]
 800608e:	e7e2      	b.n	8006056 <__smakebuf_r+0xc>
 8006090:	89a3      	ldrh	r3, [r4, #12]
 8006092:	e9c4 0704 	strd	r0, r7, [r4, #16]
 8006096:	f043 0380 	orr.w	r3, r3, #128	@ 0x80
 800609a:	81a3      	strh	r3, [r4, #12]
 800609c:	9b01      	ldr	r3, [sp, #4]
 800609e:	6020      	str	r0, [r4, #0]
 80060a0:	b15b      	cbz	r3, 80060ba <__smakebuf_r+0x70>
 80060a2:	4630      	mov	r0, r6
 80060a4:	f9b4 100e 	ldrsh.w	r1, [r4, #14]
 80060a8:	f000 f81e 	bl	80060e8 <_isatty_r>
 80060ac:	b128      	cbz	r0, 80060ba <__smakebuf_r+0x70>
 80060ae:	89a3      	ldrh	r3, [r4, #12]
 80060b0:	f023 0303 	bic.w	r3, r3, #3
 80060b4:	f043 0301 	orr.w	r3, r3, #1
 80060b8:	81a3      	strh	r3, [r4, #12]
 80060ba:	89a3      	ldrh	r3, [r4, #12]
 80060bc:	431d      	orrs	r5, r3
 80060be:	81a5      	strh	r5, [r4, #12]
 80060c0:	e7cf      	b.n	8006062 <__smakebuf_r+0x18>
	...

080060c4 <_fstat_r>:
 80060c4:	b538      	push	{r3, r4, r5, lr}
 80060c6:	2300      	movs	r3, #0
 80060c8:	4d06      	ldr	r5, [pc, #24]	@ (80060e4 <_fstat_r+0x20>)
 80060ca:	4604      	mov	r4, r0
 80060cc:	4608      	mov	r0, r1
 80060ce:	4611      	mov	r1, r2
 80060d0:	602b      	str	r3, [r5, #0]
 80060d2:	f7fe fd66 	bl	8004ba2 <_fstat>
 80060d6:	1c43      	adds	r3, r0, #1
 80060d8:	d102      	bne.n	80060e0 <_fstat_r+0x1c>
 80060da:	682b      	ldr	r3, [r5, #0]
 80060dc:	b103      	cbz	r3, 80060e0 <_fstat_r+0x1c>
 80060de:	6023      	str	r3, [r4, #0]
 80060e0:	bd38      	pop	{r3, r4, r5, pc}
 80060e2:	bf00      	nop
 80060e4:	200007dc 	.word	0x200007dc

080060e8 <_isatty_r>:
 80060e8:	b538      	push	{r3, r4, r5, lr}
 80060ea:	2300      	movs	r3, #0
 80060ec:	4d05      	ldr	r5, [pc, #20]	@ (8006104 <_isatty_r+0x1c>)
 80060ee:	4604      	mov	r4, r0
 80060f0:	4608      	mov	r0, r1
 80060f2:	602b      	str	r3, [r5, #0]
 80060f4:	f7fe feba 	bl	8004e6c <_isatty>
 80060f8:	1c43      	adds	r3, r0, #1
 80060fa:	d102      	bne.n	8006102 <_isatty_r+0x1a>
 80060fc:	682b      	ldr	r3, [r5, #0]
 80060fe:	b103      	cbz	r3, 8006102 <_isatty_r+0x1a>
 8006100:	6023      	str	r3, [r4, #0]
 8006102:	bd38      	pop	{r3, r4, r5, pc}
 8006104:	200007dc 	.word	0x200007dc

08006108 <_malloc_usable_size_r>:
 8006108:	f851 3c04 	ldr.w	r3, [r1, #-4]
 800610c:	1f18      	subs	r0, r3, #4
 800610e:	2b00      	cmp	r3, #0
 8006110:	bfbc      	itt	lt
 8006112:	580b      	ldrlt	r3, [r1, r0]
 8006114:	18c0      	addlt	r0, r0, r3
 8006116:	4770      	bx	lr

08006118 <_init>:
 8006118:	b5f8      	push	{r3, r4, r5, r6, r7, lr}
 800611a:	bf00      	nop
 800611c:	bcf8      	pop	{r3, r4, r5, r6, r7}
 800611e:	bc08      	pop	{r3}
 8006120:	469e      	mov	lr, r3
 8006122:	4770      	bx	lr

08006124 <_fini>:
 8006124:	b5f8      	push	{r3, r4, r5, r6, r7, lr}
 8006126:	bf00      	nop
 8006128:	bcf8      	pop	{r3, r4, r5, r6, r7}
 800612a:	bc08      	pop	{r3}
 800612c:	469e      	mov	lr, r3
 800612e:	4770      	bx	lr
